   1              		.file	"TestRadixSort.cpp"
   2              		.intel_syntax noprefix
   3              	 # GNU C++ (i686-posix-sjlj-rev2, Built by MinGW-W64 project) version 4.9.2 (i686-w64-mingw32)
   4              	 #	compiled by GNU C version 4.9.2, GMP version 6.0.0, MPFR version 3.1.2-p9, MPC version 1.0.2
   5              	 # warning: MPFR header version 3.1.2-p9 differs from library version 3.1.2-p10.
   6              	 # GGC heuristics: --param ggc-min-expand=100 --param ggc-min-heapsize=131072
   7              	 # options passed:  -imultilib 64
   8              	 # -iprefix C:/Base/Compiler/MinGW-4.9.2/mingw32/bin/../lib/gcc/i686-w64-mingw32/4.9.2/
   9              	 # -D_REENTRANT TestRadixSort.cpp -m64 -masm=intel -mtune=core2
  10              	 # -march=nocona -g -O3 -std=c++11 -fverbose-asm
  11              	 # options enabled:  -faggressive-loop-optimizations
  12              	 # -fasynchronous-unwind-tables -fauto-inc-dec -fbranch-count-reg
  13              	 # -fcaller-saves -fcombine-stack-adjustments -fcommon -fcompare-elim
  14              	 # -fcprop-registers -fcrossjumping -fcse-follow-jumps -fdefer-pop
  15              	 # -fdelete-null-pointer-checks -fdevirtualize -fdevirtualize-speculatively
  16              	 # -fdwarf2-cfi-asm -fearly-inlining -feliminate-unused-debug-types
  17              	 # -fexceptions -fexpensive-optimizations -fforward-propagate
  18              	 # -ffunction-cse -fgcse -fgcse-after-reload -fgcse-lm -fgnu-runtime
  19              	 # -fgnu-unique -fguess-branch-probability -fhoist-adjacent-loads -fident
  20              	 # -fif-conversion -fif-conversion2 -findirect-inlining -finline
  21              	 # -finline-atomics -finline-functions -finline-functions-called-once
  22              	 # -finline-small-functions -fipa-cp -fipa-cp-clone -fipa-profile
  23              	 # -fipa-pure-const -fipa-reference -fipa-sra -fira-hoist-pressure
  24              	 # -fira-share-save-slots -fira-share-spill-slots
  25              	 # -fisolate-erroneous-paths-dereference -fivopts -fkeep-inline-dllexport
  26              	 # -fkeep-static-consts -fleading-underscore -fmath-errno -fmerge-constants
  27              	 # -fmerge-debug-strings -fmove-loop-invariants -fomit-frame-pointer
  28              	 # -foptimize-sibling-calls -foptimize-strlen -fpartial-inlining -fpeephole
  29              	 # -fpeephole2 -fpic -fpredictive-commoning -fprefetch-loop-arrays -free
  30              	 # -freg-struct-return -freorder-blocks -freorder-functions
  31              	 # -frerun-cse-after-loop -fsched-critical-path-heuristic
  32              	 # -fsched-dep-count-heuristic -fsched-group-heuristic -fsched-interblock
  33              	 # -fsched-last-insn-heuristic -fsched-rank-heuristic -fsched-spec
  34              	 # -fsched-spec-insn-heuristic -fsched-stalled-insns-dep -fschedule-insns2
  35              	 # -fset-stack-executable -fshow-column -fshrink-wrap -fsigned-zeros
  36              	 # -fsplit-ivs-in-unroller -fsplit-wide-types -fstrict-aliasing
  37              	 # -fstrict-overflow -fstrict-volatile-bitfields -fsync-libcalls
  38              	 # -fthread-jumps -ftoplevel-reorder -ftrapping-math -ftree-bit-ccp
  39              	 # -ftree-builtin-call-dce -ftree-ccp -ftree-ch -ftree-coalesce-vars
  40              	 # -ftree-copy-prop -ftree-copyrename -ftree-cselim -ftree-dce
  41              	 # -ftree-dominator-opts -ftree-dse -ftree-forwprop -ftree-fre
  42              	 # -ftree-loop-distribute-patterns -ftree-loop-if-convert -ftree-loop-im
  43              	 # -ftree-loop-ivcanon -ftree-loop-optimize -ftree-loop-vectorize
  44              	 # -ftree-parallelize-loops= -ftree-partial-pre -ftree-phiprop -ftree-pre
  45              	 # -ftree-pta -ftree-reassoc -ftree-scev-cprop -ftree-sink
  46              	 # -ftree-slp-vectorize -ftree-slsr -ftree-sra -ftree-switch-conversion
  47              	 # -ftree-tail-merge -ftree-ter -ftree-vrp -funit-at-a-time
  48              	 # -funswitch-loops -funwind-tables -fvar-tracking
  49              	 # -fvar-tracking-assignments -fverbose-asm -fzero-initialized-in-bss
  50              	 # -m128bit-long-double -m64 -m80387 -maccumulate-outgoing-args
  51              	 # -malign-double -malign-stringops -mcx16 -mfancy-math-387 -mfentry
  52              	 # -mfp-ret-in-387 -mfxsr -mieee-fp -mlong-double-80 -mmmx -mms-bitfields
  53              	 # -mno-sse4 -mpush-args -mred-zone -msse -msse2 -msse3 -mstack-arg-probe
  54              	 # -mvzeroupper
  55              	
  56              		.text
  57              	.Ltext0:
  58              		.cfi_sections	.debug_frame
  59              		.section .rdata,"dr"
  60              		.align 8
  61              	.LC3:
  62 0000 436F756E 		.ascii "Counting: %.3lf milliseconds = %.3lf MB/s = %.3lf MiB/s\12\0"
  62      74696E67 
  62      3A20252E 
  62      336C6620 
  62      6D696C6C 
  63              		.section	.text$_Z13RadixSortPassIjjLi0ELi4EEvPKT_PKT0_PS0_PS3_y,"x"
  64              		.linkonce discard
  65              		.p2align 4,,15
  66              		.globl	_Z13RadixSortPassIjjLi0ELi4EEvPKT_PKT0_PS0_PS3_y
  68              		.seh_proc	_Z13RadixSortPassIjjLi0ELi4EEvPKT_PKT0_PS0_PS3_y
  69              	_Z13RadixSortPassIjjLi0ELi4EEvPKT_PKT0_PS0_PS3_y:
  70              	.LFB3007:
  71              		.file 1 "RadixSort.cpp"
   1:RadixSort.cpp **** #include <stdlib.h>
   2:RadixSort.cpp **** #include <stdint.h>
   3:RadixSort.cpp **** #include <memory.h>
   4:RadixSort.cpp **** 
   5:RadixSort.cpp **** template <typename Key, typename Data, int SortBase, int SortBits>
   6:RadixSort.cpp **** void RadixSortPass (const Key *InKey, const Data *InData, Key *OutKey, Data *OutData, size_t size)
  72              		.loc 1 6 0
  73              		.cfi_startproc
  74              	.LVL0:
  75 0000 55       		push	rbp	 #
  76              		.seh_pushreg	rbp
  77              		.cfi_def_cfa_offset 16
  78              		.cfi_offset 6, -16
  79 0001 4157     		push	r15	 #
  80              		.seh_pushreg	r15
  81              		.cfi_def_cfa_offset 24
  82              		.cfi_offset 15, -24
  83 0003 4156     		push	r14	 #
  84              		.seh_pushreg	r14
  85              		.cfi_def_cfa_offset 32
  86              		.cfi_offset 14, -32
  87 0005 4155     		push	r13	 #
  88              		.seh_pushreg	r13
  89              		.cfi_def_cfa_offset 40
  90              		.cfi_offset 13, -40
  91 0007 4154     		push	r12	 #
  92              		.seh_pushreg	r12
  93              		.cfi_def_cfa_offset 48
  94              		.cfi_offset 12, -48
  95 0009 57       		push	rdi	 #
  96              		.seh_pushreg	rdi
  97              		.cfi_def_cfa_offset 56
  98              		.cfi_offset 5, -56
  99 000a 56       		push	rsi	 #
 100              		.seh_pushreg	rsi
 101              		.cfi_def_cfa_offset 64
 102              		.cfi_offset 4, -64
 103 000b 53       		push	rbx	 #
 104              		.seh_pushreg	rbx
 105              		.cfi_def_cfa_offset 72
 106              		.cfi_offset 3, -72
 107 000c 4883EC68 		sub	rsp, 104	 #,
 108              		.seh_stackalloc	104
 109              		.cfi_def_cfa_offset 176
 110 0010 488DAC24 		lea	rbp, 128[rsp]	 #,
 110      80000000 
 111              		.seh_setframe	rbp, 128
 112              		.cfi_def_cfa 6, 48
 113              		.seh_endprologue
 114              	.LVL1:
 115              		.loc 1 6 0
 116 0018 4C8B6D50 		mov	r13, QWORD PTR 80[rbp]	 # size, size
 117              	.LBB213:
 118              	.LBB214:
 119              	.LBB215:
 120              		.file 2 "timer.h"
   1:timer.h       **** //--------------------------------------------------------------------------------------
   2:timer.h       **** // Copyright (c) Microsoft Corp.
   3:timer.h       **** //
   4:timer.h       **** // File: timer.h
   5:timer.h       **** //
   6:timer.h       **** // Licensed under the Apache License, Version 2.0 (the "License"); you may not use this
   7:timer.h       **** // file except in compliance with the License. You may obtain a copy of the License at
   8:timer.h       **** // http://www.apache.org/licenses/LICENSE-2.0
   9:timer.h       **** //
  10:timer.h       **** // THIS CODE IS PROVIDED *AS IS* BASIS, WITHOUT WARRANTIES OR CONDITIONS OF ANY KIND,
  11:timer.h       **** // EITHER EXPRESS OR IMPLIED, INCLUDING WITHOUT LIMITATION ANY IMPLIED WARRANTIES OR
  12:timer.h       **** // CONDITIONS OF TITLE, FITNESS FOR A PARTICULAR PURPOSE, MERCHANTABLITY OR NON-INFRINGEMENT.
  13:timer.h       **** //
  14:timer.h       **** // See the Apache Version 2.0 License for specific language governing permissions and
  15:timer.h       **** // limitations under the License.
  16:timer.h       **** //--------------------------------------------------------------------------------------
  17:timer.h       **** 
  18:timer.h       **** #pragma once
  19:timer.h       **** #include <windows.h>
  20:timer.h       **** 
  21:timer.h       **** struct Timer
  22:timer.h       **** {
  23:timer.h       ****     void Start()
  24:timer.h       ****     {
  25:timer.h       ****         QueryPerformanceCounter(&m_start);
  26:timer.h       ****     }
  27:timer.h       **** 
  28:timer.h       ****     void Stop()
  29:timer.h       ****     {
  30:timer.h       ****         QueryPerformanceCounter(&m_stop);
  31:timer.h       ****     }
  32:timer.h       **** 
  33:timer.h       ****     // Returns elapsed time in milliseconds (ms)
  34:timer.h       ****     double Elapsed()
  35:timer.h       ****     {
  36:timer.h       ****         return (m_stop.QuadPart - m_start.QuadPart - m_overhead) \
  37:timer.h       ****                                           * 1000.0 / m_freq.QuadPart;
  38:timer.h       ****     }
  39:timer.h       **** 
  40:timer.h       ****     Timer()
  41:timer.h       ****     {
  42:timer.h       ****         // Initialize the resolution of the timer
  43:timer.h       ****         QueryPerformanceFrequency(&m_freq);
 121              		.loc 2 43 0
 122 001c 488D45C0 		lea	rax, -64[rbp]	 # tmp284,
 123              	.LVL2:
 124              	.LBE215:
 125              	.LBE214:
 126              	.LBE213:
 127              		.loc 1 6 0
 128 0020 4989D6   		mov	r14, rdx	 # InData, InData
 129 0023 4D89C7   		mov	r15, r8	 # OutKey, OutKey
 130 0026 4C894DA8 		mov	QWORD PTR -88[rbp], r9	 # %sfp, OutData
 131              	.LBB263:
 132              	.LBB227:
 133              	.LBB224:
 134              		.loc 2 43 0
 135 002a 4889C7   		mov	rdi, rax	 # tmp284, tmp284
 136              	.LBE224:
 137              	.LBE227:
 138              	.LBE263:
 139              		.loc 1 6 0
 140 002d 4989CC   		mov	r12, rcx	 # InKey, InKey
 141              	.LBB264:
 142              	.LBB228:
 143              	.LBB225:
 144              		.loc 2 43 0
 145 0030 488945B8 		mov	QWORD PTR -72[rbp], rax	 # %sfp, tmp284
 146 0034 488D4810 		lea	rcx, 16[rax]	 # tmp206,
 147              	.LVL3:
 148 0038 FF150000 		call	[QWORD PTR __imp_QueryPerformanceFrequency[rip]]	 #
 148      0000
 149              	.LVL4:
 150              	.LBB216:
 151              	.LBB217:
 152              	.LBB218:
 153              	.LBB219:
  25:timer.h       ****     }
 154              		.loc 2 25 0
 155 003e 488B0500 		mov	rax, QWORD PTR __imp_QueryPerformanceCounter[rip]	 # tmp285,
 155      000000
 156 0045 4889F9   		mov	rcx, rdi	 #, tmp284
 157 0048 4889C6   		mov	rsi, rax	 # tmp285, tmp285
 158 004b 488945B0 		mov	QWORD PTR -80[rbp], rax	 # %sfp, tmp285
 159 004f FFD0     		call	rax	 # tmp285
 160              	.LVL5:
 161              	.LBE219:
 162              	.LBE218:
 163              	.LBB220:
 164              	.LBB221:
  30:timer.h       ****     }
 165              		.loc 2 30 0
 166 0051 488D4F08 		lea	rcx, 8[rdi]	 # tmp211,
 167 0055 4889F0   		mov	rax, rsi	 # tmp285, tmp285
 168 0058 FFD0     		call	rax	 # tmp285
 169              	.LVL6:
 170              	.LBE221:
 171              	.LBE220:
  44:timer.h       **** 
  45:timer.h       ****         // Calculate the overhead of the timer
  46:timer.h       ****         m_overhead = Timer::GetOverhead();
  47:timer.h       ****     }
  48:timer.h       **** 
  49:timer.h       **** private:
  50:timer.h       **** 
  51:timer.h       ****     // Returns the overhead of the timer in ticks
  52:timer.h       ****     LONGLONG GetOverhead()
  53:timer.h       ****     {
  54:timer.h       ****         Start();
  55:timer.h       ****         Stop();
  56:timer.h       ****         return m_stop.QuadPart - m_start.QuadPart;
 172              		.loc 2 56 0
 173 005a 488B45C8 		mov	rax, QWORD PTR -56[rbp]	 # t.m_stop.QuadPart, t.m_stop.QuadPart
 174              	.LBE217:
 175              	.LBE216:
 176              	.LBE225:
 177              	.LBE228:
 178              	.LBB229:
 179              	.LBB230:
  25:timer.h       ****     }
 180              		.loc 2 25 0
 181 005e 4889F9   		mov	rcx, rdi	 #, tmp284
 182              	.LBE230:
 183              	.LBE229:
 184              	.LBB232:
 185              	.LBB226:
 186              	.LBB223:
 187              	.LBB222:
 188              		.loc 2 56 0
 189 0061 482B45C0 		sub	rax, QWORD PTR -64[rbp]	 # D.77361, t.m_start.QuadPart
 190              	.LBE222:
 191              	.LBE223:
  46:timer.h       ****     }
 192              		.loc 2 46 0
 193 0065 488945D8 		mov	QWORD PTR -40[rbp], rax	 # t.m_overhead, D.77361
 194              	.LVL7:
 195              	.LBE226:
 196              	.LBE232:
 197              	.LBB233:
 198              	.LBB231:
  25:timer.h       ****     }
 199              		.loc 2 25 0
 200 0069 4889F0   		mov	rax, rsi	 # tmp285, tmp285
 201 006c FFD0     		call	rax	 # tmp285
 202              	.LVL8:
 203              	.LBE231:
 204              	.LBE233:
   7:RadixSort.cpp **** {
   8:RadixSort.cpp ****     size_t SortBins = 1<<SortBits;
   9:RadixSort.cpp ****     // Function returning value of key
  10:RadixSort.cpp ****     auto key = [&] (const Key &p) {return (*(uint64_t*)&p >> SortBase) % SortBins;};
  11:RadixSort.cpp **** 
  12:RadixSort.cpp ****     Timer t;  t.Start();
  13:RadixSort.cpp ****     // Histogram keys into cnt[]
  14:RadixSort.cpp ****     size_t cnt[SortBins] = {0};  auto p = InKey;
 205              		.loc 1 14 0
 206 006e 4881EC90 		sub	rsp, 144	 #,
 206      000000
 207 0075 31C0     		xor	eax, eax	 # tmp225
 208 0077 B90F0000 		mov	ecx, 15	 # tmp226,
 208      00
 209 007c 488D5C24 		lea	rbx, 39[rsp]	 # tmp220,
 209      27
 210              	.LBB234:
  15:RadixSort.cpp ****     for (size_t i=0; i<size; i++)
 211              		.loc 1 15 0
 212 0081 4C8B5DA8 		mov	r11, QWORD PTR -88[rbp]	 # OutData, %sfp
 213              	.LBE234:
  14:RadixSort.cpp ****     for (size_t i=0; i<size; i++)
 214              		.loc 1 14 0
 215 0085 48C1EB03 		shr	rbx, 3	 # tmp221,
 216              	.LBB237:
 217              		.loc 1 15 0
 218 0089 4D85ED   		test	r13, r13	 # size
 219              	.LBE237:
  14:RadixSort.cpp ****     for (size_t i=0; i<size; i++)
 220              		.loc 1 14 0
 221 008c 488D34DD 		lea	rsi, 0[0+rbx*8]	 # tmp222,
 221      00000000 
 222              	.LVL9:
 223 0094 48C704DD 		mov	QWORD PTR 0[0+rbx*8], 0	 # MEM[(size_t *)cnt.2_18],
 223      00000000 
 223      00000000 
 224 00a0 488D5608 		lea	rdx, 8[rsi]	 # D.77353,
 225 00a4 4889D7   		mov	rdi, rdx	 # D.77353, D.77353
 226              	.LVL10:
 227 00a7 4C89E2   		mov	rdx, r12	 # ivtmp.66, InKey
 228 00aa F348AB   		rep stosq
 229              	.LVL11:
 230 00ad 4B8D0CAC 		lea	rcx, [r12+r13*4]	 # D.77360,
 231              	.LBB238:
 232              		.loc 1 15 0
 233 00b1 7414     		je	.L8	 #,
 234              	.LVL12:
 235              		.p2align 4,,10
 236              	.L11:
 237              	.LBB235:
 238              	.LBB236:
  10:RadixSort.cpp **** 
 239              		.loc 1 10 0 discriminator 3
 240 00b3 488B02   		mov	rax, QWORD PTR [rdx]	 # D.77354, MEM[base: _80, offset: 0B]
 241 00b6 4883C204 		add	rdx, 4	 # ivtmp.66,
 242              	.LVL13:
 243 00ba 83E00F   		and	eax, 15	 # D.77354,
 244              	.LBE236:
 245              	.LBE235:
  16:RadixSort.cpp ****         cnt[key(InKey[i])]++;
 246              		.loc 1 16 0 discriminator 3
 247 00bd 488304C6 		add	QWORD PTR [rsi+rax*8], 1	 # MEM[(size_t[0:D.76902] *)_4],
 247      01
  15:RadixSort.cpp ****         cnt[key(InKey[i])]++;
 248              		.loc 1 15 0 discriminator 3
 249 00c2 4839CA   		cmp	rdx, rcx	 # ivtmp.66, D.77360
 250 00c5 75EC     		jne	.L11	 #,
 251              	.LVL14:
 252              	.L8:
 253              	.LBE238:
 254              	.LBB239:
 255              	.LBB240:
  30:timer.h       ****     }
 256              		.loc 2 30 0
 257 00c7 488B4DB8 		mov	rcx, QWORD PTR -72[rbp]	 # tmp228, %sfp
 258 00cb 4C895DA8 		mov	QWORD PTR -88[rbp], r11	 # %sfp, OutData
 259              	.LVL15:
 260 00cf 488B45B0 		mov	rax, QWORD PTR -80[rbp]	 # tmp285, %sfp
 261 00d3 4883C108 		add	rcx, 8	 # tmp228,
 262 00d7 FFD0     		call	rax	 # tmp285
 263              	.LVL16:
 264              	.LBE240:
 265              	.LBE239:
 266              	.LBB241:
 267              	.LBB242:
  36:timer.h       ****                                           * 1000.0 / m_freq.QuadPart;
 268              		.loc 2 36 0
 269 00d9 488B45C8 		mov	rax, QWORD PTR -56[rbp]	 # t.m_stop.QuadPart, t.m_stop.QuadPart
  37:timer.h       ****     }
 270              		.loc 2 37 0
 271 00dd 660FEFC0 		pxor	xmm0, xmm0	 # D.77357
 272 00e1 660FEFC9 		pxor	xmm1, xmm1	 # D.77357
 273 00e5 F2480F2A 		cvtsi2sdq	xmm1, QWORD PTR -48[rbp]	 # D.77357, t.m_freq.QuadPart
 273      4DD0
  36:timer.h       ****                                           * 1000.0 / m_freq.QuadPart;
 274              		.loc 2 36 0
 275 00eb 482B45C0 		sub	rax, QWORD PTR -64[rbp]	 # D.77356, t.m_start.QuadPart
 276 00ef 482B45D8 		sub	rax, QWORD PTR -40[rbp]	 # D.77356, t.m_overhead
 277              	.LBE242:
 278              	.LBE241:
  17:RadixSort.cpp ****     t.Stop();  double speed = size/(t.Elapsed()/1000);
 279              		.loc 1 17 0
 280 00f3 4D85ED   		test	r13, r13	 # size
 281              	.LBB245:
 282              	.LBB243:
  37:timer.h       ****     }
 283              		.loc 2 37 0
 284 00f6 F20F1015 		movsd	xmm2, QWORD PTR .LC0[rip]	 # tmp286,
 284      80000000 
 285              	.LBE243:
 286              	.LBE245:
 287              		.loc 1 17 0
 288 00fe 4C8B5DA8 		mov	r11, QWORD PTR -88[rbp]	 # OutData, %sfp
 289              	.LBB246:
 290              	.LBB244:
  37:timer.h       ****     }
 291              		.loc 2 37 0
 292 0102 F2480F2A 		cvtsi2sdq	xmm0, rax	 # D.77357, D.77356
 292      C0
 293 0107 F20F59C2 		mulsd	xmm0, xmm2	 # D.77357, tmp286
 294 010b F20F5EC1 		divsd	xmm0, xmm1	 # D.77357, D.77357
 295              	.LBE244:
 296              	.LBE246:
 297              		.loc 1 17 0
 298 010f 0F88CB01 		js	.L3	 #,
 298      0000
 299 0115 660FEFC9 		pxor	xmm1, xmm1	 # D.77357
 300 0119 F2490F2A 		cvtsi2sdq	xmm1, r13	 # D.77357, size
 300      CD
 301              	.L4:
 302 011e 660F28E0 		movapd	xmm4, xmm0	 # D.77357, D.77357
  18:RadixSort.cpp ****     printf("Counting: %.3lf milliseconds = %.3lf MB/s = %.3lf MiB/s\n", t.Elapsed(), speed/1e6, spe
 303              		.loc 1 18 0
 304 0122 66480F7E 		movq	rdx, xmm0	 #, D.77357
 304      C2
 305 0127 4C895DB8 		mov	QWORD PTR -72[rbp], r11	 # %sfp, OutData
 306              	.LVL17:
 307 012b 488D0D00 		lea	rcx, .LC3[rip]	 #,
 307      000000
  17:RadixSort.cpp ****     t.Stop();  double speed = size/(t.Elapsed()/1000);
 308              		.loc 1 17 0
 309 0132 F20F5EE2 		divsd	xmm4, xmm2	 # D.77357, tmp286
 310              		.loc 1 18 0
 311 0136 F20F1015 		movsd	xmm2, QWORD PTR .LC1[rip]	 # D.77357,
 311      88000000 
  17:RadixSort.cpp ****     t.Stop();  double speed = size/(t.Elapsed()/1000);
 312              		.loc 1 17 0
 313 013e F20F5ECC 		divsd	xmm1, xmm4	 # speed, D.77357
 314              	.LVL18:
 315              		.loc 1 18 0
 316 0142 F20F59D1 		mulsd	xmm2, xmm1	 # D.77357, speed
 317 0146 F20F5E0D 		divsd	xmm1, QWORD PTR .LC2[rip]	 # D.77357,
 317      90000000 
 318              	.LVL19:
 319 014e 66490F7E 		movq	r8, xmm1	 #, D.77357
 319      C8
 320 0153 660F28DA 		movapd	xmm3, xmm2	 #, D.77357
 321 0157 66490F7E 		movq	r9, xmm2	 #, D.77357
 321      D1
 322 015c 660F28D1 		movapd	xmm2, xmm1	 #, D.77357
 323 0160 660F28C8 		movapd	xmm1, xmm0	 #, D.77357
 324 0164 E8000000 		call	printf	 #
 324      00
 325              	.LVL20:
 326              	.LBB247:
 327              	.LBB248:
  19:RadixSort.cpp ****     
  20:RadixSort.cpp ****     // Inclusive scan of cnt[] => compute first output position for every bin
  21:RadixSort.cpp ****     for (size_t i=0,sum=0; i<SortBins; i++)
  22:RadixSort.cpp ****     {
  23:RadixSort.cpp ****         auto tmp = sum + cnt[i];
 328              		.loc 1 23 0
 329 0169 488B14DD 		mov	rdx, QWORD PTR 0[0+rbx*8]	 # D.77354, *cnt.2_18
 329      00000000 
 330              	.LVL21:
  24:RadixSort.cpp ****         cnt[i] = sum;
 331              		.loc 1 24 0
 332 0171 48C704DD 		mov	QWORD PTR 0[0+rbx*8], 0	 # *cnt.2_18,
 332      00000000 
 332      00000000 
 333              	.LVL22:
 334              	.LBE248:
 335              	.LBE247:
 336              	.LBB251:
  25:RadixSort.cpp ****         sum = tmp;
  26:RadixSort.cpp ****     }
  27:RadixSort.cpp ****         
  28:RadixSort.cpp ****     // Fill OutKey & OutData
  29:RadixSort.cpp ****     for (size_t i=0; i<size; i++)
 337              		.loc 1 29 0
 338 017d 4C8B5DB8 		mov	r11, QWORD PTR -72[rbp]	 # OutData, %sfp
 339              	.LBE251:
 340              	.LBB259:
 341              	.LBB249:
  23:RadixSort.cpp ****         cnt[i] = sum;
 342              		.loc 1 23 0
 343 0181 4889D0   		mov	rax, rdx	 # sum, D.77354
 344 0184 480304DD 		add	rax, QWORD PTR 8[0+rbx*8]	 # sum, MEM[(size_t[0:D.76902] *)cnt.2_18 + 8B]
 344      08000000 
 345              	.LVL23:
  24:RadixSort.cpp ****         cnt[i] = sum;
 346              		.loc 1 24 0
 347 018c 488914DD 		mov	QWORD PTR 8[0+rbx*8], rdx	 # MEM[(size_t[0:D.76902] *)cnt.2_18 + 8B], D.77354
 347      08000000 
 348              	.LVL24:
  23:RadixSort.cpp ****         cnt[i] = sum;
 349              		.loc 1 23 0
 350 0194 4889C2   		mov	rdx, rax	 # sum, sum
 351 0197 480314DD 		add	rdx, QWORD PTR 16[0+rbx*8]	 # sum, MEM[(size_t[0:D.76902] *)cnt.2_18 + 16B]
 351      10000000 
 352              	.LVL25:
  24:RadixSort.cpp ****         cnt[i] = sum;
 353              		.loc 1 24 0
 354 019f 488904DD 		mov	QWORD PTR 16[0+rbx*8], rax	 # MEM[(size_t[0:D.76902] *)cnt.2_18 + 16B], sum
 354      10000000 
 355              	.LVL26:
  23:RadixSort.cpp ****         cnt[i] = sum;
 356              		.loc 1 23 0
 357 01a7 4889D0   		mov	rax, rdx	 # sum, sum
 358 01aa 480304DD 		add	rax, QWORD PTR 24[0+rbx*8]	 # sum, MEM[(size_t[0:D.76902] *)cnt.2_18 + 24B]
 358      18000000 
 359              	.LVL27:
  24:RadixSort.cpp ****         cnt[i] = sum;
 360              		.loc 1 24 0
 361 01b2 488914DD 		mov	QWORD PTR 24[0+rbx*8], rdx	 # MEM[(size_t[0:D.76902] *)cnt.2_18 + 24B], sum
 361      18000000 
 362              	.LVL28:
  23:RadixSort.cpp ****         cnt[i] = sum;
 363              		.loc 1 23 0
 364 01ba 4889C2   		mov	rdx, rax	 # sum, sum
 365 01bd 480314DD 		add	rdx, QWORD PTR 32[0+rbx*8]	 # sum, MEM[(size_t[0:D.76902] *)cnt.2_18 + 32B]
 365      20000000 
 366              	.LVL29:
  24:RadixSort.cpp ****         cnt[i] = sum;
 367              		.loc 1 24 0
 368 01c5 488904DD 		mov	QWORD PTR 32[0+rbx*8], rax	 # MEM[(size_t[0:D.76902] *)cnt.2_18 + 32B], sum
 368      20000000 
 369              	.LVL30:
  23:RadixSort.cpp ****         cnt[i] = sum;
 370              		.loc 1 23 0
 371 01cd 4889D0   		mov	rax, rdx	 # sum, sum
 372 01d0 480304DD 		add	rax, QWORD PTR 40[0+rbx*8]	 # sum, MEM[(size_t[0:D.76902] *)cnt.2_18 + 40B]
 372      28000000 
 373              	.LVL31:
  24:RadixSort.cpp ****         cnt[i] = sum;
 374              		.loc 1 24 0
 375 01d8 488914DD 		mov	QWORD PTR 40[0+rbx*8], rdx	 # MEM[(size_t[0:D.76902] *)cnt.2_18 + 40B], sum
 375      28000000 
 376              	.LVL32:
  23:RadixSort.cpp ****         cnt[i] = sum;
 377              		.loc 1 23 0
 378 01e0 4889C2   		mov	rdx, rax	 # sum, sum
 379 01e3 480314DD 		add	rdx, QWORD PTR 48[0+rbx*8]	 # sum, MEM[(size_t[0:D.76902] *)cnt.2_18 + 48B]
 379      30000000 
 380              	.LVL33:
  24:RadixSort.cpp ****         cnt[i] = sum;
 381              		.loc 1 24 0
 382 01eb 488904DD 		mov	QWORD PTR 48[0+rbx*8], rax	 # MEM[(size_t[0:D.76902] *)cnt.2_18 + 48B], sum
 382      30000000 
 383              	.LVL34:
  23:RadixSort.cpp ****         cnt[i] = sum;
 384              		.loc 1 23 0
 385 01f3 4889D0   		mov	rax, rdx	 # sum, sum
 386 01f6 480304DD 		add	rax, QWORD PTR 56[0+rbx*8]	 # sum, MEM[(size_t[0:D.76902] *)cnt.2_18 + 56B]
 386      38000000 
 387              	.LVL35:
  24:RadixSort.cpp ****         cnt[i] = sum;
 388              		.loc 1 24 0
 389 01fe 488914DD 		mov	QWORD PTR 56[0+rbx*8], rdx	 # MEM[(size_t[0:D.76902] *)cnt.2_18 + 56B], sum
 389      38000000 
 390              	.LVL36:
  23:RadixSort.cpp ****         cnt[i] = sum;
 391              		.loc 1 23 0
 392 0206 4889C2   		mov	rdx, rax	 # sum, sum
 393 0209 480314DD 		add	rdx, QWORD PTR 64[0+rbx*8]	 # sum, MEM[(size_t[0:D.76902] *)cnt.2_18 + 64B]
 393      40000000 
 394              	.LVL37:
  24:RadixSort.cpp ****         cnt[i] = sum;
 395              		.loc 1 24 0
 396 0211 488904DD 		mov	QWORD PTR 64[0+rbx*8], rax	 # MEM[(size_t[0:D.76902] *)cnt.2_18 + 64B], sum
 396      40000000 
 397              	.LVL38:
  23:RadixSort.cpp ****         cnt[i] = sum;
 398              		.loc 1 23 0
 399 0219 4889D0   		mov	rax, rdx	 # sum, sum
 400 021c 480304DD 		add	rax, QWORD PTR 72[0+rbx*8]	 # sum, MEM[(size_t[0:D.76902] *)cnt.2_18 + 72B]
 400      48000000 
 401              	.LVL39:
  24:RadixSort.cpp ****         cnt[i] = sum;
 402              		.loc 1 24 0
 403 0224 488914DD 		mov	QWORD PTR 72[0+rbx*8], rdx	 # MEM[(size_t[0:D.76902] *)cnt.2_18 + 72B], sum
 403      48000000 
 404              	.LVL40:
  23:RadixSort.cpp ****         cnt[i] = sum;
 405              		.loc 1 23 0
 406 022c 4889C2   		mov	rdx, rax	 # sum, sum
 407 022f 480314DD 		add	rdx, QWORD PTR 80[0+rbx*8]	 # sum, MEM[(size_t[0:D.76902] *)cnt.2_18 + 80B]
 407      50000000 
 408              	.LVL41:
  24:RadixSort.cpp ****         cnt[i] = sum;
 409              		.loc 1 24 0
 410 0237 488904DD 		mov	QWORD PTR 80[0+rbx*8], rax	 # MEM[(size_t[0:D.76902] *)cnt.2_18 + 80B], sum
 410      50000000 
 411              	.LVL42:
  23:RadixSort.cpp ****         cnt[i] = sum;
 412              		.loc 1 23 0
 413 023f 4889D0   		mov	rax, rdx	 # sum, sum
 414 0242 480304DD 		add	rax, QWORD PTR 88[0+rbx*8]	 # sum, MEM[(size_t[0:D.76902] *)cnt.2_18 + 88B]
 414      58000000 
 415              	.LVL43:
  24:RadixSort.cpp ****         cnt[i] = sum;
 416              		.loc 1 24 0
 417 024a 488914DD 		mov	QWORD PTR 88[0+rbx*8], rdx	 # MEM[(size_t[0:D.76902] *)cnt.2_18 + 88B], sum
 417      58000000 
 418              	.LVL44:
  23:RadixSort.cpp ****         cnt[i] = sum;
 419              		.loc 1 23 0
 420 0252 4889C2   		mov	rdx, rax	 # sum, sum
 421 0255 480314DD 		add	rdx, QWORD PTR 96[0+rbx*8]	 # sum, MEM[(size_t[0:D.76902] *)cnt.2_18 + 96B]
 421      60000000 
 422              	.LVL45:
  24:RadixSort.cpp ****         cnt[i] = sum;
 423              		.loc 1 24 0
 424 025d 488904DD 		mov	QWORD PTR 96[0+rbx*8], rax	 # MEM[(size_t[0:D.76902] *)cnt.2_18 + 96B], sum
 424      60000000 
 425              	.LVL46:
  23:RadixSort.cpp ****         cnt[i] = sum;
 426              		.loc 1 23 0
 427 0265 4889D0   		mov	rax, rdx	 # sum, sum
 428 0268 480304DD 		add	rax, QWORD PTR 104[0+rbx*8]	 # sum, MEM[(size_t[0:D.76902] *)cnt.2_18 + 104B]
 428      68000000 
 429              	.LVL47:
  24:RadixSort.cpp ****         cnt[i] = sum;
 430              		.loc 1 24 0
 431 0270 488914DD 		mov	QWORD PTR 104[0+rbx*8], rdx	 # MEM[(size_t[0:D.76902] *)cnt.2_18 + 104B], sum
 431      68000000 
 432              	.LVL48:
  23:RadixSort.cpp ****         cnt[i] = sum;
 433              		.loc 1 23 0
 434 0278 4889C2   		mov	rdx, rax	 # sum, sum
 435 027b 480314DD 		add	rdx, QWORD PTR 112[0+rbx*8]	 # sum, MEM[(size_t[0:D.76902] *)cnt.2_18 + 112B]
 435      70000000 
 436              	.LVL49:
  24:RadixSort.cpp ****         cnt[i] = sum;
 437              		.loc 1 24 0
 438 0283 488904DD 		mov	QWORD PTR 112[0+rbx*8], rax	 # MEM[(size_t[0:D.76902] *)cnt.2_18 + 112B], sum
 438      70000000 
 439              	.LVL50:
 440              	.LBE249:
 441              	.LBE259:
 442              	.LBB260:
 443              		.loc 1 29 0
 444 028b 31C0     		xor	eax, eax	 # i
 445 028d 4D85ED   		test	r13, r13	 # size
 446              	.LBE260:
 447              	.LBB261:
 448              	.LBB250:
  24:RadixSort.cpp ****         cnt[i] = sum;
 449              		.loc 1 24 0
 450 0290 488914DD 		mov	QWORD PTR 120[0+rbx*8], rdx	 # MEM[(size_t[0:D.76902] *)cnt.2_18 + 120B], sum
 450      78000000 
 451              	.LVL51:
 452              	.LBE250:
 453              	.LBE261:
 454              	.LBB262:
 455              		.loc 1 29 0
 456 0298 7434     		je	.L1	 #,
 457              	.LVL52:
 458 029a 660F1F44 		.p2align 4,,10
 458      0000
 459              	.L10:
 460              	.LBB252:
 461              	.LBB253:
 462              	.LBB254:
  10:RadixSort.cpp **** 
 463              		.loc 1 10 0 discriminator 3
 464 02a0 498B1484 		mov	rdx, QWORD PTR [r12+rax*4]	 # D.77354, MEM[base: InKey_24(D), index: i_7, step: 4, offset: 0B]
 465              	.LBE254:
 466              	.LBE253:
  30:RadixSort.cpp ****     {
  31:RadixSort.cpp ****         auto bin = key(InKey[i]);
  32:RadixSort.cpp ****         OutKey [cnt[bin]] = InKey[i];
 467              		.loc 1 32 0 discriminator 3
 468 02a4 458B0484 		mov	r8d, DWORD PTR [r12+rax*4]	 # D.77359, MEM[base: InKey_24(D), index: i_7, step: 4, offset: 0B]
 469              	.LBB256:
 470              	.LBB255:
  10:RadixSort.cpp **** 
 471              		.loc 1 10 0 discriminator 3
 472 02a8 83E20F   		and	edx, 15	 # D.77354,
 473 02ab 488D0CD6 		lea	rcx, [rsi+rdx*8]	 # D.77353,
 474              	.LBE255:
 475              	.LBE256:
 476              		.loc 1 32 0 discriminator 3
 477 02af 488B11   		mov	rdx, QWORD PTR [rcx]	 # D.77354, MEM[(size_t[0:D.76902] *)_10]
 478 02b2 45890497 		mov	DWORD PTR [r15+rdx*4], r8d	 # *_49, D.77359
  33:RadixSort.cpp ****         OutData[cnt[bin]] = InData[i];
 479              		.loc 1 33 0 discriminator 3
 480 02b6 458B0486 		mov	r8d, DWORD PTR [r14+rax*4]	 # D.77359, MEM[base: InData_55(D), index: i_7, step: 4, offset: 0B
 481              	.LBE252:
  29:RadixSort.cpp ****     {
 482              		.loc 1 29 0 discriminator 3
 483 02ba 4883C001 		add	rax, 1	 # i,
 484              	.LVL53:
 485              	.LBB257:
 486              		.loc 1 33 0 discriminator 3
 487 02be 45890493 		mov	DWORD PTR [r11+rdx*4], r8d	 # *_53, D.77359
  34:RadixSort.cpp ****         cnt[bin]++;
 488              		.loc 1 34 0 discriminator 3
 489 02c2 4883C201 		add	rdx, 1	 # tmp283,
 490              	.LBE257:
  29:RadixSort.cpp ****     {
 491              		.loc 1 29 0 discriminator 3
 492 02c6 4C39E8   		cmp	rax, r13	 # i, size
 493              	.LBB258:
 494              		.loc 1 34 0 discriminator 3
 495 02c9 488911   		mov	QWORD PTR [rcx], rdx	 # MEM[(size_t[0:D.76902] *)_10], tmp283
 496              	.LBE258:
  29:RadixSort.cpp ****     {
 497              		.loc 1 29 0 discriminator 3
 498 02cc 75D2     		jne	.L10	 #,
 499              	.LVL54:
 500              	.L1:
 501              	.LBE262:
 502              	.LBE264:
  35:RadixSort.cpp ****     }
  36:RadixSort.cpp **** }
 503              		.loc 1 36 0
 504 02ce 488D65E8 		lea	rsp, -24[rbp]	 #,
 505 02d2 5B       		pop	rbx	 #
 506              		.cfi_remember_state
 507              		.cfi_restore 3
 508 02d3 5E       		pop	rsi	 #
 509              		.cfi_restore 4
 510              	.LVL55:
 511 02d4 5F       		pop	rdi	 #
 512              		.cfi_restore 5
 513 02d5 415C     		pop	r12	 #
 514              		.cfi_restore 12
 515              	.LVL56:
 516 02d7 415D     		pop	r13	 #
 517              		.cfi_restore 13
 518 02d9 415E     		pop	r14	 #
 519              		.cfi_restore 14
 520              	.LVL57:
 521 02db 415F     		pop	r15	 #
 522              		.cfi_restore 15
 523              	.LVL58:
 524 02dd 5D       		pop	rbp	 #
 525              		.cfi_restore 6
 526              		.cfi_def_cfa 7, -40
 527              	.LVL59:
 528 02de C3       		ret
 529              	.LVL60:
 530 02df 90       		.p2align 4,,10
 531              	.L3:
 532              		.cfi_restore_state
 533              	.LBB265:
  17:RadixSort.cpp ****     printf("Counting: %.3lf milliseconds = %.3lf MB/s = %.3lf MiB/s\n", t.Elapsed(), speed/1e6, spe
 534              		.loc 1 17 0
 535 02e0 4C89E8   		mov	rax, r13	 # tmp239, size
 536 02e3 4C89EA   		mov	rdx, r13	 # tmp240, size
 537 02e6 660FEFC9 		pxor	xmm1, xmm1	 # tmp238
 538 02ea 48D1E8   		shr	rax	 # tmp239
 539 02ed 83E201   		and	edx, 1	 # tmp240,
 540 02f0 4809D0   		or	rax, rdx	 # tmp239, tmp240
 541 02f3 F2480F2A 		cvtsi2sdq	xmm1, rax	 # tmp238, tmp239
 541      C8
 542 02f8 F20F58C9 		addsd	xmm1, xmm1	 # D.77357, tmp238
 543 02fc E91DFEFF 		jmp	.L4	 #
 543      FF
 544              	.LBE265:
 545              		.cfi_endproc
 546              	.LFE3007:
 547              		.seh_endproc
 548 0301 90909090 		.section	.text$_Z13RadixSortPassIjjLi0ELi6EEvPKT_PKT0_PS0_PS3_y,"x"
 548      90909090 
 548      90909090 
 548      909090
 549              		.linkonce discard
 550              		.p2align 4,,15
 551              		.globl	_Z13RadixSortPassIjjLi0ELi6EEvPKT_PKT0_PS0_PS3_y
 553              		.seh_proc	_Z13RadixSortPassIjjLi0ELi6EEvPKT_PKT0_PS0_PS3_y
 554              	_Z13RadixSortPassIjjLi0ELi6EEvPKT_PKT0_PS0_PS3_y:
 555              	.LFB3009:
   6:RadixSort.cpp **** {
 556              		.loc 1 6 0
 557              		.cfi_startproc
 558              	.LVL61:
 559 0000 55       		push	rbp	 #
 560              		.seh_pushreg	rbp
 561              		.cfi_def_cfa_offset 16
 562              		.cfi_offset 6, -16
 563 0001 4157     		push	r15	 #
 564              		.seh_pushreg	r15
 565              		.cfi_def_cfa_offset 24
 566              		.cfi_offset 15, -24
 567 0003 4156     		push	r14	 #
 568              		.seh_pushreg	r14
 569              		.cfi_def_cfa_offset 32
 570              		.cfi_offset 14, -32
 571 0005 4155     		push	r13	 #
 572              		.seh_pushreg	r13
 573              		.cfi_def_cfa_offset 40
 574              		.cfi_offset 13, -40
 575 0007 4154     		push	r12	 #
 576              		.seh_pushreg	r12
 577              		.cfi_def_cfa_offset 48
 578              		.cfi_offset 12, -48
 579 0009 57       		push	rdi	 #
 580              		.seh_pushreg	rdi
 581              		.cfi_def_cfa_offset 56
 582              		.cfi_offset 5, -56
 583 000a 56       		push	rsi	 #
 584              		.seh_pushreg	rsi
 585              		.cfi_def_cfa_offset 64
 586              		.cfi_offset 4, -64
 587 000b 53       		push	rbx	 #
 588              		.seh_pushreg	rbx
 589              		.cfi_def_cfa_offset 72
 590              		.cfi_offset 3, -72
 591 000c 4883EC58 		sub	rsp, 88	 #,
 592              		.seh_stackalloc	88
 593              		.cfi_def_cfa_offset 160
 594 0010 488DAC24 		lea	rbp, 128[rsp]	 #,
 594      80000000 
 595              		.seh_setframe	rbp, 128
 596              		.cfi_def_cfa 6, 32
 597              		.seh_endprologue
 598              	.LVL62:
   6:RadixSort.cpp **** {
 599              		.loc 1 6 0
 600 0018 4C8B6540 		mov	r12, QWORD PTR 64[rbp]	 # size, size
 601              	.LBB291:
 602              	.LBB292:
 603              	.LBB293:
  43:timer.h       **** 
 604              		.loc 2 43 0
 605 001c 488D45B0 		lea	rax, -80[rbp]	 # tmp206,
 606              	.LVL63:
 607              	.LBE293:
 608              	.LBE292:
 609              	.LBE291:
   6:RadixSort.cpp **** {
 610              		.loc 1 6 0
 611 0020 4989D5   		mov	r13, rdx	 # InData, InData
 612 0023 4D89C7   		mov	r15, r8	 # OutKey, OutKey
 613              	.LBB333:
 614              	.LBB305:
 615              	.LBB302:
  43:timer.h       **** 
 616              		.loc 2 43 0
 617 0026 4889C7   		mov	rdi, rax	 # tmp206, tmp206
 618              	.LBE302:
 619              	.LBE305:
 620              	.LBE333:
   6:RadixSort.cpp **** {
 621              		.loc 1 6 0
 622 0029 4D89CE   		mov	r14, r9	 # OutData, OutData
 623 002c 4889CE   		mov	rsi, rcx	 # InKey, InKey
 624              	.LBB334:
 625              	.LBB306:
 626              	.LBB303:
  43:timer.h       **** 
 627              		.loc 2 43 0
 628 002f 488945A0 		mov	QWORD PTR -96[rbp], rax	 # %sfp, tmp206
 629 0033 488D4810 		lea	rcx, 16[rax]	 # tmp140,
 630              	.LVL64:
 631 0037 FF150000 		call	[QWORD PTR __imp_QueryPerformanceFrequency[rip]]	 #
 631      0000
 632              	.LVL65:
 633              	.LBB294:
 634              	.LBB295:
 635              	.LBB296:
 636              	.LBB297:
  25:timer.h       ****     }
 637              		.loc 2 25 0
 638 003d 488B0500 		mov	rax, QWORD PTR __imp_QueryPerformanceCounter[rip]	 # tmp205,
 638      000000
 639 0044 4889F9   		mov	rcx, rdi	 #, tmp206
 640 0047 4889C3   		mov	rbx, rax	 # tmp205, tmp205
 641 004a 488945A8 		mov	QWORD PTR -88[rbp], rax	 # %sfp, tmp205
 642 004e FFD0     		call	rax	 # tmp205
 643              	.LVL66:
 644              	.LBE297:
 645              	.LBE296:
 646              	.LBB298:
 647              	.LBB299:
  30:timer.h       ****     }
 648              		.loc 2 30 0
 649 0050 488D4F08 		lea	rcx, 8[rdi]	 # tmp145,
 650 0054 4889D8   		mov	rax, rbx	 # tmp205, tmp205
 651 0057 FFD0     		call	rax	 # tmp205
 652              	.LVL67:
 653              	.LBE299:
 654              	.LBE298:
 655              		.loc 2 56 0
 656 0059 488B45B8 		mov	rax, QWORD PTR -72[rbp]	 # t.m_stop.QuadPart, t.m_stop.QuadPart
 657              	.LBE295:
 658              	.LBE294:
 659              	.LBE303:
 660              	.LBE306:
 661              	.LBB307:
 662              	.LBB308:
  25:timer.h       ****     }
 663              		.loc 2 25 0
 664 005d 4889F9   		mov	rcx, rdi	 #, tmp206
 665              	.LBE308:
 666              	.LBE307:
 667              	.LBB310:
 668              	.LBB304:
 669              	.LBB301:
 670              	.LBB300:
 671              		.loc 2 56 0
 672 0060 482B45B0 		sub	rax, QWORD PTR -80[rbp]	 # D.77404, t.m_start.QuadPart
 673              	.LBE300:
 674              	.LBE301:
  46:timer.h       ****     }
 675              		.loc 2 46 0
 676 0064 488945C8 		mov	QWORD PTR -56[rbp], rax	 # t.m_overhead, D.77404
 677              	.LVL68:
 678              	.LBE304:
 679              	.LBE310:
 680              	.LBB311:
 681              	.LBB309:
  25:timer.h       ****     }
 682              		.loc 2 25 0
 683 0068 4889D8   		mov	rax, rbx	 # tmp205, tmp205
 684 006b FFD0     		call	rax	 # tmp205
 685              	.LVL69:
 686              	.LBE309:
 687              	.LBE311:
  14:RadixSort.cpp ****     for (size_t i=0; i<size; i++)
 688              		.loc 1 14 0
 689 006d 4881EC10 		sub	rsp, 528	 #,
 689      020000
 690 0074 B93F0000 		mov	ecx, 63	 # tmp160,
 690      00
 691 0079 488D4424 		lea	rax, 39[rsp]	 # tmp154,
 691      27
 692 007e 48C1E803 		shr	rax, 3	 # tmp155,
 693 0082 488D1CC5 		lea	rbx, 0[0+rax*8]	 # tmp156,
 693      00000000 
 694              	.LVL70:
 695 008a 48C704C5 		mov	QWORD PTR 0[0+rax*8], 0	 # MEM[(size_t *)cnt.7_18],
 695      00000000 
 695      00000000 
 696 0096 31C0     		xor	eax, eax	 # tmp159
 697              	.LBB312:
  15:RadixSort.cpp ****         cnt[key(InKey[i])]++;
 698              		.loc 1 15 0
 699 0098 4D85E4   		test	r12, r12	 # size
 700              	.LBE312:
  14:RadixSort.cpp ****     for (size_t i=0; i<size; i++)
 701              		.loc 1 14 0
 702 009b 488D5308 		lea	rdx, 8[rbx]	 # D.77396,
 703 009f 4889D7   		mov	rdi, rdx	 # D.77396, D.77396
 704              	.LVL71:
 705 00a2 4889F2   		mov	rdx, rsi	 # ivtmp.87, InKey
 706 00a5 F348AB   		rep stosq
 707              	.LVL72:
 708 00a8 4A8D0CA6 		lea	rcx, [rsi+r12*4]	 # D.77397,
 709              	.LBB315:
  15:RadixSort.cpp ****         cnt[key(InKey[i])]++;
 710              		.loc 1 15 0
 711 00ac 7416     		je	.L21	 #,
 712              	.LVL73:
 713 00ae 6690     		.p2align 4,,10
 714              	.L26:
 715              	.LBB313:
 716              	.LBB314:
  10:RadixSort.cpp **** 
 717              		.loc 1 10 0 discriminator 3
 718 00b0 488B02   		mov	rax, QWORD PTR [rdx]	 # D.77395, MEM[base: _14, offset: 0B]
 719 00b3 4883C204 		add	rdx, 4	 # ivtmp.87,
 720              	.LVL74:
 721 00b7 83E03F   		and	eax, 63	 # D.77395,
 722              	.LBE314:
 723              	.LBE313:
  16:RadixSort.cpp ****     t.Stop();  double speed = size/(t.Elapsed()/1000);
 724              		.loc 1 16 0 discriminator 3
 725 00ba 488304C3 		add	QWORD PTR [rbx+rax*8], 1	 # MEM[(size_t[0:D.76943] *)_26],
 725      01
  15:RadixSort.cpp ****         cnt[key(InKey[i])]++;
 726              		.loc 1 15 0 discriminator 3
 727 00bf 4839CA   		cmp	rdx, rcx	 # ivtmp.87, D.77397
 728 00c2 75EC     		jne	.L26	 #,
 729              	.LVL75:
 730              	.L21:
 731              	.LBE315:
 732              	.LBB316:
 733              	.LBB317:
  30:timer.h       ****     }
 734              		.loc 2 30 0
 735 00c4 488B4DA0 		mov	rcx, QWORD PTR -96[rbp]	 # tmp162, %sfp
 736 00c8 488B45A8 		mov	rax, QWORD PTR -88[rbp]	 # tmp205, %sfp
 737 00cc 4883C108 		add	rcx, 8	 # tmp162,
 738 00d0 FFD0     		call	rax	 # tmp205
 739              	.LVL76:
 740              	.LBE317:
 741              	.LBE316:
 742              	.LBB318:
 743              	.LBB319:
  36:timer.h       ****                                           * 1000.0 / m_freq.QuadPart;
 744              		.loc 2 36 0
 745 00d2 488B45B8 		mov	rax, QWORD PTR -72[rbp]	 # t.m_stop.QuadPart, t.m_stop.QuadPart
  37:timer.h       ****     }
 746              		.loc 2 37 0
 747 00d6 660FEFC0 		pxor	xmm0, xmm0	 # D.77400
 748 00da 660FEFC9 		pxor	xmm1, xmm1	 # D.77400
 749 00de F2480F2A 		cvtsi2sdq	xmm1, QWORD PTR -64[rbp]	 # D.77400, t.m_freq.QuadPart
 749      4DC0
  36:timer.h       ****                                           * 1000.0 / m_freq.QuadPart;
 750              		.loc 2 36 0
 751 00e4 482B45B0 		sub	rax, QWORD PTR -80[rbp]	 # D.77399, t.m_start.QuadPart
 752 00e8 482B45C8 		sub	rax, QWORD PTR -56[rbp]	 # D.77399, t.m_overhead
 753              	.LBE319:
 754              	.LBE318:
  17:RadixSort.cpp ****     printf("Counting: %.3lf milliseconds = %.3lf MB/s = %.3lf MiB/s\n", t.Elapsed(), speed/1e6, spe
 755              		.loc 1 17 0
 756 00ec 4D85E4   		test	r12, r12	 # size
 757              	.LBB321:
 758              	.LBB320:
  37:timer.h       ****     }
 759              		.loc 2 37 0
 760 00ef F20F1015 		movsd	xmm2, QWORD PTR .LC0[rip]	 # tmp207,
 760      80000000 
 761 00f7 F2480F2A 		cvtsi2sdq	xmm0, rax	 # D.77400, D.77399
 761      C0
 762 00fc F20F59C2 		mulsd	xmm0, xmm2	 # D.77400, tmp207
 763 0100 F20F5EC1 		divsd	xmm0, xmm1	 # D.77400, D.77400
 764              	.LBE320:
 765              	.LBE321:
  17:RadixSort.cpp ****     printf("Counting: %.3lf milliseconds = %.3lf MB/s = %.3lf MiB/s\n", t.Elapsed(), speed/1e6, spe
 766              		.loc 1 17 0
 767 0104 0F88C600 		js	.L17	 #,
 767      0000
 768 010a 660FEFC9 		pxor	xmm1, xmm1	 # D.77400
 769 010e F2490F2A 		cvtsi2sdq	xmm1, r12	 # D.77400, size
 769      CC
 770              	.L18:
 771 0113 660F28E0 		movapd	xmm4, xmm0	 # D.77400, D.77400
  18:RadixSort.cpp ****     
 772              		.loc 1 18 0
 773 0117 66480F7E 		movq	rdx, xmm0	 #, D.77400
 773      C2
 774 011c 488D0D00 		lea	rcx, .LC3[rip]	 #,
 774      000000
  17:RadixSort.cpp ****     printf("Counting: %.3lf milliseconds = %.3lf MB/s = %.3lf MiB/s\n", t.Elapsed(), speed/1e6, spe
 775              		.loc 1 17 0
 776 0123 F20F5EE2 		divsd	xmm4, xmm2	 # D.77400, tmp207
  18:RadixSort.cpp ****     
 777              		.loc 1 18 0
 778 0127 F20F1015 		movsd	xmm2, QWORD PTR .LC1[rip]	 # D.77400,
 778      88000000 
  17:RadixSort.cpp ****     printf("Counting: %.3lf milliseconds = %.3lf MB/s = %.3lf MiB/s\n", t.Elapsed(), speed/1e6, spe
 779              		.loc 1 17 0
 780 012f F20F5ECC 		divsd	xmm1, xmm4	 # speed, D.77400
 781              	.LVL77:
  18:RadixSort.cpp ****     
 782              		.loc 1 18 0
 783 0133 F20F59D1 		mulsd	xmm2, xmm1	 # D.77400, speed
 784 0137 F20F5E0D 		divsd	xmm1, QWORD PTR .LC2[rip]	 # D.77400,
 784      90000000 
 785              	.LVL78:
 786 013f 66490F7E 		movq	r8, xmm1	 #, D.77400
 786      C8
 787 0144 660F28DA 		movapd	xmm3, xmm2	 #, D.77400
 788 0148 66490F7E 		movq	r9, xmm2	 #, D.77400
 788      D1
 789 014d 660F28D1 		movapd	xmm2, xmm1	 #, D.77400
 790 0151 660F28C8 		movapd	xmm1, xmm0	 #, D.77400
 791 0155 E8000000 		call	printf	 #
 791      00
 792              	.LVL79:
 793 015a 4889D8   		mov	rax, rbx	 # ivtmp.82, tmp156
 794 015d 31D2     		xor	edx, edx	 # sum
 795 015f 4C8D8300 		lea	r8, 512[rbx]	 # D.77397,
 795      020000
 796              	.LVL80:
 797 0166 662E0F1F 		.p2align 4,,10
 797      84000000 
 797      0000
 798              	.L19:
 799              	.LBB322:
 800              	.LBB323:
  23:RadixSort.cpp ****         cnt[i] = sum;
 801              		.loc 1 23 0 discriminator 3
 802 0170 4889D1   		mov	rcx, rdx	 # sum, sum
 803 0173 480308   		add	rcx, QWORD PTR [rax]	 # sum, MEM[base: _98, offset: 0B]
 804              	.LVL81:
  24:RadixSort.cpp ****         sum = tmp;
 805              		.loc 1 24 0 discriminator 3
 806 0176 488910   		mov	QWORD PTR [rax], rdx	 # MEM[base: _98, offset: 0B], sum
 807              	.LVL82:
 808 0179 4883C008 		add	rax, 8	 # ivtmp.82,
 809              	.LBE323:
  21:RadixSort.cpp ****     {
 810              		.loc 1 21 0 discriminator 3
 811 017d 4C39C0   		cmp	rax, r8	 # ivtmp.82, D.77397
 812              	.LBB324:
  25:RadixSort.cpp ****     }
 813              		.loc 1 25 0 discriminator 3
 814 0180 4889CA   		mov	rdx, rcx	 # sum, sum
 815              	.LBE324:
  21:RadixSort.cpp ****     {
 816              		.loc 1 21 0 discriminator 3
 817 0183 75EB     		jne	.L19	 #,
 818              	.LVL83:
 819              	.LBE322:
 820              	.LBB325:
  29:RadixSort.cpp ****     {
 821              		.loc 1 29 0 discriminator 1
 822 0185 31C0     		xor	eax, eax	 # i
 823 0187 4D85E4   		test	r12, r12	 # size
 824 018a 7433     		je	.L15	 #,
 825              	.LVL84:
 826 018c 0F1F4000 		.p2align 4,,10
 827              	.L25:
 828              	.LBB326:
 829              	.LBB327:
 830              	.LBB328:
  10:RadixSort.cpp **** 
 831              		.loc 1 10 0 discriminator 3
 832 0190 488B1486 		mov	rdx, QWORD PTR [rsi+rax*4]	 # D.77395, MEM[base: InKey_24(D), index: i_7, step: 4, offset: 0B]
 833              	.LBE328:
 834              	.LBE327:
  32:RadixSort.cpp ****         OutData[cnt[bin]] = InData[i];
 835              		.loc 1 32 0 discriminator 3
 836 0194 448B0486 		mov	r8d, DWORD PTR [rsi+rax*4]	 # D.77402, MEM[base: InKey_24(D), index: i_7, step: 4, offset: 0B]
 837              	.LBB330:
 838              	.LBB329:
  10:RadixSort.cpp **** 
 839              		.loc 1 10 0 discriminator 3
 840 0198 83E23F   		and	edx, 63	 # D.77395,
 841 019b 488D0CD3 		lea	rcx, [rbx+rdx*8]	 # D.77396,
 842              	.LBE329:
 843              	.LBE330:
  32:RadixSort.cpp ****         OutData[cnt[bin]] = InData[i];
 844              		.loc 1 32 0 discriminator 3
 845 019f 488B11   		mov	rdx, QWORD PTR [rcx]	 # D.77395, MEM[(size_t[0:D.76943] *)_104]
 846 01a2 45890497 		mov	DWORD PTR [r15+rdx*4], r8d	 # *_49, D.77402
  33:RadixSort.cpp ****         cnt[bin]++;
 847              		.loc 1 33 0 discriminator 3
 848 01a6 458B4485 		mov	r8d, DWORD PTR 0[r13+rax*4]	 # D.77402, MEM[base: InData_55(D), index: i_7, step: 4, offset: 0
 848      00
 849              	.LBE326:
  29:RadixSort.cpp ****     {
 850              		.loc 1 29 0 discriminator 3
 851 01ab 4883C001 		add	rax, 1	 # i,
 852              	.LVL85:
 853              	.LBB331:
  33:RadixSort.cpp ****         cnt[bin]++;
 854              		.loc 1 33 0 discriminator 3
 855 01af 45890496 		mov	DWORD PTR [r14+rdx*4], r8d	 # *_53, D.77402
  34:RadixSort.cpp ****     }
 856              		.loc 1 34 0 discriminator 3
 857 01b3 4883C201 		add	rdx, 1	 # tmp204,
 858              	.LBE331:
  29:RadixSort.cpp ****     {
 859              		.loc 1 29 0 discriminator 3
 860 01b7 4C39E0   		cmp	rax, r12	 # i, size
 861              	.LBB332:
  34:RadixSort.cpp ****     }
 862              		.loc 1 34 0 discriminator 3
 863 01ba 488911   		mov	QWORD PTR [rcx], rdx	 # MEM[(size_t[0:D.76943] *)_104], tmp204
 864              	.LBE332:
  29:RadixSort.cpp ****     {
 865              		.loc 1 29 0 discriminator 3
 866 01bd 75D1     		jne	.L25	 #,
 867              	.LVL86:
 868              	.L15:
 869              	.LBE325:
 870              	.LBE334:
 871              		.loc 1 36 0
 872 01bf 488D65D8 		lea	rsp, -40[rbp]	 #,
 873 01c3 5B       		pop	rbx	 #
 874              		.cfi_remember_state
 875              		.cfi_restore 3
 876              	.LVL87:
 877 01c4 5E       		pop	rsi	 #
 878              		.cfi_restore 4
 879              	.LVL88:
 880 01c5 5F       		pop	rdi	 #
 881              		.cfi_restore 5
 882 01c6 415C     		pop	r12	 #
 883              		.cfi_restore 12
 884 01c8 415D     		pop	r13	 #
 885              		.cfi_restore 13
 886              	.LVL89:
 887 01ca 415E     		pop	r14	 #
 888              		.cfi_restore 14
 889              	.LVL90:
 890 01cc 415F     		pop	r15	 #
 891              		.cfi_restore 15
 892              	.LVL91:
 893 01ce 5D       		pop	rbp	 #
 894              		.cfi_restore 6
 895              		.cfi_def_cfa 7, -24
 896              	.LVL92:
 897 01cf C3       		ret
 898              	.LVL93:
 899              	.L17:
 900              		.cfi_restore_state
 901              	.LBB335:
  17:RadixSort.cpp ****     printf("Counting: %.3lf milliseconds = %.3lf MB/s = %.3lf MiB/s\n", t.Elapsed(), speed/1e6, spe
 902              		.loc 1 17 0
 903 01d0 4C89E0   		mov	rax, r12	 # tmp173, size
 904 01d3 4C89E2   		mov	rdx, r12	 # tmp174, size
 905 01d6 660FEFC9 		pxor	xmm1, xmm1	 # tmp172
 906 01da 48D1E8   		shr	rax	 # tmp173
 907 01dd 83E201   		and	edx, 1	 # tmp174,
 908 01e0 4809D0   		or	rax, rdx	 # tmp173, tmp174
 909 01e3 F2480F2A 		cvtsi2sdq	xmm1, rax	 # tmp172, tmp173
 909      C8
 910 01e8 F20F58C9 		addsd	xmm1, xmm1	 # D.77400, tmp172
 911 01ec E922FFFF 		jmp	.L18	 #
 911      FF
 912              	.LBE335:
 913              		.cfi_endproc
 914              	.LFE3009:
 915              		.seh_endproc
 916 01f1 90909090 		.section	.text$_Z13RadixSortPassIjjLi0ELi8EEvPKT_PKT0_PS0_PS3_y,"x"
 916      90909090 
 916      90909090 
 916      909090
 917              		.linkonce discard
 918              		.p2align 4,,15
 919              		.globl	_Z13RadixSortPassIjjLi0ELi8EEvPKT_PKT0_PS0_PS3_y
 921              		.seh_proc	_Z13RadixSortPassIjjLi0ELi8EEvPKT_PKT0_PS0_PS3_y
 922              	_Z13RadixSortPassIjjLi0ELi8EEvPKT_PKT0_PS0_PS3_y:
 923              	.LFB3011:
   6:RadixSort.cpp **** {
 924              		.loc 1 6 0
 925              		.cfi_startproc
 926              	.LVL94:
 927 0000 55       		push	rbp	 #
 928              		.seh_pushreg	rbp
 929              		.cfi_def_cfa_offset 16
 930              		.cfi_offset 6, -16
 931 0001 4157     		push	r15	 #
 932              		.seh_pushreg	r15
 933              		.cfi_def_cfa_offset 24
 934              		.cfi_offset 15, -24
 935 0003 4156     		push	r14	 #
 936              		.seh_pushreg	r14
 937              		.cfi_def_cfa_offset 32
 938              		.cfi_offset 14, -32
 939 0005 4155     		push	r13	 #
 940              		.seh_pushreg	r13
 941              		.cfi_def_cfa_offset 40
 942              		.cfi_offset 13, -40
 943 0007 4154     		push	r12	 #
 944              		.seh_pushreg	r12
 945              		.cfi_def_cfa_offset 48
 946              		.cfi_offset 12, -48
 947 0009 57       		push	rdi	 #
 948              		.seh_pushreg	rdi
 949              		.cfi_def_cfa_offset 56
 950              		.cfi_offset 5, -56
 951 000a 56       		push	rsi	 #
 952              		.seh_pushreg	rsi
 953              		.cfi_def_cfa_offset 64
 954              		.cfi_offset 4, -64
 955 000b 53       		push	rbx	 #
 956              		.seh_pushreg	rbx
 957              		.cfi_def_cfa_offset 72
 958              		.cfi_offset 3, -72
 959 000c 4883EC58 		sub	rsp, 88	 #,
 960              		.seh_stackalloc	88
 961              		.cfi_def_cfa_offset 160
 962 0010 488DAC24 		lea	rbp, 128[rsp]	 #,
 962      80000000 
 963              		.seh_setframe	rbp, 128
 964              		.cfi_def_cfa 6, 32
 965              		.seh_endprologue
 966              	.LVL95:
   6:RadixSort.cpp **** {
 967              		.loc 1 6 0
 968 0018 488B7D40 		mov	rdi, QWORD PTR 64[rbp]	 # size, size
 969              	.LBB361:
 970              	.LBB362:
 971              	.LBB363:
  43:timer.h       **** 
 972              		.loc 2 43 0
 973 001c 4C8D75B0 		lea	r14, -80[rbp]	 # tmp207,
 974              	.LVL96:
 975              	.LBE363:
 976              	.LBE362:
 977              	.LBE361:
   6:RadixSort.cpp **** {
 978              		.loc 1 6 0
 979 0020 4989D4   		mov	r12, rdx	 # InData, InData
 980 0023 4D89C5   		mov	r13, r8	 # OutKey, OutKey
 981 0026 4D89CF   		mov	r15, r9	 # OutData, OutData
 982 0029 4889CE   		mov	rsi, rcx	 # InKey, InKey
 983              	.LBB398:
 984              	.LBB374:
 985              	.LBB372:
  43:timer.h       **** 
 986              		.loc 2 43 0
 987 002c 498D4E10 		lea	rcx, 16[r14]	 # tmp140,
 988              	.LVL97:
 989 0030 FF150000 		call	[QWORD PTR __imp_QueryPerformanceFrequency[rip]]	 #
 989      0000
 990              	.LVL98:
 991              	.LBB364:
 992              	.LBB365:
 993              	.LBB366:
 994              	.LBB367:
  25:timer.h       ****     }
 995              		.loc 2 25 0
 996 0036 488B0500 		mov	rax, QWORD PTR __imp_QueryPerformanceCounter[rip]	 # tmp206,
 996      000000
 997 003d 4C89F1   		mov	rcx, r14	 #, tmp207
 998 0040 4889C3   		mov	rbx, rax	 # tmp206, tmp206
 999 0043 488945A8 		mov	QWORD PTR -88[rbp], rax	 # %sfp, tmp206
 1000 0047 FFD0     		call	rax	 # tmp206
 1001              	.LVL99:
 1002              	.LBE367:
 1003              	.LBE366:
 1004              	.LBB368:
 1005              	.LBB369:
  30:timer.h       ****     }
 1006              		.loc 2 30 0
 1007 0049 498D4E08 		lea	rcx, 8[r14]	 # tmp145,
 1008 004d 4889D8   		mov	rax, rbx	 # tmp206, tmp206
 1009 0050 FFD0     		call	rax	 # tmp206
 1010              	.LVL100:
 1011              	.LBE369:
 1012              	.LBE368:
 1013              		.loc 2 56 0
 1014 0052 488B45B8 		mov	rax, QWORD PTR -72[rbp]	 # t.m_stop.QuadPart, t.m_stop.QuadPart
 1015              	.LBE365:
 1016              	.LBE364:
 1017              	.LBE372:
 1018              	.LBE374:
 1019              	.LBB375:
 1020              	.LBB376:
  25:timer.h       ****     }
 1021              		.loc 2 25 0
 1022 0056 4C89F1   		mov	rcx, r14	 #, tmp207
 1023              	.LBE376:
 1024              	.LBE375:
 1025              	.LBB378:
 1026              	.LBB373:
 1027              	.LBB371:
 1028              	.LBB370:
 1029              		.loc 2 56 0
 1030 0059 482B45B0 		sub	rax, QWORD PTR -80[rbp]	 # D.77442, t.m_start.QuadPart
 1031              	.LBE370:
 1032              	.LBE371:
  46:timer.h       ****     }
 1033              		.loc 2 46 0
 1034 005d 488945C8 		mov	QWORD PTR -56[rbp], rax	 # t.m_overhead, D.77442
 1035              	.LVL101:
 1036              	.LBE373:
 1037              	.LBE378:
 1038              	.LBB379:
 1039              	.LBB377:
  25:timer.h       ****     }
 1040              		.loc 2 25 0
 1041 0061 4889D8   		mov	rax, rbx	 # tmp206, tmp206
 1042 0064 FFD0     		call	rax	 # tmp206
 1043              	.LVL102:
 1044              	.LBE377:
 1045              	.LBE379:
  14:RadixSort.cpp ****     for (size_t i=0; i<size; i++)
 1046              		.loc 1 14 0
 1047 0066 4881EC10 		sub	rsp, 2064	 #,
 1047      080000
 1048 006d 31D2     		xor	edx, edx	 #
 1049 006f 41B8F807 		mov	r8d, 2040	 #,
 1049      0000
 1050 0075 488D4424 		lea	rax, 39[rsp]	 # tmp154,
 1050      27
 1051 007a 48C1E803 		shr	rax, 3	 # tmp155,
 1052 007e 488D1CC5 		lea	rbx, 0[0+rax*8]	 # tmp156,
 1052      00000000 
 1053              	.LVL103:
 1054 0086 48C704C5 		mov	QWORD PTR 0[0+rax*8], 0	 # MEM[(size_t *)cnt.12_18],
 1054      00000000 
 1054      00000000 
 1055 0092 488D4B08 		lea	rcx, 8[rbx]	 # D.77434,
 1056 0096 E8000000 		call	memset	 #
 1056      00
 1057              	.LVL104:
 1058 009b 488D0CBE 		lea	rcx, [rsi+rdi*4]	 # D.77435,
 1059              	.LBB380:
  15:RadixSort.cpp ****         cnt[key(InKey[i])]++;
 1060              		.loc 1 15 0
 1061 009f 4885FF   		test	rdi, rdi	 # size
 1062 00a2 4889F0   		mov	rax, rsi	 # ivtmp.108, InKey
 1063 00a5 741A     		je	.L36	 #,
 1064              	.LVL105:
 1065 00a7 660F1F84 		.p2align 4,,10
 1065      00000000 
 1065      00
 1066              	.L41:
 1067              	.LBB381:
 1068              	.LBB382:
  10:RadixSort.cpp **** 
 1069              		.loc 1 10 0 discriminator 3
 1070 00b0 0FB610   		movzx	edx, BYTE PTR [rax]	 # D.77433, MEM[base: _14, offset: 0B]
 1071 00b3 4883C004 		add	rax, 4	 # ivtmp.108,
 1072              	.LVL106:
 1073              	.LBE382:
 1074              	.LBE381:
  16:RadixSort.cpp ****     t.Stop();  double speed = size/(t.Elapsed()/1000);
 1075              		.loc 1 16 0 discriminator 3
 1076 00b7 488304D3 		add	QWORD PTR [rbx+rdx*8], 1	 # MEM[(size_t[0:D.76984] *)_26],
 1076      01
  15:RadixSort.cpp ****         cnt[key(InKey[i])]++;
 1077              		.loc 1 15 0 discriminator 3
 1078 00bc 4839C8   		cmp	rax, rcx	 # ivtmp.108, D.77435
 1079 00bf 75EF     		jne	.L41	 #,
 1080              	.LVL107:
 1081              	.L36:
 1082              	.LBE380:
 1083              	.LBB383:
 1084              	.LBB384:
  30:timer.h       ****     }
 1085              		.loc 2 30 0
 1086 00c1 498D4E08 		lea	rcx, 8[r14]	 # tmp163,
 1087 00c5 488B45A8 		mov	rax, QWORD PTR -88[rbp]	 # tmp206, %sfp
 1088 00c9 FFD0     		call	rax	 # tmp206
 1089              	.LVL108:
 1090              	.LBE384:
 1091              	.LBE383:
 1092              	.LBB385:
 1093              	.LBB386:
  36:timer.h       ****                                           * 1000.0 / m_freq.QuadPart;
 1094              		.loc 2 36 0
 1095 00cb 488B45B8 		mov	rax, QWORD PTR -72[rbp]	 # t.m_stop.QuadPart, t.m_stop.QuadPart
  37:timer.h       ****     }
 1096              		.loc 2 37 0
 1097 00cf 660FEFC0 		pxor	xmm0, xmm0	 # D.77438
 1098 00d3 660FEFC9 		pxor	xmm1, xmm1	 # D.77438
 1099 00d7 F2480F2A 		cvtsi2sdq	xmm1, QWORD PTR -64[rbp]	 # D.77438, t.m_freq.QuadPart
 1099      4DC0
  36:timer.h       ****                                           * 1000.0 / m_freq.QuadPart;
 1100              		.loc 2 36 0
 1101 00dd 482B45B0 		sub	rax, QWORD PTR -80[rbp]	 # D.77437, t.m_start.QuadPart
 1102 00e1 482B45C8 		sub	rax, QWORD PTR -56[rbp]	 # D.77437, t.m_overhead
 1103              	.LBE386:
 1104              	.LBE385:
  17:RadixSort.cpp ****     printf("Counting: %.3lf milliseconds = %.3lf MB/s = %.3lf MiB/s\n", t.Elapsed(), speed/1e6, spe
 1105              		.loc 1 17 0
 1106 00e5 4885FF   		test	rdi, rdi	 # size
 1107              	.LBB388:
 1108              	.LBB387:
  37:timer.h       ****     }
 1109              		.loc 2 37 0
 1110 00e8 F20F1015 		movsd	xmm2, QWORD PTR .LC0[rip]	 # tmp208,
 1110      80000000 
 1111 00f0 F2480F2A 		cvtsi2sdq	xmm0, rax	 # D.77438, D.77437
 1111      C0
 1112 00f5 F20F59C2 		mulsd	xmm0, xmm2	 # D.77438, tmp208
 1113 00f9 F20F5EC1 		divsd	xmm0, xmm1	 # D.77438, D.77438
 1114              	.LBE387:
 1115              	.LBE388:
  17:RadixSort.cpp ****     printf("Counting: %.3lf milliseconds = %.3lf MB/s = %.3lf MiB/s\n", t.Elapsed(), speed/1e6, spe
 1116              		.loc 1 17 0
 1117 00fd 0F88BA00 		js	.L32	 #,
 1117      0000
 1118 0103 660FEFC9 		pxor	xmm1, xmm1	 # D.77438
 1119 0107 F2480F2A 		cvtsi2sdq	xmm1, rdi	 # D.77438, size
 1119      CF
 1120              	.L33:
 1121 010c 660F28E0 		movapd	xmm4, xmm0	 # D.77438, D.77438
  18:RadixSort.cpp ****     
 1122              		.loc 1 18 0
 1123 0110 66480F7E 		movq	rdx, xmm0	 #, D.77438
 1123      C2
 1124 0115 488D0D00 		lea	rcx, .LC3[rip]	 #,
 1124      000000
  17:RadixSort.cpp ****     printf("Counting: %.3lf milliseconds = %.3lf MB/s = %.3lf MiB/s\n", t.Elapsed(), speed/1e6, spe
 1125              		.loc 1 17 0
 1126 011c F20F5EE2 		divsd	xmm4, xmm2	 # D.77438, tmp208
  18:RadixSort.cpp ****     
 1127              		.loc 1 18 0
 1128 0120 F20F1015 		movsd	xmm2, QWORD PTR .LC1[rip]	 # D.77438,
 1128      88000000 
  17:RadixSort.cpp ****     printf("Counting: %.3lf milliseconds = %.3lf MB/s = %.3lf MiB/s\n", t.Elapsed(), speed/1e6, spe
 1129              		.loc 1 17 0
 1130 0128 F20F5ECC 		divsd	xmm1, xmm4	 # speed, D.77438
 1131              	.LVL109:
  18:RadixSort.cpp ****     
 1132              		.loc 1 18 0
 1133 012c F20F59D1 		mulsd	xmm2, xmm1	 # D.77438, speed
 1134 0130 F20F5E0D 		divsd	xmm1, QWORD PTR .LC2[rip]	 # D.77438,
 1134      90000000 
 1135              	.LVL110:
 1136 0138 66490F7E 		movq	r8, xmm1	 #, D.77438
 1136      C8
 1137 013d 660F28DA 		movapd	xmm3, xmm2	 #, D.77438
 1138 0141 66490F7E 		movq	r9, xmm2	 #, D.77438
 1138      D1
 1139 0146 660F28D1 		movapd	xmm2, xmm1	 #, D.77438
 1140 014a 660F28C8 		movapd	xmm1, xmm0	 #, D.77438
 1141 014e E8000000 		call	printf	 #
 1141      00
 1142              	.LVL111:
 1143 0153 4889D8   		mov	rax, rbx	 # ivtmp.103, tmp156
 1144 0156 31D2     		xor	edx, edx	 # sum
 1145 0158 4C8D8300 		lea	r8, 2048[rbx]	 # D.77435,
 1145      080000
 1146              	.LVL112:
 1147 015f 90       		.p2align 4,,10
 1148              	.L34:
 1149              	.LBB389:
 1150              	.LBB390:
  23:RadixSort.cpp ****         cnt[i] = sum;
 1151              		.loc 1 23 0 discriminator 3
 1152 0160 4889D1   		mov	rcx, rdx	 # sum, sum
 1153 0163 480308   		add	rcx, QWORD PTR [rax]	 # sum, MEM[base: _98, offset: 0B]
 1154              	.LVL113:
  24:RadixSort.cpp ****         sum = tmp;
 1155              		.loc 1 24 0 discriminator 3
 1156 0166 488910   		mov	QWORD PTR [rax], rdx	 # MEM[base: _98, offset: 0B], sum
 1157              	.LVL114:
 1158 0169 4883C008 		add	rax, 8	 # ivtmp.103,
 1159              	.LBE390:
  21:RadixSort.cpp ****     {
 1160              		.loc 1 21 0 discriminator 3
 1161 016d 4C39C0   		cmp	rax, r8	 # ivtmp.103, D.77435
 1162              	.LBB391:
  25:RadixSort.cpp ****     }
 1163              		.loc 1 25 0 discriminator 3
 1164 0170 4889CA   		mov	rdx, rcx	 # sum, sum
 1165              	.LBE391:
  21:RadixSort.cpp ****     {
 1166              		.loc 1 21 0 discriminator 3
 1167 0173 75EB     		jne	.L34	 #,
 1168              	.LVL115:
 1169              	.LBE389:
 1170              	.LBB392:
  29:RadixSort.cpp ****     {
 1171              		.loc 1 29 0 discriminator 1
 1172 0175 31C0     		xor	eax, eax	 # i
 1173 0177 4885FF   		test	rdi, rdi	 # size
 1174 017a 7430     		je	.L30	 #,
 1175              	.LVL116:
 1176 017c 0F1F4000 		.p2align 4,,10
 1177              	.L40:
 1178              	.LBB393:
 1179              	.LBB394:
 1180              	.LBB395:
  10:RadixSort.cpp **** 
 1181              		.loc 1 10 0 discriminator 3
 1182 0180 0FB61486 		movzx	edx, BYTE PTR [rsi+rax*4]	 # D.77433, MEM[base: InKey_24(D), index: i_7, step: 4, offset: 0B
 1183              	.LBE395:
 1184              	.LBE394:
  32:RadixSort.cpp ****         OutData[cnt[bin]] = InData[i];
 1185              		.loc 1 32 0 discriminator 3
 1186 0184 448B0486 		mov	r8d, DWORD PTR [rsi+rax*4]	 # D.77440, MEM[base: InKey_24(D), index: i_7, step: 4, offset: 0B]
 1187 0188 488D0CD3 		lea	rcx, [rbx+rdx*8]	 # D.77434,
 1188 018c 488B11   		mov	rdx, QWORD PTR [rcx]	 # D.77433, MEM[(size_t[0:D.76984] *)_104]
 1189 018f 45894495 		mov	DWORD PTR 0[r13+rdx*4], r8d	 # *_49, D.77440
 1189      00
  33:RadixSort.cpp ****         cnt[bin]++;
 1190              		.loc 1 33 0 discriminator 3
 1191 0194 458B0484 		mov	r8d, DWORD PTR [r12+rax*4]	 # D.77440, MEM[base: InData_55(D), index: i_7, step: 4, offset: 0B
 1192              	.LBE393:
  29:RadixSort.cpp ****     {
 1193              		.loc 1 29 0 discriminator 3
 1194 0198 4883C001 		add	rax, 1	 # i,
 1195              	.LVL117:
 1196              	.LBB396:
  33:RadixSort.cpp ****         cnt[bin]++;
 1197              		.loc 1 33 0 discriminator 3
 1198 019c 45890497 		mov	DWORD PTR [r15+rdx*4], r8d	 # *_53, D.77440
  34:RadixSort.cpp ****     }
 1199              		.loc 1 34 0 discriminator 3
 1200 01a0 4883C201 		add	rdx, 1	 # tmp205,
 1201              	.LBE396:
  29:RadixSort.cpp ****     {
 1202              		.loc 1 29 0 discriminator 3
 1203 01a4 4839F8   		cmp	rax, rdi	 # i, size
 1204              	.LBB397:
  34:RadixSort.cpp ****     }
 1205              		.loc 1 34 0 discriminator 3
 1206 01a7 488911   		mov	QWORD PTR [rcx], rdx	 # MEM[(size_t[0:D.76984] *)_104], tmp205
 1207              	.LBE397:
  29:RadixSort.cpp ****     {
 1208              		.loc 1 29 0 discriminator 3
 1209 01aa 75D4     		jne	.L40	 #,
 1210              	.LVL118:
 1211              	.L30:
 1212              	.LBE392:
 1213              	.LBE398:
 1214              		.loc 1 36 0
 1215 01ac 488D65D8 		lea	rsp, -40[rbp]	 #,
 1216 01b0 5B       		pop	rbx	 #
 1217              		.cfi_remember_state
 1218              		.cfi_restore 3
 1219              	.LVL119:
 1220 01b1 5E       		pop	rsi	 #
 1221              		.cfi_restore 4
 1222              	.LVL120:
 1223 01b2 5F       		pop	rdi	 #
 1224              		.cfi_restore 5
 1225 01b3 415C     		pop	r12	 #
 1226              		.cfi_restore 12
 1227              	.LVL121:
 1228 01b5 415D     		pop	r13	 #
 1229              		.cfi_restore 13
 1230              	.LVL122:
 1231 01b7 415E     		pop	r14	 #
 1232              		.cfi_restore 14
 1233              	.LVL123:
 1234 01b9 415F     		pop	r15	 #
 1235              		.cfi_restore 15
 1236              	.LVL124:
 1237 01bb 5D       		pop	rbp	 #
 1238              		.cfi_restore 6
 1239              		.cfi_def_cfa 7, -24
 1240              	.LVL125:
 1241 01bc C3       		ret
 1242              	.LVL126:
 1243              	.L32:
 1244              		.cfi_restore_state
 1245              	.LBB399:
  17:RadixSort.cpp ****     printf("Counting: %.3lf milliseconds = %.3lf MB/s = %.3lf MiB/s\n", t.Elapsed(), speed/1e6, spe
 1246              		.loc 1 17 0
 1247 01bd 4889F8   		mov	rax, rdi	 # tmp174, size
 1248 01c0 4889FA   		mov	rdx, rdi	 # tmp175, size
 1249 01c3 660FEFC9 		pxor	xmm1, xmm1	 # tmp173
 1250 01c7 48D1E8   		shr	rax	 # tmp174
 1251 01ca 83E201   		and	edx, 1	 # tmp175,
 1252 01cd 4809D0   		or	rax, rdx	 # tmp174, tmp175
 1253 01d0 F2480F2A 		cvtsi2sdq	xmm1, rax	 # tmp173, tmp174
 1253      C8
 1254 01d5 F20F58C9 		addsd	xmm1, xmm1	 # D.77438, tmp173
 1255 01d9 E92EFFFF 		jmp	.L33	 #
 1255      FF
 1256              	.LBE399:
 1257              		.cfi_endproc
 1258              	.LFE3011:
 1259              		.seh_endproc
 1260 01de 9090     		.section	.text$_Z13RadixSortPassIjjLi0ELi12EEvPKT_PKT0_PS0_PS3_y,"x"
 1261              		.linkonce discard
 1262              		.p2align 4,,15
 1263              		.globl	_Z13RadixSortPassIjjLi0ELi12EEvPKT_PKT0_PS0_PS3_y
 1265              		.seh_proc	_Z13RadixSortPassIjjLi0ELi12EEvPKT_PKT0_PS0_PS3_y
 1266              	_Z13RadixSortPassIjjLi0ELi12EEvPKT_PKT0_PS0_PS3_y:
 1267              	.LFB3013:
   6:RadixSort.cpp **** {
 1268              		.loc 1 6 0
 1269              		.cfi_startproc
 1270              	.LVL127:
 1271 0000 55       		push	rbp	 #
 1272              		.seh_pushreg	rbp
 1273              		.cfi_def_cfa_offset 16
 1274              		.cfi_offset 6, -16
 1275 0001 4157     		push	r15	 #
 1276              		.seh_pushreg	r15
 1277              		.cfi_def_cfa_offset 24
 1278              		.cfi_offset 15, -24
 1279 0003 4156     		push	r14	 #
 1280              		.seh_pushreg	r14
 1281              		.cfi_def_cfa_offset 32
 1282              		.cfi_offset 14, -32
 1283 0005 4155     		push	r13	 #
 1284              		.seh_pushreg	r13
 1285              		.cfi_def_cfa_offset 40
 1286              		.cfi_offset 13, -40
 1287 0007 4154     		push	r12	 #
 1288              		.seh_pushreg	r12
 1289              		.cfi_def_cfa_offset 48
 1290              		.cfi_offset 12, -48
 1291 0009 57       		push	rdi	 #
 1292              		.seh_pushreg	rdi
 1293              		.cfi_def_cfa_offset 56
 1294              		.cfi_offset 5, -56
 1295 000a 56       		push	rsi	 #
 1296              		.seh_pushreg	rsi
 1297              		.cfi_def_cfa_offset 64
 1298              		.cfi_offset 4, -64
 1299 000b 53       		push	rbx	 #
 1300              		.seh_pushreg	rbx
 1301              		.cfi_def_cfa_offset 72
 1302              		.cfi_offset 3, -72
 1303 000c 4883EC58 		sub	rsp, 88	 #,
 1304              		.seh_stackalloc	88
 1305              		.cfi_def_cfa_offset 160
 1306 0010 488DAC24 		lea	rbp, 128[rsp]	 #,
 1306      80000000 
 1307              		.seh_setframe	rbp, 128
 1308              		.cfi_def_cfa 6, 32
 1309              		.seh_endprologue
 1310              	.LVL128:
   6:RadixSort.cpp **** {
 1311              		.loc 1 6 0
 1312 0018 488B7D40 		mov	rdi, QWORD PTR 64[rbp]	 # size, size
 1313              	.LBB425:
 1314              	.LBB426:
 1315              	.LBB427:
  43:timer.h       **** 
 1316              		.loc 2 43 0
 1317 001c 4C8D75B0 		lea	r14, -80[rbp]	 # tmp208,
 1318              	.LVL129:
 1319              	.LBE427:
 1320              	.LBE426:
 1321              	.LBE425:
   6:RadixSort.cpp **** {
 1322              		.loc 1 6 0
 1323 0020 4989D4   		mov	r12, rdx	 # InData, InData
 1324 0023 4D89C5   		mov	r13, r8	 # OutKey, OutKey
 1325 0026 4D89CF   		mov	r15, r9	 # OutData, OutData
 1326 0029 4889CE   		mov	rsi, rcx	 # InKey, InKey
 1327              	.LBB464:
 1328              	.LBB438:
 1329              	.LBB436:
  43:timer.h       **** 
 1330              		.loc 2 43 0
 1331 002c 498D4E10 		lea	rcx, 16[r14]	 # tmp140,
 1332              	.LVL130:
 1333 0030 FF150000 		call	[QWORD PTR __imp_QueryPerformanceFrequency[rip]]	 #
 1333      0000
 1334              	.LVL131:
 1335              	.LBB428:
 1336              	.LBB429:
 1337              	.LBB430:
 1338              	.LBB431:
  25:timer.h       ****     }
 1339              		.loc 2 25 0
 1340 0036 488B0500 		mov	rax, QWORD PTR __imp_QueryPerformanceCounter[rip]	 # tmp207,
 1340      000000
 1341 003d 4C89F1   		mov	rcx, r14	 #, tmp208
 1342 0040 4889C3   		mov	rbx, rax	 # tmp207, tmp207
 1343 0043 488945A8 		mov	QWORD PTR -88[rbp], rax	 # %sfp, tmp207
 1344 0047 FFD0     		call	rax	 # tmp207
 1345              	.LVL132:
 1346              	.LBE431:
 1347              	.LBE430:
 1348              	.LBB432:
 1349              	.LBB433:
  30:timer.h       ****     }
 1350              		.loc 2 30 0
 1351 0049 498D4E08 		lea	rcx, 8[r14]	 # tmp145,
 1352 004d 4889D8   		mov	rax, rbx	 # tmp207, tmp207
 1353 0050 FFD0     		call	rax	 # tmp207
 1354              	.LVL133:
 1355              	.LBE433:
 1356              	.LBE432:
 1357              		.loc 2 56 0
 1358 0052 488B45B8 		mov	rax, QWORD PTR -72[rbp]	 # t.m_stop.QuadPart, t.m_stop.QuadPart
 1359              	.LBE429:
 1360              	.LBE428:
 1361              	.LBE436:
 1362              	.LBE438:
 1363              	.LBB439:
 1364              	.LBB440:
  25:timer.h       ****     }
 1365              		.loc 2 25 0
 1366 0056 4C89F1   		mov	rcx, r14	 #, tmp208
 1367              	.LBE440:
 1368              	.LBE439:
 1369              	.LBB442:
 1370              	.LBB437:
 1371              	.LBB435:
 1372              	.LBB434:
 1373              		.loc 2 56 0
 1374 0059 482B45B0 		sub	rax, QWORD PTR -80[rbp]	 # D.77483, t.m_start.QuadPart
 1375              	.LBE434:
 1376              	.LBE435:
  46:timer.h       ****     }
 1377              		.loc 2 46 0
 1378 005d 488945C8 		mov	QWORD PTR -56[rbp], rax	 # t.m_overhead, D.77483
 1379              	.LVL134:
 1380              	.LBE437:
 1381              	.LBE442:
 1382              	.LBB443:
 1383              	.LBB441:
  25:timer.h       ****     }
 1384              		.loc 2 25 0
 1385 0061 4889D8   		mov	rax, rbx	 # tmp207, tmp207
 1386 0064 FFD0     		call	rax	 # tmp207
 1387              	.LVL135:
 1388              	.LBE441:
 1389              	.LBE443:
  14:RadixSort.cpp ****     for (size_t i=0; i<size; i++)
 1390              		.loc 1 14 0
 1391 0066 B8108000 		mov	eax, 32784	 # tmp154,
 1391      00
 1392 006b E8000000 		call	___chkstk_ms
 1392      00
 1393 0070 31D2     		xor	edx, edx	 #
 1394 0072 41B8F87F 		mov	r8d, 32760	 #,
 1394      0000
 1395 0078 4829C4   		sub	rsp, rax	 #, tmp154
 1396 007b 488D4424 		lea	rax, 39[rsp]	 # tmp155,
 1396      27
 1397 0080 48C1E803 		shr	rax, 3	 # tmp156,
 1398 0084 488D1CC5 		lea	rbx, 0[0+rax*8]	 # tmp157,
 1398      00000000 
 1399              	.LVL136:
 1400 008c 48C704C5 		mov	QWORD PTR 0[0+rax*8], 0	 # MEM[(size_t *)cnt.17_18],
 1400      00000000 
 1400      00000000 
 1401 0098 488D4B08 		lea	rcx, 8[rbx]	 # D.77475,
 1402 009c E8000000 		call	memset	 #
 1402      00
 1403              	.LVL137:
 1404 00a1 488D0CBE 		lea	rcx, [rsi+rdi*4]	 # D.77476,
 1405              	.LBB444:
  15:RadixSort.cpp ****         cnt[key(InKey[i])]++;
 1406              		.loc 1 15 0
 1407 00a5 4885FF   		test	rdi, rdi	 # size
 1408 00a8 4889F2   		mov	rdx, rsi	 # ivtmp.129, InKey
 1409 00ab 7419     		je	.L51	 #,
 1410              	.LVL138:
 1411 00ad 0F1F00   		.p2align 4,,10
 1412              	.L56:
 1413              	.LBB445:
 1414              	.LBB446:
  10:RadixSort.cpp **** 
 1415              		.loc 1 10 0 discriminator 3
 1416 00b0 488B02   		mov	rax, QWORD PTR [rdx]	 # D.77474, MEM[base: _14, offset: 0B]
 1417 00b3 4883C204 		add	rdx, 4	 # ivtmp.129,
 1418              	.LVL139:
 1419 00b7 25FF0F00 		and	eax, 4095	 # D.77474,
 1419      00
 1420              	.LBE446:
 1421              	.LBE445:
  16:RadixSort.cpp ****     t.Stop();  double speed = size/(t.Elapsed()/1000);
 1422              		.loc 1 16 0 discriminator 3
 1423 00bc 488304C3 		add	QWORD PTR [rbx+rax*8], 1	 # MEM[(size_t[0:D.77025] *)_26],
 1423      01
  15:RadixSort.cpp ****         cnt[key(InKey[i])]++;
 1424              		.loc 1 15 0 discriminator 3
 1425 00c1 4839CA   		cmp	rdx, rcx	 # ivtmp.129, D.77476
 1426 00c4 75EA     		jne	.L56	 #,
 1427              	.LVL140:
 1428              	.L51:
 1429              	.LBE444:
 1430              	.LBB447:
 1431              	.LBB448:
  30:timer.h       ****     }
 1432              		.loc 2 30 0
 1433 00c6 498D4E08 		lea	rcx, 8[r14]	 # tmp164,
 1434 00ca 488B45A8 		mov	rax, QWORD PTR -88[rbp]	 # tmp207, %sfp
 1435 00ce FFD0     		call	rax	 # tmp207
 1436              	.LVL141:
 1437              	.LBE448:
 1438              	.LBE447:
 1439              	.LBB449:
 1440              	.LBB450:
  36:timer.h       ****                                           * 1000.0 / m_freq.QuadPart;
 1441              		.loc 2 36 0
 1442 00d0 488B45B8 		mov	rax, QWORD PTR -72[rbp]	 # t.m_stop.QuadPart, t.m_stop.QuadPart
  37:timer.h       ****     }
 1443              		.loc 2 37 0
 1444 00d4 660FEFC0 		pxor	xmm0, xmm0	 # D.77479
 1445 00d8 660FEFC9 		pxor	xmm1, xmm1	 # D.77479
 1446 00dc F2480F2A 		cvtsi2sdq	xmm1, QWORD PTR -64[rbp]	 # D.77479, t.m_freq.QuadPart
 1446      4DC0
  36:timer.h       ****                                           * 1000.0 / m_freq.QuadPart;
 1447              		.loc 2 36 0
 1448 00e2 482B45B0 		sub	rax, QWORD PTR -80[rbp]	 # D.77478, t.m_start.QuadPart
 1449 00e6 482B45C8 		sub	rax, QWORD PTR -56[rbp]	 # D.77478, t.m_overhead
 1450              	.LBE450:
 1451              	.LBE449:
  17:RadixSort.cpp ****     printf("Counting: %.3lf milliseconds = %.3lf MB/s = %.3lf MiB/s\n", t.Elapsed(), speed/1e6, spe
 1452              		.loc 1 17 0
 1453 00ea 4885FF   		test	rdi, rdi	 # size
 1454              	.LBB452:
 1455              	.LBB451:
  37:timer.h       ****     }
 1456              		.loc 2 37 0
 1457 00ed F20F1015 		movsd	xmm2, QWORD PTR .LC0[rip]	 # tmp209,
 1457      80000000 
 1458 00f5 F2480F2A 		cvtsi2sdq	xmm0, rax	 # D.77479, D.77478
 1458      C0
 1459 00fa F20F59C2 		mulsd	xmm0, xmm2	 # D.77479, tmp209
 1460 00fe F20F5EC1 		divsd	xmm0, xmm1	 # D.77479, D.77479
 1461              	.LBE451:
 1462              	.LBE452:
  17:RadixSort.cpp ****     printf("Counting: %.3lf milliseconds = %.3lf MB/s = %.3lf MiB/s\n", t.Elapsed(), speed/1e6, spe
 1463              		.loc 1 17 0
 1464 0102 0F88BB00 		js	.L47	 #,
 1464      0000
 1465 0108 660FEFC9 		pxor	xmm1, xmm1	 # D.77479
 1466 010c F2480F2A 		cvtsi2sdq	xmm1, rdi	 # D.77479, size
 1466      CF
 1467              	.L48:
 1468 0111 660F28E0 		movapd	xmm4, xmm0	 # D.77479, D.77479
  18:RadixSort.cpp ****     
 1469              		.loc 1 18 0
 1470 0115 66480F7E 		movq	rdx, xmm0	 #, D.77479
 1470      C2
 1471 011a 488D0D00 		lea	rcx, .LC3[rip]	 #,
 1471      000000
  17:RadixSort.cpp ****     printf("Counting: %.3lf milliseconds = %.3lf MB/s = %.3lf MiB/s\n", t.Elapsed(), speed/1e6, spe
 1472              		.loc 1 17 0
 1473 0121 F20F5EE2 		divsd	xmm4, xmm2	 # D.77479, tmp209
  18:RadixSort.cpp ****     
 1474              		.loc 1 18 0
 1475 0125 F20F1015 		movsd	xmm2, QWORD PTR .LC1[rip]	 # D.77479,
 1475      88000000 
  17:RadixSort.cpp ****     printf("Counting: %.3lf milliseconds = %.3lf MB/s = %.3lf MiB/s\n", t.Elapsed(), speed/1e6, spe
 1476              		.loc 1 17 0
 1477 012d F20F5ECC 		divsd	xmm1, xmm4	 # speed, D.77479
 1478              	.LVL142:
  18:RadixSort.cpp ****     
 1479              		.loc 1 18 0
 1480 0131 F20F59D1 		mulsd	xmm2, xmm1	 # D.77479, speed
 1481 0135 F20F5E0D 		divsd	xmm1, QWORD PTR .LC2[rip]	 # D.77479,
 1481      90000000 
 1482              	.LVL143:
 1483 013d 66490F7E 		movq	r8, xmm1	 #, D.77479
 1483      C8
 1484 0142 660F28DA 		movapd	xmm3, xmm2	 #, D.77479
 1485 0146 66490F7E 		movq	r9, xmm2	 #, D.77479
 1485      D1
 1486 014b 660F28D1 		movapd	xmm2, xmm1	 #, D.77479
 1487 014f 660F28C8 		movapd	xmm1, xmm0	 #, D.77479
 1488 0153 E8000000 		call	printf	 #
 1488      00
 1489              	.LVL144:
 1490 0158 4889D8   		mov	rax, rbx	 # ivtmp.124, tmp157
 1491 015b 31D2     		xor	edx, edx	 # sum
 1492 015d 4C8D8300 		lea	r8, 32768[rbx]	 # D.77476,
 1492      800000
 1493              	.LVL145:
 1494              		.p2align 4,,10
 1495              	.L49:
 1496              	.LBB453:
 1497              	.LBB454:
  23:RadixSort.cpp ****         cnt[i] = sum;
 1498              		.loc 1 23 0 discriminator 3
 1499 0164 4889D1   		mov	rcx, rdx	 # sum, sum
 1500 0167 480308   		add	rcx, QWORD PTR [rax]	 # sum, MEM[base: _98, offset: 0B]
 1501              	.LVL146:
  24:RadixSort.cpp ****         sum = tmp;
 1502              		.loc 1 24 0 discriminator 3
 1503 016a 488910   		mov	QWORD PTR [rax], rdx	 # MEM[base: _98, offset: 0B], sum
 1504              	.LVL147:
 1505 016d 4883C008 		add	rax, 8	 # ivtmp.124,
 1506              	.LBE454:
  21:RadixSort.cpp ****     {
 1507              		.loc 1 21 0 discriminator 3
 1508 0171 4C39C0   		cmp	rax, r8	 # ivtmp.124, D.77476
 1509              	.LBB455:
  25:RadixSort.cpp ****     }
 1510              		.loc 1 25 0 discriminator 3
 1511 0174 4889CA   		mov	rdx, rcx	 # sum, sum
 1512              	.LBE455:
  21:RadixSort.cpp ****     {
 1513              		.loc 1 21 0 discriminator 3
 1514 0177 75EB     		jne	.L49	 #,
 1515              	.LVL148:
 1516              	.LBE453:
 1517              	.LBB456:
  29:RadixSort.cpp ****     {
 1518              		.loc 1 29 0 discriminator 1
 1519 0179 31C0     		xor	eax, eax	 # i
 1520 017b 4885FF   		test	rdi, rdi	 # size
 1521 017e 7432     		je	.L45	 #,
 1522              	.LVL149:
 1523              		.p2align 4,,10
 1524              	.L55:
 1525              	.LBB457:
 1526              	.LBB458:
 1527              	.LBB459:
  10:RadixSort.cpp **** 
 1528              		.loc 1 10 0 discriminator 3
 1529 0180 488B1486 		mov	rdx, QWORD PTR [rsi+rax*4]	 # D.77474, MEM[base: InKey_24(D), index: i_7, step: 4, offset: 0B]
 1530              	.LBE459:
 1531              	.LBE458:
  32:RadixSort.cpp ****         OutData[cnt[bin]] = InData[i];
 1532              		.loc 1 32 0 discriminator 3
 1533 0184 448B0486 		mov	r8d, DWORD PTR [rsi+rax*4]	 # D.77481, MEM[base: InKey_24(D), index: i_7, step: 4, offset: 0B]
 1534              	.LBB461:
 1535              	.LBB460:
  10:RadixSort.cpp **** 
 1536              		.loc 1 10 0 discriminator 3
 1537 0188 81E2FF0F 		and	edx, 4095	 # D.77474,
 1537      0000
 1538 018e 488D0CD3 		lea	rcx, [rbx+rdx*8]	 # D.77475,
 1539              	.LBE460:
 1540              	.LBE461:
  32:RadixSort.cpp ****         OutData[cnt[bin]] = InData[i];
 1541              		.loc 1 32 0 discriminator 3
 1542 0192 488B11   		mov	rdx, QWORD PTR [rcx]	 # D.77474, MEM[(size_t[0:D.77025] *)_104]
 1543 0195 45894495 		mov	DWORD PTR 0[r13+rdx*4], r8d	 # *_49, D.77481
 1543      00
  33:RadixSort.cpp ****         cnt[bin]++;
 1544              		.loc 1 33 0 discriminator 3
 1545 019a 458B0484 		mov	r8d, DWORD PTR [r12+rax*4]	 # D.77481, MEM[base: InData_55(D), index: i_7, step: 4, offset: 0B
 1546              	.LBE457:
  29:RadixSort.cpp ****     {
 1547              		.loc 1 29 0 discriminator 3
 1548 019e 4883C001 		add	rax, 1	 # i,
 1549              	.LVL150:
 1550              	.LBB462:
  33:RadixSort.cpp ****         cnt[bin]++;
 1551              		.loc 1 33 0 discriminator 3
 1552 01a2 45890497 		mov	DWORD PTR [r15+rdx*4], r8d	 # *_53, D.77481
  34:RadixSort.cpp ****     }
 1553              		.loc 1 34 0 discriminator 3
 1554 01a6 4883C201 		add	rdx, 1	 # tmp206,
 1555              	.LBE462:
  29:RadixSort.cpp ****     {
 1556              		.loc 1 29 0 discriminator 3
 1557 01aa 4839F8   		cmp	rax, rdi	 # i, size
 1558              	.LBB463:
  34:RadixSort.cpp ****     }
 1559              		.loc 1 34 0 discriminator 3
 1560 01ad 488911   		mov	QWORD PTR [rcx], rdx	 # MEM[(size_t[0:D.77025] *)_104], tmp206
 1561              	.LBE463:
  29:RadixSort.cpp ****     {
 1562              		.loc 1 29 0 discriminator 3
 1563 01b0 75CE     		jne	.L55	 #,
 1564              	.LVL151:
 1565              	.L45:
 1566              	.LBE456:
 1567              	.LBE464:
 1568              		.loc 1 36 0
 1569 01b2 488D65D8 		lea	rsp, -40[rbp]	 #,
 1570 01b6 5B       		pop	rbx	 #
 1571              		.cfi_remember_state
 1572              		.cfi_restore 3
 1573              	.LVL152:
 1574 01b7 5E       		pop	rsi	 #
 1575              		.cfi_restore 4
 1576              	.LVL153:
 1577 01b8 5F       		pop	rdi	 #
 1578              		.cfi_restore 5
 1579 01b9 415C     		pop	r12	 #
 1580              		.cfi_restore 12
 1581              	.LVL154:
 1582 01bb 415D     		pop	r13	 #
 1583              		.cfi_restore 13
 1584              	.LVL155:
 1585 01bd 415E     		pop	r14	 #
 1586              		.cfi_restore 14
 1587              	.LVL156:
 1588 01bf 415F     		pop	r15	 #
 1589              		.cfi_restore 15
 1590              	.LVL157:
 1591 01c1 5D       		pop	rbp	 #
 1592              		.cfi_restore 6
 1593              		.cfi_def_cfa 7, -24
 1594 01c2 C3       		ret
 1595              	.LVL158:
 1596              	.L47:
 1597              		.cfi_restore_state
 1598              	.LBB465:
  17:RadixSort.cpp ****     printf("Counting: %.3lf milliseconds = %.3lf MB/s = %.3lf MiB/s\n", t.Elapsed(), speed/1e6, spe
 1599              		.loc 1 17 0
 1600 01c3 4889F8   		mov	rax, rdi	 # tmp175, size
 1601 01c6 4889FA   		mov	rdx, rdi	 # tmp176, size
 1602 01c9 660FEFC9 		pxor	xmm1, xmm1	 # tmp174
 1603 01cd 48D1E8   		shr	rax	 # tmp175
 1604 01d0 83E201   		and	edx, 1	 # tmp176,
 1605 01d3 4809D0   		or	rax, rdx	 # tmp175, tmp176
 1606 01d6 F2480F2A 		cvtsi2sdq	xmm1, rax	 # tmp174, tmp175
 1606      C8
 1607 01db F20F58C9 		addsd	xmm1, xmm1	 # D.77479, tmp174
 1608 01df E92DFFFF 		jmp	.L48	 #
 1608      FF
 1609              	.LBE465:
 1610              		.cfi_endproc
 1611              	.LFE3013:
 1612              		.seh_endproc
 1613 01e4 90909090 		.section	.text$_Z13RadixSortPassIjjLi0ELi16EEvPKT_PKT0_PS0_PS3_y,"x"
 1613      90909090 
 1613      90909090 
 1614              		.linkonce discard
 1615              		.p2align 4,,15
 1616              		.globl	_Z13RadixSortPassIjjLi0ELi16EEvPKT_PKT0_PS0_PS3_y
 1618              		.seh_proc	_Z13RadixSortPassIjjLi0ELi16EEvPKT_PKT0_PS0_PS3_y
 1619              	_Z13RadixSortPassIjjLi0ELi16EEvPKT_PKT0_PS0_PS3_y:
 1620              	.LFB3015:
   6:RadixSort.cpp **** {
 1621              		.loc 1 6 0
 1622              		.cfi_startproc
 1623              	.LVL159:
 1624 0000 55       		push	rbp	 #
 1625              		.seh_pushreg	rbp
 1626              		.cfi_def_cfa_offset 16
 1627              		.cfi_offset 6, -16
 1628 0001 4157     		push	r15	 #
 1629              		.seh_pushreg	r15
 1630              		.cfi_def_cfa_offset 24
 1631              		.cfi_offset 15, -24
 1632 0003 4156     		push	r14	 #
 1633              		.seh_pushreg	r14
 1634              		.cfi_def_cfa_offset 32
 1635              		.cfi_offset 14, -32
 1636 0005 4155     		push	r13	 #
 1637              		.seh_pushreg	r13
 1638              		.cfi_def_cfa_offset 40
 1639              		.cfi_offset 13, -40
 1640 0007 4154     		push	r12	 #
 1641              		.seh_pushreg	r12
 1642              		.cfi_def_cfa_offset 48
 1643              		.cfi_offset 12, -48
 1644 0009 57       		push	rdi	 #
 1645              		.seh_pushreg	rdi
 1646              		.cfi_def_cfa_offset 56
 1647              		.cfi_offset 5, -56
 1648 000a 56       		push	rsi	 #
 1649              		.seh_pushreg	rsi
 1650              		.cfi_def_cfa_offset 64
 1651              		.cfi_offset 4, -64
 1652 000b 53       		push	rbx	 #
 1653              		.seh_pushreg	rbx
 1654              		.cfi_def_cfa_offset 72
 1655              		.cfi_offset 3, -72
 1656 000c 4883EC58 		sub	rsp, 88	 #,
 1657              		.seh_stackalloc	88
 1658              		.cfi_def_cfa_offset 160
 1659 0010 488DAC24 		lea	rbp, 128[rsp]	 #,
 1659      80000000 
 1660              		.seh_setframe	rbp, 128
 1661              		.cfi_def_cfa 6, 32
 1662              		.seh_endprologue
 1663              	.LVL160:
   6:RadixSort.cpp **** {
 1664              		.loc 1 6 0
 1665 0018 488B7D40 		mov	rdi, QWORD PTR 64[rbp]	 # size, size
 1666              	.LBB491:
 1667              	.LBB492:
 1668              	.LBB493:
  43:timer.h       **** 
 1669              		.loc 2 43 0
 1670 001c 4C8D75B0 		lea	r14, -80[rbp]	 # tmp208,
 1671              	.LVL161:
 1672              	.LBE493:
 1673              	.LBE492:
 1674              	.LBE491:
   6:RadixSort.cpp **** {
 1675              		.loc 1 6 0
 1676 0020 4989D4   		mov	r12, rdx	 # InData, InData
 1677 0023 4D89C5   		mov	r13, r8	 # OutKey, OutKey
 1678 0026 4D89CF   		mov	r15, r9	 # OutData, OutData
 1679 0029 4889CE   		mov	rsi, rcx	 # InKey, InKey
 1680              	.LBB528:
 1681              	.LBB504:
 1682              	.LBB502:
  43:timer.h       **** 
 1683              		.loc 2 43 0
 1684 002c 498D4E10 		lea	rcx, 16[r14]	 # tmp140,
 1685              	.LVL162:
 1686 0030 FF150000 		call	[QWORD PTR __imp_QueryPerformanceFrequency[rip]]	 #
 1686      0000
 1687              	.LVL163:
 1688              	.LBB494:
 1689              	.LBB495:
 1690              	.LBB496:
 1691              	.LBB497:
  25:timer.h       ****     }
 1692              		.loc 2 25 0
 1693 0036 488B0500 		mov	rax, QWORD PTR __imp_QueryPerformanceCounter[rip]	 # tmp207,
 1693      000000
 1694 003d 4C89F1   		mov	rcx, r14	 #, tmp208
 1695 0040 4889C3   		mov	rbx, rax	 # tmp207, tmp207
 1696 0043 488945A8 		mov	QWORD PTR -88[rbp], rax	 # %sfp, tmp207
 1697 0047 FFD0     		call	rax	 # tmp207
 1698              	.LVL164:
 1699              	.LBE497:
 1700              	.LBE496:
 1701              	.LBB498:
 1702              	.LBB499:
  30:timer.h       ****     }
 1703              		.loc 2 30 0
 1704 0049 498D4E08 		lea	rcx, 8[r14]	 # tmp145,
 1705 004d 4889D8   		mov	rax, rbx	 # tmp207, tmp207
 1706 0050 FFD0     		call	rax	 # tmp207
 1707              	.LVL165:
 1708              	.LBE499:
 1709              	.LBE498:
 1710              		.loc 2 56 0
 1711 0052 488B45B8 		mov	rax, QWORD PTR -72[rbp]	 # t.m_stop.QuadPart, t.m_stop.QuadPart
 1712              	.LBE495:
 1713              	.LBE494:
 1714              	.LBE502:
 1715              	.LBE504:
 1716              	.LBB505:
 1717              	.LBB506:
  25:timer.h       ****     }
 1718              		.loc 2 25 0
 1719 0056 4C89F1   		mov	rcx, r14	 #, tmp208
 1720              	.LBE506:
 1721              	.LBE505:
 1722              	.LBB508:
 1723              	.LBB503:
 1724              	.LBB501:
 1725              	.LBB500:
 1726              		.loc 2 56 0
 1727 0059 482B45B0 		sub	rax, QWORD PTR -80[rbp]	 # D.77523, t.m_start.QuadPart
 1728              	.LBE500:
 1729              	.LBE501:
  46:timer.h       ****     }
 1730              		.loc 2 46 0
 1731 005d 488945C8 		mov	QWORD PTR -56[rbp], rax	 # t.m_overhead, D.77523
 1732              	.LVL166:
 1733              	.LBE503:
 1734              	.LBE508:
 1735              	.LBB509:
 1736              	.LBB507:
  25:timer.h       ****     }
 1737              		.loc 2 25 0
 1738 0061 4889D8   		mov	rax, rbx	 # tmp207, tmp207
 1739 0064 FFD0     		call	rax	 # tmp207
 1740              	.LVL167:
 1741              	.LBE507:
 1742              	.LBE509:
  14:RadixSort.cpp ****     for (size_t i=0; i<size; i++)
 1743              		.loc 1 14 0
 1744 0066 B8100008 		mov	eax, 524304	 # tmp154,
 1744      00
 1745 006b E8000000 		call	___chkstk_ms
 1745      00
 1746 0070 31D2     		xor	edx, edx	 #
 1747 0072 41B8F8FF 		mov	r8d, 524280	 #,
 1747      0700
 1748 0078 4829C4   		sub	rsp, rax	 #, tmp154
 1749 007b 488D4424 		lea	rax, 39[rsp]	 # tmp155,
 1749      27
 1750 0080 48C1E803 		shr	rax, 3	 # tmp156,
 1751 0084 488D1CC5 		lea	rbx, 0[0+rax*8]	 # tmp157,
 1751      00000000 
 1752              	.LVL168:
 1753 008c 48C704C5 		mov	QWORD PTR 0[0+rax*8], 0	 # MEM[(size_t *)cnt.22_18],
 1753      00000000 
 1753      00000000 
 1754 0098 488D4B08 		lea	rcx, 8[rbx]	 # D.77515,
 1755 009c E8000000 		call	memset	 #
 1755      00
 1756              	.LVL169:
 1757 00a1 488D0CBE 		lea	rcx, [rsi+rdi*4]	 # D.77516,
 1758              	.LBB510:
  15:RadixSort.cpp ****         cnt[key(InKey[i])]++;
 1759              		.loc 1 15 0
 1760 00a5 4885FF   		test	rdi, rdi	 # size
 1761 00a8 4889F0   		mov	rax, rsi	 # ivtmp.150, InKey
 1762 00ab 7414     		je	.L66	 #,
 1763              	.LVL170:
 1764 00ad 0F1F00   		.p2align 4,,10
 1765              	.L71:
 1766              	.LBB511:
 1767              	.LBB512:
  10:RadixSort.cpp **** 
 1768              		.loc 1 10 0 discriminator 3
 1769 00b0 0FB710   		movzx	edx, WORD PTR [rax]	 # D.77514, MEM[base: _14, offset: 0B]
 1770 00b3 4883C004 		add	rax, 4	 # ivtmp.150,
 1771              	.LVL171:
 1772              	.LBE512:
 1773              	.LBE511:
  16:RadixSort.cpp ****     t.Stop();  double speed = size/(t.Elapsed()/1000);
 1774              		.loc 1 16 0 discriminator 3
 1775 00b7 488304D3 		add	QWORD PTR [rbx+rdx*8], 1	 # MEM[(size_t[0:D.77066] *)_26],
 1775      01
  15:RadixSort.cpp ****         cnt[key(InKey[i])]++;
 1776              		.loc 1 15 0 discriminator 3
 1777 00bc 4839C8   		cmp	rax, rcx	 # ivtmp.150, D.77516
 1778 00bf 75EF     		jne	.L71	 #,
 1779              	.LVL172:
 1780              	.L66:
 1781              	.LBE510:
 1782              	.LBB513:
 1783              	.LBB514:
  30:timer.h       ****     }
 1784              		.loc 2 30 0
 1785 00c1 498D4E08 		lea	rcx, 8[r14]	 # tmp164,
 1786 00c5 488B45A8 		mov	rax, QWORD PTR -88[rbp]	 # tmp207, %sfp
 1787 00c9 FFD0     		call	rax	 # tmp207
 1788              	.LVL173:
 1789              	.LBE514:
 1790              	.LBE513:
 1791              	.LBB515:
 1792              	.LBB516:
  36:timer.h       ****                                           * 1000.0 / m_freq.QuadPart;
 1793              		.loc 2 36 0
 1794 00cb 488B45B8 		mov	rax, QWORD PTR -72[rbp]	 # t.m_stop.QuadPart, t.m_stop.QuadPart
  37:timer.h       ****     }
 1795              		.loc 2 37 0
 1796 00cf 660FEFC0 		pxor	xmm0, xmm0	 # D.77519
 1797 00d3 660FEFC9 		pxor	xmm1, xmm1	 # D.77519
 1798 00d7 F2480F2A 		cvtsi2sdq	xmm1, QWORD PTR -64[rbp]	 # D.77519, t.m_freq.QuadPart
 1798      4DC0
  36:timer.h       ****                                           * 1000.0 / m_freq.QuadPart;
 1799              		.loc 2 36 0
 1800 00dd 482B45B0 		sub	rax, QWORD PTR -80[rbp]	 # D.77518, t.m_start.QuadPart
 1801 00e1 482B45C8 		sub	rax, QWORD PTR -56[rbp]	 # D.77518, t.m_overhead
 1802              	.LBE516:
 1803              	.LBE515:
  17:RadixSort.cpp ****     printf("Counting: %.3lf milliseconds = %.3lf MB/s = %.3lf MiB/s\n", t.Elapsed(), speed/1e6, spe
 1804              		.loc 1 17 0
 1805 00e5 4885FF   		test	rdi, rdi	 # size
 1806              	.LBB518:
 1807              	.LBB517:
  37:timer.h       ****     }
 1808              		.loc 2 37 0
 1809 00e8 F20F1015 		movsd	xmm2, QWORD PTR .LC0[rip]	 # tmp209,
 1809      80000000 
 1810 00f0 F2480F2A 		cvtsi2sdq	xmm0, rax	 # D.77519, D.77518
 1810      C0
 1811 00f5 F20F59C2 		mulsd	xmm0, xmm2	 # D.77519, tmp209
 1812 00f9 F20F5EC1 		divsd	xmm0, xmm1	 # D.77519, D.77519
 1813              	.LBE517:
 1814              	.LBE518:
  17:RadixSort.cpp ****     printf("Counting: %.3lf milliseconds = %.3lf MB/s = %.3lf MiB/s\n", t.Elapsed(), speed/1e6, spe
 1815              		.loc 1 17 0
 1816 00fd 0F88BA00 		js	.L62	 #,
 1816      0000
 1817 0103 660FEFC9 		pxor	xmm1, xmm1	 # D.77519
 1818 0107 F2480F2A 		cvtsi2sdq	xmm1, rdi	 # D.77519, size
 1818      CF
 1819              	.L63:
 1820 010c 660F28E0 		movapd	xmm4, xmm0	 # D.77519, D.77519
  18:RadixSort.cpp ****     
 1821              		.loc 1 18 0
 1822 0110 66480F7E 		movq	rdx, xmm0	 #, D.77519
 1822      C2
 1823 0115 488D0D00 		lea	rcx, .LC3[rip]	 #,
 1823      000000
  17:RadixSort.cpp ****     printf("Counting: %.3lf milliseconds = %.3lf MB/s = %.3lf MiB/s\n", t.Elapsed(), speed/1e6, spe
 1824              		.loc 1 17 0
 1825 011c F20F5EE2 		divsd	xmm4, xmm2	 # D.77519, tmp209
  18:RadixSort.cpp ****     
 1826              		.loc 1 18 0
 1827 0120 F20F1015 		movsd	xmm2, QWORD PTR .LC1[rip]	 # D.77519,
 1827      88000000 
  17:RadixSort.cpp ****     printf("Counting: %.3lf milliseconds = %.3lf MB/s = %.3lf MiB/s\n", t.Elapsed(), speed/1e6, spe
 1828              		.loc 1 17 0
 1829 0128 F20F5ECC 		divsd	xmm1, xmm4	 # speed, D.77519
 1830              	.LVL174:
  18:RadixSort.cpp ****     
 1831              		.loc 1 18 0
 1832 012c F20F59D1 		mulsd	xmm2, xmm1	 # D.77519, speed
 1833 0130 F20F5E0D 		divsd	xmm1, QWORD PTR .LC2[rip]	 # D.77519,
 1833      90000000 
 1834              	.LVL175:
 1835 0138 66490F7E 		movq	r8, xmm1	 #, D.77519
 1835      C8
 1836 013d 660F28DA 		movapd	xmm3, xmm2	 #, D.77519
 1837 0141 66490F7E 		movq	r9, xmm2	 #, D.77519
 1837      D1
 1838 0146 660F28D1 		movapd	xmm2, xmm1	 #, D.77519
 1839 014a 660F28C8 		movapd	xmm1, xmm0	 #, D.77519
 1840 014e E8000000 		call	printf	 #
 1840      00
 1841              	.LVL176:
 1842 0153 4889D8   		mov	rax, rbx	 # ivtmp.145, tmp157
 1843 0156 31D2     		xor	edx, edx	 # sum
 1844 0158 4C8D8300 		lea	r8, 524288[rbx]	 # D.77516,
 1844      000800
 1845              	.LVL177:
 1846 015f 90       		.p2align 4,,10
 1847              	.L64:
 1848              	.LBB519:
 1849              	.LBB520:
  23:RadixSort.cpp ****         cnt[i] = sum;
 1850              		.loc 1 23 0 discriminator 3
 1851 0160 4889D1   		mov	rcx, rdx	 # sum, sum
 1852 0163 480308   		add	rcx, QWORD PTR [rax]	 # sum, MEM[base: _98, offset: 0B]
 1853              	.LVL178:
  24:RadixSort.cpp ****         sum = tmp;
 1854              		.loc 1 24 0 discriminator 3
 1855 0166 488910   		mov	QWORD PTR [rax], rdx	 # MEM[base: _98, offset: 0B], sum
 1856              	.LVL179:
 1857 0169 4883C008 		add	rax, 8	 # ivtmp.145,
 1858              	.LBE520:
  21:RadixSort.cpp ****     {
 1859              		.loc 1 21 0 discriminator 3
 1860 016d 4C39C0   		cmp	rax, r8	 # ivtmp.145, D.77516
 1861              	.LBB521:
  25:RadixSort.cpp ****     }
 1862              		.loc 1 25 0 discriminator 3
 1863 0170 4889CA   		mov	rdx, rcx	 # sum, sum
 1864              	.LBE521:
  21:RadixSort.cpp ****     {
 1865              		.loc 1 21 0 discriminator 3
 1866 0173 75EB     		jne	.L64	 #,
 1867              	.LVL180:
 1868              	.LBE519:
 1869              	.LBB522:
  29:RadixSort.cpp ****     {
 1870              		.loc 1 29 0 discriminator 1
 1871 0175 31C0     		xor	eax, eax	 # i
 1872 0177 4885FF   		test	rdi, rdi	 # size
 1873 017a 7430     		je	.L60	 #,
 1874              	.LVL181:
 1875 017c 0F1F4000 		.p2align 4,,10
 1876              	.L70:
 1877              	.LBB523:
 1878              	.LBB524:
 1879              	.LBB525:
  10:RadixSort.cpp **** 
 1880              		.loc 1 10 0 discriminator 3
 1881 0180 0FB71486 		movzx	edx, WORD PTR [rsi+rax*4]	 # D.77514, MEM[base: InKey_24(D), index: i_7, step: 4, offset: 0B
 1882              	.LBE525:
 1883              	.LBE524:
  32:RadixSort.cpp ****         OutData[cnt[bin]] = InData[i];
 1884              		.loc 1 32 0 discriminator 3
 1885 0184 448B0486 		mov	r8d, DWORD PTR [rsi+rax*4]	 # D.77521, MEM[base: InKey_24(D), index: i_7, step: 4, offset: 0B]
 1886 0188 488D0CD3 		lea	rcx, [rbx+rdx*8]	 # D.77515,
 1887 018c 488B11   		mov	rdx, QWORD PTR [rcx]	 # D.77514, MEM[(size_t[0:D.77066] *)_104]
 1888 018f 45894495 		mov	DWORD PTR 0[r13+rdx*4], r8d	 # *_49, D.77521
 1888      00
  33:RadixSort.cpp ****         cnt[bin]++;
 1889              		.loc 1 33 0 discriminator 3
 1890 0194 458B0484 		mov	r8d, DWORD PTR [r12+rax*4]	 # D.77521, MEM[base: InData_55(D), index: i_7, step: 4, offset: 0B
 1891              	.LBE523:
  29:RadixSort.cpp ****     {
 1892              		.loc 1 29 0 discriminator 3
 1893 0198 4883C001 		add	rax, 1	 # i,
 1894              	.LVL182:
 1895              	.LBB526:
  33:RadixSort.cpp ****         cnt[bin]++;
 1896              		.loc 1 33 0 discriminator 3
 1897 019c 45890497 		mov	DWORD PTR [r15+rdx*4], r8d	 # *_53, D.77521
  34:RadixSort.cpp ****     }
 1898              		.loc 1 34 0 discriminator 3
 1899 01a0 4883C201 		add	rdx, 1	 # tmp206,
 1900              	.LBE526:
  29:RadixSort.cpp ****     {
 1901              		.loc 1 29 0 discriminator 3
 1902 01a4 4839F8   		cmp	rax, rdi	 # i, size
 1903              	.LBB527:
  34:RadixSort.cpp ****     }
 1904              		.loc 1 34 0 discriminator 3
 1905 01a7 488911   		mov	QWORD PTR [rcx], rdx	 # MEM[(size_t[0:D.77066] *)_104], tmp206
 1906              	.LBE527:
  29:RadixSort.cpp ****     {
 1907              		.loc 1 29 0 discriminator 3
 1908 01aa 75D4     		jne	.L70	 #,
 1909              	.LVL183:
 1910              	.L60:
 1911              	.LBE522:
 1912              	.LBE528:
 1913              		.loc 1 36 0
 1914 01ac 488D65D8 		lea	rsp, -40[rbp]	 #,
 1915 01b0 5B       		pop	rbx	 #
 1916              		.cfi_remember_state
 1917              		.cfi_restore 3
 1918              	.LVL184:
 1919 01b1 5E       		pop	rsi	 #
 1920              		.cfi_restore 4
 1921              	.LVL185:
 1922 01b2 5F       		pop	rdi	 #
 1923              		.cfi_restore 5
 1924 01b3 415C     		pop	r12	 #
 1925              		.cfi_restore 12
 1926              	.LVL186:
 1927 01b5 415D     		pop	r13	 #
 1928              		.cfi_restore 13
 1929              	.LVL187:
 1930 01b7 415E     		pop	r14	 #
 1931              		.cfi_restore 14
 1932              	.LVL188:
 1933 01b9 415F     		pop	r15	 #
 1934              		.cfi_restore 15
 1935              	.LVL189:
 1936 01bb 5D       		pop	rbp	 #
 1937              		.cfi_restore 6
 1938              		.cfi_def_cfa 7, -24
 1939 01bc C3       		ret
 1940              	.LVL190:
 1941              	.L62:
 1942              		.cfi_restore_state
 1943              	.LBB529:
  17:RadixSort.cpp ****     printf("Counting: %.3lf milliseconds = %.3lf MB/s = %.3lf MiB/s\n", t.Elapsed(), speed/1e6, spe
 1944              		.loc 1 17 0
 1945 01bd 4889F8   		mov	rax, rdi	 # tmp175, size
 1946 01c0 4889FA   		mov	rdx, rdi	 # tmp176, size
 1947 01c3 660FEFC9 		pxor	xmm1, xmm1	 # tmp174
 1948 01c7 48D1E8   		shr	rax	 # tmp175
 1949 01ca 83E201   		and	edx, 1	 # tmp176,
 1950 01cd 4809D0   		or	rax, rdx	 # tmp175, tmp176
 1951 01d0 F2480F2A 		cvtsi2sdq	xmm1, rax	 # tmp174, tmp175
 1951      C8
 1952 01d5 F20F58C9 		addsd	xmm1, xmm1	 # D.77519, tmp174
 1953 01d9 E92EFFFF 		jmp	.L63	 #
 1953      FF
 1954              	.LBE529:
 1955              		.cfi_endproc
 1956              	.LFE3015:
 1957              		.seh_endproc
 1958 01de 9090     		.section	.text$_Z13RadixSortPassIjjLi0ELi20EEvPKT_PKT0_PS0_PS3_y,"x"
 1959              		.linkonce discard
 1960              		.p2align 4,,15
 1961              		.globl	_Z13RadixSortPassIjjLi0ELi20EEvPKT_PKT0_PS0_PS3_y
 1963              		.seh_proc	_Z13RadixSortPassIjjLi0ELi20EEvPKT_PKT0_PS0_PS3_y
 1964              	_Z13RadixSortPassIjjLi0ELi20EEvPKT_PKT0_PS0_PS3_y:
 1965              	.LFB3017:
   6:RadixSort.cpp **** {
 1966              		.loc 1 6 0
 1967              		.cfi_startproc
 1968              	.LVL191:
 1969 0000 55       		push	rbp	 #
 1970              		.seh_pushreg	rbp
 1971              		.cfi_def_cfa_offset 16
 1972              		.cfi_offset 6, -16
 1973 0001 4157     		push	r15	 #
 1974              		.seh_pushreg	r15
 1975              		.cfi_def_cfa_offset 24
 1976              		.cfi_offset 15, -24
 1977 0003 4156     		push	r14	 #
 1978              		.seh_pushreg	r14
 1979              		.cfi_def_cfa_offset 32
 1980              		.cfi_offset 14, -32
 1981 0005 4155     		push	r13	 #
 1982              		.seh_pushreg	r13
 1983              		.cfi_def_cfa_offset 40
 1984              		.cfi_offset 13, -40
 1985 0007 4154     		push	r12	 #
 1986              		.seh_pushreg	r12
 1987              		.cfi_def_cfa_offset 48
 1988              		.cfi_offset 12, -48
 1989 0009 57       		push	rdi	 #
 1990              		.seh_pushreg	rdi
 1991              		.cfi_def_cfa_offset 56
 1992              		.cfi_offset 5, -56
 1993 000a 56       		push	rsi	 #
 1994              		.seh_pushreg	rsi
 1995              		.cfi_def_cfa_offset 64
 1996              		.cfi_offset 4, -64
 1997 000b 53       		push	rbx	 #
 1998              		.seh_pushreg	rbx
 1999              		.cfi_def_cfa_offset 72
 2000              		.cfi_offset 3, -72
 2001 000c 4883EC58 		sub	rsp, 88	 #,
 2002              		.seh_stackalloc	88
 2003              		.cfi_def_cfa_offset 160
 2004 0010 488DAC24 		lea	rbp, 128[rsp]	 #,
 2004      80000000 
 2005              		.seh_setframe	rbp, 128
 2006              		.cfi_def_cfa 6, 32
 2007              		.seh_endprologue
 2008              	.LVL192:
   6:RadixSort.cpp **** {
 2009              		.loc 1 6 0
 2010 0018 488B7D40 		mov	rdi, QWORD PTR 64[rbp]	 # size, size
 2011              	.LBB555:
 2012              	.LBB556:
 2013              	.LBB557:
  43:timer.h       **** 
 2014              		.loc 2 43 0
 2015 001c 4C8D75B0 		lea	r14, -80[rbp]	 # tmp208,
 2016              	.LVL193:
 2017              	.LBE557:
 2018              	.LBE556:
 2019              	.LBE555:
   6:RadixSort.cpp **** {
 2020              		.loc 1 6 0
 2021 0020 4989D4   		mov	r12, rdx	 # InData, InData
 2022 0023 4D89C5   		mov	r13, r8	 # OutKey, OutKey
 2023 0026 4D89CF   		mov	r15, r9	 # OutData, OutData
 2024 0029 4889CE   		mov	rsi, rcx	 # InKey, InKey
 2025              	.LBB594:
 2026              	.LBB568:
 2027              	.LBB566:
  43:timer.h       **** 
 2028              		.loc 2 43 0
 2029 002c 498D4E10 		lea	rcx, 16[r14]	 # tmp140,
 2030              	.LVL194:
 2031 0030 FF150000 		call	[QWORD PTR __imp_QueryPerformanceFrequency[rip]]	 #
 2031      0000
 2032              	.LVL195:
 2033              	.LBB558:
 2034              	.LBB559:
 2035              	.LBB560:
 2036              	.LBB561:
  25:timer.h       ****     }
 2037              		.loc 2 25 0
 2038 0036 488B0500 		mov	rax, QWORD PTR __imp_QueryPerformanceCounter[rip]	 # tmp207,
 2038      000000
 2039 003d 4C89F1   		mov	rcx, r14	 #, tmp208
 2040 0040 4889C3   		mov	rbx, rax	 # tmp207, tmp207
 2041 0043 488945A8 		mov	QWORD PTR -88[rbp], rax	 # %sfp, tmp207
 2042 0047 FFD0     		call	rax	 # tmp207
 2043              	.LVL196:
 2044              	.LBE561:
 2045              	.LBE560:
 2046              	.LBB562:
 2047              	.LBB563:
  30:timer.h       ****     }
 2048              		.loc 2 30 0
 2049 0049 498D4E08 		lea	rcx, 8[r14]	 # tmp145,
 2050 004d 4889D8   		mov	rax, rbx	 # tmp207, tmp207
 2051 0050 FFD0     		call	rax	 # tmp207
 2052              	.LVL197:
 2053              	.LBE563:
 2054              	.LBE562:
 2055              		.loc 2 56 0
 2056 0052 488B45B8 		mov	rax, QWORD PTR -72[rbp]	 # t.m_stop.QuadPart, t.m_stop.QuadPart
 2057              	.LBE559:
 2058              	.LBE558:
 2059              	.LBE566:
 2060              	.LBE568:
 2061              	.LBB569:
 2062              	.LBB570:
  25:timer.h       ****     }
 2063              		.loc 2 25 0
 2064 0056 4C89F1   		mov	rcx, r14	 #, tmp208
 2065              	.LBE570:
 2066              	.LBE569:
 2067              	.LBB572:
 2068              	.LBB567:
 2069              	.LBB565:
 2070              	.LBB564:
 2071              		.loc 2 56 0
 2072 0059 482B45B0 		sub	rax, QWORD PTR -80[rbp]	 # D.77563, t.m_start.QuadPart
 2073              	.LBE564:
 2074              	.LBE565:
  46:timer.h       ****     }
 2075              		.loc 2 46 0
 2076 005d 488945C8 		mov	QWORD PTR -56[rbp], rax	 # t.m_overhead, D.77563
 2077              	.LVL198:
 2078              	.LBE567:
 2079              	.LBE572:
 2080              	.LBB573:
 2081              	.LBB571:
  25:timer.h       ****     }
 2082              		.loc 2 25 0
 2083 0061 4889D8   		mov	rax, rbx	 # tmp207, tmp207
 2084 0064 FFD0     		call	rax	 # tmp207
 2085              	.LVL199:
 2086              	.LBE571:
 2087              	.LBE573:
  14:RadixSort.cpp ****     for (size_t i=0; i<size; i++)
 2088              		.loc 1 14 0
 2089 0066 B8100080 		mov	eax, 8388624	 # tmp154,
 2089      00
 2090 006b E8000000 		call	___chkstk_ms
 2090      00
 2091 0070 31D2     		xor	edx, edx	 #
 2092 0072 41B8F8FF 		mov	r8d, 8388600	 #,
 2092      7F00
 2093 0078 4829C4   		sub	rsp, rax	 #, tmp154
 2094 007b 488D4424 		lea	rax, 39[rsp]	 # tmp155,
 2094      27
 2095 0080 48C1E803 		shr	rax, 3	 # tmp156,
 2096 0084 488D1CC5 		lea	rbx, 0[0+rax*8]	 # tmp157,
 2096      00000000 
 2097              	.LVL200:
 2098 008c 48C704C5 		mov	QWORD PTR 0[0+rax*8], 0	 # MEM[(size_t *)cnt.27_18],
 2098      00000000 
 2098      00000000 
 2099 0098 488D4B08 		lea	rcx, 8[rbx]	 # D.77555,
 2100 009c E8000000 		call	memset	 #
 2100      00
 2101              	.LVL201:
 2102 00a1 488D0CBE 		lea	rcx, [rsi+rdi*4]	 # D.77556,
 2103              	.LBB574:
  15:RadixSort.cpp ****         cnt[key(InKey[i])]++;
 2104              		.loc 1 15 0
 2105 00a5 4885FF   		test	rdi, rdi	 # size
 2106 00a8 4889F2   		mov	rdx, rsi	 # ivtmp.171, InKey
 2107 00ab 7419     		je	.L81	 #,
 2108              	.LVL202:
 2109 00ad 0F1F00   		.p2align 4,,10
 2110              	.L86:
 2111              	.LBB575:
 2112              	.LBB576:
  10:RadixSort.cpp **** 
 2113              		.loc 1 10 0 discriminator 3
 2114 00b0 488B02   		mov	rax, QWORD PTR [rdx]	 # D.77554, MEM[base: _14, offset: 0B]
 2115 00b3 4883C204 		add	rdx, 4	 # ivtmp.171,
 2116              	.LVL203:
 2117 00b7 25FFFF0F 		and	eax, 1048575	 # D.77554,
 2117      00
 2118              	.LBE576:
 2119              	.LBE575:
  16:RadixSort.cpp ****     t.Stop();  double speed = size/(t.Elapsed()/1000);
 2120              		.loc 1 16 0 discriminator 3
 2121 00bc 488304C3 		add	QWORD PTR [rbx+rax*8], 1	 # MEM[(size_t[0:D.77108] *)_26],
 2121      01
  15:RadixSort.cpp ****         cnt[key(InKey[i])]++;
 2122              		.loc 1 15 0 discriminator 3
 2123 00c1 4839CA   		cmp	rdx, rcx	 # ivtmp.171, D.77556
 2124 00c4 75EA     		jne	.L86	 #,
 2125              	.LVL204:
 2126              	.L81:
 2127              	.LBE574:
 2128              	.LBB577:
 2129              	.LBB578:
  30:timer.h       ****     }
 2130              		.loc 2 30 0
 2131 00c6 498D4E08 		lea	rcx, 8[r14]	 # tmp164,
 2132 00ca 488B45A8 		mov	rax, QWORD PTR -88[rbp]	 # tmp207, %sfp
 2133 00ce FFD0     		call	rax	 # tmp207
 2134              	.LVL205:
 2135              	.LBE578:
 2136              	.LBE577:
 2137              	.LBB579:
 2138              	.LBB580:
  36:timer.h       ****                                           * 1000.0 / m_freq.QuadPart;
 2139              		.loc 2 36 0
 2140 00d0 488B45B8 		mov	rax, QWORD PTR -72[rbp]	 # t.m_stop.QuadPart, t.m_stop.QuadPart
  37:timer.h       ****     }
 2141              		.loc 2 37 0
 2142 00d4 660FEFC0 		pxor	xmm0, xmm0	 # D.77559
 2143 00d8 660FEFC9 		pxor	xmm1, xmm1	 # D.77559
 2144 00dc F2480F2A 		cvtsi2sdq	xmm1, QWORD PTR -64[rbp]	 # D.77559, t.m_freq.QuadPart
 2144      4DC0
  36:timer.h       ****                                           * 1000.0 / m_freq.QuadPart;
 2145              		.loc 2 36 0
 2146 00e2 482B45B0 		sub	rax, QWORD PTR -80[rbp]	 # D.77558, t.m_start.QuadPart
 2147 00e6 482B45C8 		sub	rax, QWORD PTR -56[rbp]	 # D.77558, t.m_overhead
 2148              	.LBE580:
 2149              	.LBE579:
  17:RadixSort.cpp ****     printf("Counting: %.3lf milliseconds = %.3lf MB/s = %.3lf MiB/s\n", t.Elapsed(), speed/1e6, spe
 2150              		.loc 1 17 0
 2151 00ea 4885FF   		test	rdi, rdi	 # size
 2152              	.LBB582:
 2153              	.LBB581:
  37:timer.h       ****     }
 2154              		.loc 2 37 0
 2155 00ed F20F1015 		movsd	xmm2, QWORD PTR .LC0[rip]	 # tmp209,
 2155      80000000 
 2156 00f5 F2480F2A 		cvtsi2sdq	xmm0, rax	 # D.77559, D.77558
 2156      C0
 2157 00fa F20F59C2 		mulsd	xmm0, xmm2	 # D.77559, tmp209
 2158 00fe F20F5EC1 		divsd	xmm0, xmm1	 # D.77559, D.77559
 2159              	.LBE581:
 2160              	.LBE582:
  17:RadixSort.cpp ****     printf("Counting: %.3lf milliseconds = %.3lf MB/s = %.3lf MiB/s\n", t.Elapsed(), speed/1e6, spe
 2161              		.loc 1 17 0
 2162 0102 0F88BB00 		js	.L77	 #,
 2162      0000
 2163 0108 660FEFC9 		pxor	xmm1, xmm1	 # D.77559
 2164 010c F2480F2A 		cvtsi2sdq	xmm1, rdi	 # D.77559, size
 2164      CF
 2165              	.L78:
 2166 0111 660F28E0 		movapd	xmm4, xmm0	 # D.77559, D.77559
  18:RadixSort.cpp ****     
 2167              		.loc 1 18 0
 2168 0115 66480F7E 		movq	rdx, xmm0	 #, D.77559
 2168      C2
 2169 011a 488D0D00 		lea	rcx, .LC3[rip]	 #,
 2169      000000
  17:RadixSort.cpp ****     printf("Counting: %.3lf milliseconds = %.3lf MB/s = %.3lf MiB/s\n", t.Elapsed(), speed/1e6, spe
 2170              		.loc 1 17 0
 2171 0121 F20F5EE2 		divsd	xmm4, xmm2	 # D.77559, tmp209
  18:RadixSort.cpp ****     
 2172              		.loc 1 18 0
 2173 0125 F20F1015 		movsd	xmm2, QWORD PTR .LC1[rip]	 # D.77559,
 2173      88000000 
  17:RadixSort.cpp ****     printf("Counting: %.3lf milliseconds = %.3lf MB/s = %.3lf MiB/s\n", t.Elapsed(), speed/1e6, spe
 2174              		.loc 1 17 0
 2175 012d F20F5ECC 		divsd	xmm1, xmm4	 # speed, D.77559
 2176              	.LVL206:
  18:RadixSort.cpp ****     
 2177              		.loc 1 18 0
 2178 0131 F20F59D1 		mulsd	xmm2, xmm1	 # D.77559, speed
 2179 0135 F20F5E0D 		divsd	xmm1, QWORD PTR .LC2[rip]	 # D.77559,
 2179      90000000 
 2180              	.LVL207:
 2181 013d 66490F7E 		movq	r8, xmm1	 #, D.77559
 2181      C8
 2182 0142 660F28DA 		movapd	xmm3, xmm2	 #, D.77559
 2183 0146 66490F7E 		movq	r9, xmm2	 #, D.77559
 2183      D1
 2184 014b 660F28D1 		movapd	xmm2, xmm1	 #, D.77559
 2185 014f 660F28C8 		movapd	xmm1, xmm0	 #, D.77559
 2186 0153 E8000000 		call	printf	 #
 2186      00
 2187              	.LVL208:
 2188 0158 4889D8   		mov	rax, rbx	 # ivtmp.166, tmp157
 2189 015b 31D2     		xor	edx, edx	 # sum
 2190 015d 4C8D8300 		lea	r8, 8388608[rbx]	 # D.77556,
 2190      008000
 2191              	.LVL209:
 2192              		.p2align 4,,10
 2193              	.L79:
 2194              	.LBB583:
 2195              	.LBB584:
  23:RadixSort.cpp ****         cnt[i] = sum;
 2196              		.loc 1 23 0 discriminator 3
 2197 0164 4889D1   		mov	rcx, rdx	 # sum, sum
 2198 0167 480308   		add	rcx, QWORD PTR [rax]	 # sum, MEM[base: _98, offset: 0B]
 2199              	.LVL210:
  24:RadixSort.cpp ****         sum = tmp;
 2200              		.loc 1 24 0 discriminator 3
 2201 016a 488910   		mov	QWORD PTR [rax], rdx	 # MEM[base: _98, offset: 0B], sum
 2202              	.LVL211:
 2203 016d 4883C008 		add	rax, 8	 # ivtmp.166,
 2204              	.LBE584:
  21:RadixSort.cpp ****     {
 2205              		.loc 1 21 0 discriminator 3
 2206 0171 4C39C0   		cmp	rax, r8	 # ivtmp.166, D.77556
 2207              	.LBB585:
  25:RadixSort.cpp ****     }
 2208              		.loc 1 25 0 discriminator 3
 2209 0174 4889CA   		mov	rdx, rcx	 # sum, sum
 2210              	.LBE585:
  21:RadixSort.cpp ****     {
 2211              		.loc 1 21 0 discriminator 3
 2212 0177 75EB     		jne	.L79	 #,
 2213              	.LVL212:
 2214              	.LBE583:
 2215              	.LBB586:
  29:RadixSort.cpp ****     {
 2216              		.loc 1 29 0 discriminator 1
 2217 0179 31C0     		xor	eax, eax	 # i
 2218 017b 4885FF   		test	rdi, rdi	 # size
 2219 017e 7432     		je	.L75	 #,
 2220              	.LVL213:
 2221              		.p2align 4,,10
 2222              	.L85:
 2223              	.LBB587:
 2224              	.LBB588:
 2225              	.LBB589:
  10:RadixSort.cpp **** 
 2226              		.loc 1 10 0 discriminator 3
 2227 0180 488B1486 		mov	rdx, QWORD PTR [rsi+rax*4]	 # D.77554, MEM[base: InKey_24(D), index: i_7, step: 4, offset: 0B]
 2228              	.LBE589:
 2229              	.LBE588:
  32:RadixSort.cpp ****         OutData[cnt[bin]] = InData[i];
 2230              		.loc 1 32 0 discriminator 3
 2231 0184 448B0486 		mov	r8d, DWORD PTR [rsi+rax*4]	 # D.77561, MEM[base: InKey_24(D), index: i_7, step: 4, offset: 0B]
 2232              	.LBB591:
 2233              	.LBB590:
  10:RadixSort.cpp **** 
 2234              		.loc 1 10 0 discriminator 3
 2235 0188 81E2FFFF 		and	edx, 1048575	 # D.77554,
 2235      0F00
 2236 018e 488D0CD3 		lea	rcx, [rbx+rdx*8]	 # D.77555,
 2237              	.LBE590:
 2238              	.LBE591:
  32:RadixSort.cpp ****         OutData[cnt[bin]] = InData[i];
 2239              		.loc 1 32 0 discriminator 3
 2240 0192 488B11   		mov	rdx, QWORD PTR [rcx]	 # D.77554, MEM[(size_t[0:D.77108] *)_104]
 2241 0195 45894495 		mov	DWORD PTR 0[r13+rdx*4], r8d	 # *_49, D.77561
 2241      00
  33:RadixSort.cpp ****         cnt[bin]++;
 2242              		.loc 1 33 0 discriminator 3
 2243 019a 458B0484 		mov	r8d, DWORD PTR [r12+rax*4]	 # D.77561, MEM[base: InData_55(D), index: i_7, step: 4, offset: 0B
 2244              	.LBE587:
  29:RadixSort.cpp ****     {
 2245              		.loc 1 29 0 discriminator 3
 2246 019e 4883C001 		add	rax, 1	 # i,
 2247              	.LVL214:
 2248              	.LBB592:
  33:RadixSort.cpp ****         cnt[bin]++;
 2249              		.loc 1 33 0 discriminator 3
 2250 01a2 45890497 		mov	DWORD PTR [r15+rdx*4], r8d	 # *_53, D.77561
  34:RadixSort.cpp ****     }
 2251              		.loc 1 34 0 discriminator 3
 2252 01a6 4883C201 		add	rdx, 1	 # tmp206,
 2253              	.LBE592:
  29:RadixSort.cpp ****     {
 2254              		.loc 1 29 0 discriminator 3
 2255 01aa 4839F8   		cmp	rax, rdi	 # i, size
 2256              	.LBB593:
  34:RadixSort.cpp ****     }
 2257              		.loc 1 34 0 discriminator 3
 2258 01ad 488911   		mov	QWORD PTR [rcx], rdx	 # MEM[(size_t[0:D.77108] *)_104], tmp206
 2259              	.LBE593:
  29:RadixSort.cpp ****     {
 2260              		.loc 1 29 0 discriminator 3
 2261 01b0 75CE     		jne	.L85	 #,
 2262              	.LVL215:
 2263              	.L75:
 2264              	.LBE586:
 2265              	.LBE594:
 2266              		.loc 1 36 0
 2267 01b2 488D65D8 		lea	rsp, -40[rbp]	 #,
 2268 01b6 5B       		pop	rbx	 #
 2269              		.cfi_remember_state
 2270              		.cfi_restore 3
 2271              	.LVL216:
 2272 01b7 5E       		pop	rsi	 #
 2273              		.cfi_restore 4
 2274              	.LVL217:
 2275 01b8 5F       		pop	rdi	 #
 2276              		.cfi_restore 5
 2277 01b9 415C     		pop	r12	 #
 2278              		.cfi_restore 12
 2279              	.LVL218:
 2280 01bb 415D     		pop	r13	 #
 2281              		.cfi_restore 13
 2282              	.LVL219:
 2283 01bd 415E     		pop	r14	 #
 2284              		.cfi_restore 14
 2285              	.LVL220:
 2286 01bf 415F     		pop	r15	 #
 2287              		.cfi_restore 15
 2288              	.LVL221:
 2289 01c1 5D       		pop	rbp	 #
 2290              		.cfi_restore 6
 2291              		.cfi_def_cfa 7, -24
 2292 01c2 C3       		ret
 2293              	.LVL222:
 2294              	.L77:
 2295              		.cfi_restore_state
 2296              	.LBB595:
  17:RadixSort.cpp ****     printf("Counting: %.3lf milliseconds = %.3lf MB/s = %.3lf MiB/s\n", t.Elapsed(), speed/1e6, spe
 2297              		.loc 1 17 0
 2298 01c3 4889F8   		mov	rax, rdi	 # tmp175, size
 2299 01c6 4889FA   		mov	rdx, rdi	 # tmp176, size
 2300 01c9 660FEFC9 		pxor	xmm1, xmm1	 # tmp174
 2301 01cd 48D1E8   		shr	rax	 # tmp175
 2302 01d0 83E201   		and	edx, 1	 # tmp176,
 2303 01d3 4809D0   		or	rax, rdx	 # tmp175, tmp176
 2304 01d6 F2480F2A 		cvtsi2sdq	xmm1, rax	 # tmp174, tmp175
 2304      C8
 2305 01db F20F58C9 		addsd	xmm1, xmm1	 # D.77559, tmp174
 2306 01df E92DFFFF 		jmp	.L78	 #
 2306      FF
 2307              	.LBE595:
 2308              		.cfi_endproc
 2309              	.LFE3017:
 2310              		.seh_endproc
 2312 01e4 90909090 		.section .rdata,"dr"
 2312      90909090 
 2312      90909090 
 2313              	.LC8:
 2314 0039 536F7274 		.ascii "Sorting %d MiB\0"
 2314      696E6720 
 2314      2564204D 
 2314      694200
 2315              		.align 8
 2316              	.LC9:
 2317 0048 3A20252E 		.ascii ": %.3lf milliseconds = %.3lf MB/s = %.3lf MiB/s\12\12\0"
 2317      336C6620 
 2317      6D696C6C 
 2317      69736563 
 2317      6F6E6473 
 2318              		.section	.text.startup,"x"
 2319              		.p2align 4,,15
 2320              		.globl	main
 2322              		.seh_proc	main
 2323              	main:
 2324              	.LFB3006:
 2325              		.file 3 "TestRadixSort.cpp"
   1:TestRadixSort.cpp **** #include <stdio.h>
   2:TestRadixSort.cpp **** #include <stdint.h>
   3:TestRadixSort.cpp **** #include <memory.h>
   4:TestRadixSort.cpp **** #include "timer.h"
   5:TestRadixSort.cpp **** #include "RadixSort.cpp"
   6:TestRadixSort.cpp **** 
   7:TestRadixSort.cpp **** int main()
   8:TestRadixSort.cpp **** {
 2326              		.loc 3 8 0
 2327              		.cfi_startproc
 2328 0000 4157     		push	r15	 #
 2329              		.seh_pushreg	r15
 2330              		.cfi_def_cfa_offset 16
 2331              		.cfi_offset 15, -16
 2332 0002 4156     		push	r14	 #
 2333              		.seh_pushreg	r14
 2334              		.cfi_def_cfa_offset 24
 2335              		.cfi_offset 14, -24
 2336 0004 4155     		push	r13	 #
 2337              		.seh_pushreg	r13
 2338              		.cfi_def_cfa_offset 32
 2339              		.cfi_offset 13, -32
 2340 0006 4154     		push	r12	 #
 2341              		.seh_pushreg	r12
 2342              		.cfi_def_cfa_offset 40
 2343              		.cfi_offset 12, -40
 2344 0008 55       		push	rbp	 #
 2345              		.seh_pushreg	rbp
 2346              		.cfi_def_cfa_offset 48
 2347              		.cfi_offset 6, -48
 2348 0009 57       		push	rdi	 #
 2349              		.seh_pushreg	rdi
 2350              		.cfi_def_cfa_offset 56
 2351              		.cfi_offset 5, -56
 2352 000a 56       		push	rsi	 #
 2353              		.seh_pushreg	rsi
 2354              		.cfi_def_cfa_offset 64
 2355              		.cfi_offset 4, -64
 2356 000b 53       		push	rbx	 #
 2357              		.seh_pushreg	rbx
 2358              		.cfi_def_cfa_offset 72
 2359              		.cfi_offset 3, -72
 2360 000c 4881ECD8 		sub	rsp, 216	 #,
 2360      000000
 2361              		.seh_stackalloc	216
 2362              		.cfi_def_cfa_offset 288
 2363 0013 0F297424 		movaps	XMMWORD PTR 80[rsp], xmm6	 #,
 2363      50
 2364              		.seh_savexmm	xmm6, 80
 2365 0018 0F297C24 		movaps	XMMWORD PTR 96[rsp], xmm7	 #,
 2365      60
 2366              		.seh_savexmm	xmm7, 96
 2367 001d 440F2944 		movaps	XMMWORD PTR 112[rsp], xmm8	 #,
 2367      2470
 2368              		.seh_savexmm	xmm8, 112
 2369 0023 440F298C 		movaps	XMMWORD PTR 128[rsp], xmm9	 #,
 2369      24800000 
 2369      00
 2370              		.seh_savexmm	xmm9, 128
 2371 002c 440F2994 		movaps	XMMWORD PTR 144[rsp], xmm10	 #,
 2371      24900000 
 2371      00
 2372              		.seh_savexmm	xmm10, 144
 2373 0035 440F299C 		movaps	XMMWORD PTR 160[rsp], xmm11	 #,
 2373      24A00000 
 2373      00
 2374              		.seh_savexmm	xmm11, 160
 2375 003e 440F29A4 		movaps	XMMWORD PTR 176[rsp], xmm12	 #,
 2375      24B00000 
 2375      00
 2376              		.seh_savexmm	xmm12, 176
 2377 0047 440F29AC 		movaps	XMMWORD PTR 192[rsp], xmm13	 #,
 2377      24C00000 
 2377      00
 2378              		.seh_savexmm	xmm13, 192
 2379              		.cfi_offset 23, -208
 2380              		.cfi_offset 24, -192
 2381              		.cfi_offset 25, -176
 2382              		.cfi_offset 26, -160
 2383              		.cfi_offset 27, -144
 2384              		.cfi_offset 28, -128
 2385              		.cfi_offset 29, -112
 2386              		.cfi_offset 30, -96
 2387              		.seh_endprologue
 2388              		.loc 3 8 0
 2389 0050 E8000000 		call	__main	 #
 2389      00
 2390              	.LVL223:
 2391              	.LBB660:
 2392              	.LBB661:
 2393              	.LBB662:
  43:timer.h       **** 
 2394              		.loc 2 43 0
 2395 0055 488D5C24 		lea	rbx, 48[rsp]	 # tmp862,
 2395      30
 2396              	.LBE662:
 2397              	.LBE661:
   9:TestRadixSort.cpp ****     // BENCHMARK
  10:TestRadixSort.cpp ****     const uint64_t DATASET = uint64_t(100)<<20;
  11:TestRadixSort.cpp ****     using Key = uint32_t;  using Data = uint32_t;
  12:TestRadixSort.cpp ****     auto keys = new Key [DATASET],  outkeys = new Key [DATASET];
 2398              		.loc 3 12 0
 2399 005a B9000000 		mov	ecx, 419430400	 #,
 2399      19
 2400 005f E8000000 		call	_Znay	 #
 2400      00
 2401              	.LVL224:
 2402 0064 B9000000 		mov	ecx, 419430400	 #,
 2402      19
 2403 0069 4989C5   		mov	r13, rax	 # keys,
 2404              	.LVL225:
 2405 006c E8000000 		call	_Znay	 #
 2405      00
 2406              	.LVL226:
  13:TestRadixSort.cpp ****     auto data = new Data[DATASET],  outdata = new Data[DATASET];
 2407              		.loc 3 13 0
 2408 0071 B9000000 		mov	ecx, 419430400	 #,
 2408      19
 2409 0076 4D89EE   		mov	r14, r13	 # D.77731, keys
  12:TestRadixSort.cpp ****     auto data = new Data[DATASET],  outdata = new Data[DATASET];
 2410              		.loc 3 12 0
 2411 0079 4889C5   		mov	rbp, rax	 # outkeys,
 2412              	.LVL227:
 2413 007c 4183E60F 		and	r14d, 15	 # D.77731,
 2414              		.loc 3 13 0
 2415 0080 E8000000 		call	_Znay	 #
 2415      00
 2416              	.LVL228:
 2417 0085 B9000000 		mov	ecx, 419430400	 #,
 2417      19
 2418 008a 49C1EE02 		shr	r14, 2	 # D.77731,
 2419 008e 4889C7   		mov	rdi, rax	 # data,
 2420              	.LVL229:
 2421 0091 49F7DE   		neg	r14	 # D.77731
 2422 0094 E8000000 		call	_Znay	 #
 2422      00
 2423              	.LVL230:
 2424              	.LBB673:
 2425              	.LBB669:
  43:timer.h       **** 
 2426              		.loc 2 43 0
 2427 0099 488D4B10 		lea	rcx, 16[rbx]	 # tmp467,
 2428              	.LBE669:
 2429              	.LBE673:
 2430              		.loc 3 13 0
 2431 009d 4989C4   		mov	r12, rax	 # outdata,
 2432              	.LVL231:
 2433              	.LBB674:
 2434              	.LBB670:
  43:timer.h       **** 
 2435              		.loc 2 43 0
 2436 00a0 FF150000 		call	[QWORD PTR __imp_QueryPerformanceFrequency[rip]]	 #
 2436      0000
 2437              	.LVL232:
 2438              	.LBB663:
 2439              	.LBB664:
 2440              	.LBB665:
 2441              	.LBB666:
  25:timer.h       ****     }
 2442              		.loc 2 25 0
 2443 00a6 4889D9   		mov	rcx, rbx	 #, tmp862
 2444 00a9 488B3500 		mov	rsi, QWORD PTR __imp_QueryPerformanceCounter[rip]	 # tmp861,
 2444      000000
 2445 00b0 FFD6     		call	rsi	 # tmp861
 2446              	.LVL233:
 2447              	.LBE666:
 2448              	.LBE665:
 2449              	.LBB667:
 2450              	.LBB668:
  30:timer.h       ****     }
 2451              		.loc 2 30 0
 2452 00b2 488D4B08 		lea	rcx, 8[rbx]	 # tmp472,
 2453 00b6 FFD6     		call	rsi	 # tmp861
 2454              	.LVL234:
 2455              	.LBE668:
 2456              	.LBE667:
 2457              		.loc 2 56 0
 2458 00b8 488B4424 		mov	rax, QWORD PTR 56[rsp]	 # t.m_stop.QuadPart, t.m_stop.QuadPart
 2458      38
 2459 00bd 482B4424 		sub	rax, QWORD PTR 48[rsp]	 # D.77729, t.m_start.QuadPart
 2459      30
 2460 00c2 4183E603 		and	r14d, 3	 # prolog_loop_niters.271,
 2461              	.LBE664:
 2462              	.LBE663:
  46:timer.h       ****     }
 2463              		.loc 2 46 0
 2464 00c6 48894424 		mov	QWORD PTR 72[rsp], rax	 # t.m_overhead, D.77729
 2464      48
 2465              	.LVL235:
 2466 00cb 0F847B0B 		je	.L127	 #,
 2466      0000
 2467 00d1 4983FE01 		cmp	r14, 1	 # prolog_loop_niters.271,
 2468              	.LBE670:
 2469              	.LBE674:
 2470              	.LBB675:
  14:TestRadixSort.cpp ****     Timer t;  double speed;
  15:TestRadixSort.cpp **** 
  16:TestRadixSort.cpp ****     for (size_t i=0; i<DATASET; i++)
  17:TestRadixSort.cpp ****         keys[i] = i*123456791;
 2471              		.loc 3 17 0
 2472 00d5 41C74500 		mov	DWORD PTR 0[r13], 0	 # *keys_15,
 2472      00000000 
 2473              	.LVL236:
 2474 00dd 0F84750C 		je	.L128	 #,
 2474      0000
 2475 00e3 4983FE03 		cmp	r14, 3	 # prolog_loop_niters.271,
 2476 00e7 41C74504 		mov	DWORD PTR 4[r13], 123456791	 # MEM[(unsigned int *)keys_15 + 4B],
 2476      17CD5B07 
 2477              	.LVL237:
 2478 00ef 0F85740C 		jne	.L129	 #,
 2478      0000
 2479 00f5 41C74508 		mov	DWORD PTR 8[r13], 246913582	 # MEM[(unsigned int *)keys_15 + 8B],
 2479      2E9AB70E 
 2480              	.LVL238:
 2481 00fd 41B8FDFF 		mov	r8d, 104857597	 # D.77728,
 2481      3F06
  16:TestRadixSort.cpp ****         keys[i] = i*123456791;
 2482              		.loc 3 16 0
 2483 0103 41BF0300 		mov	r15d, 3	 # i,
 2483      0000
 2484              	.LVL239:
 2485              	.L92:
 2486 0109 41B90000 		mov	r9d, 104857600	 # tmp481,
 2486      4006
 2487 010f 41BBFCFF 		mov	r11d, 104857596	 # ratio_mult_vf.274,
 2487      3F06
 2488 0115 B9FFFF8F 		mov	ecx, 26214399	 # bnd.273,
 2488      01
 2489 011a 4D29F1   		sub	r9, r14	 # niters.272, prolog_loop_niters.271
 2490              	.L91:
 2491 011d 66440F6F 		movdqa	xmm12, XMMWORD PTR .LC4[rip]	 # vect_cst_.184,
 2491      25A00000 
 2491      00
 2492 0126 4D8D5701 		lea	r10, 1[r15]	 # stmp_var_.277,
 2493 012a 66490F6E 		movq	xmm2, r15	 # vect_vec_iv_.280, i
 2493      D7
 2494              	.LBE675:
 2495              	.LBB676:
 2496              	.LBB671:
  46:timer.h       ****     }
 2497              		.loc 2 46 0
 2498 012f 31C0     		xor	eax, eax	 # ivtmp.320
 2499 0131 66440F6F 		movdqa	xmm11, XMMWORD PTR .LC5[rip]	 # tmp858,
 2499      1DB00000 
 2499      00
 2500 013a 4B8D54B5 		lea	rdx, 0[r13+r14*4]	 # ivtmp.321,
 2500      00
 2501 013f 66490F6E 		movq	xmm7, r10	 # stmp_var_.277, stmp_var_.277
 2501      FA
 2502 0144 660F6F35 		movdqa	xmm6, XMMWORD PTR .LC6[rip]	 # tmp859,
 2502      C0000000 
 2503 014c 66410F6F 		movdqa	xmm3, xmm12	 # vect_cst_.279, vect_cst_.184
 2503      DC
 2504 0151 660F6CD7 		punpcklqdq	xmm2, xmm7	 # vect_vec_iv_.280, stmp_var_.277
 2505              		.p2align 4,,10
 2506              	.L93:
 2507 0155 660F6FC2 		movdqa	xmm0, xmm2	 # vect_vec_iv_.280, vect_vec_iv_.280
 2508              	.LBE671:
 2509              	.LBE676:
 2510              	.LBB677:
 2511              		.loc 3 17 0 discriminator 3
 2512 0159 660F6FE2 		movdqa	xmm4, xmm2	 # vect__25.282, vect_vec_iv_.280
 2513 015d 4883C001 		add	rax, 1	 # ivtmp.320,
 2514 0161 66410FD4 		paddq	xmm0, xmm11	 # vect_vec_iv_.280, tmp858
 2514      C3
 2515 0166 4883C210 		add	rdx, 16	 # ivtmp.321,
 2516 016a 660FD4D3 		paddq	xmm2, xmm3	 # vect_vec_iv_.280, vect_cst_.279
 2517 016e 0FC6E088 		shufps	xmm4, xmm0, 136	 # vect__25.282, vect_vec_iv_.280,
 2518 0172 660F6FC4 		movdqa	xmm0, xmm4	 # vect__25.282, vect__25.282
 2519 0176 660F6FCC 		movdqa	xmm1, xmm4	 # tmp491, vect__25.282
 2520 017a 660F73D0 		psrlq	xmm0, 32	 # tmp495,
 2520      20
 2521 017f 660FF4CE 		pmuludq	xmm1, xmm6	 # tmp491, tmp859
 2522 0183 660FF4C6 		pmuludq	xmm0, xmm6	 # tmp492, tmp859
 2523 0187 660F70C9 		pshufd	xmm1, xmm1, 8	 # tmp489, tmp491,
 2523      08
 2524 018c 660F70C0 		pshufd	xmm0, xmm0, 8	 # tmp490, tmp492,
 2524      08
 2525 0191 660F62C8 		punpckldq	xmm1, xmm0	 # vect__26.283, tmp490
 2526 0195 0F294AF0 		movaps	XMMWORD PTR -16[rdx], xmm1	 # MEM[base: _82, offset: 0B], vect__26.283
 2527 0199 4839C8   		cmp	rax, rcx	 # ivtmp.320, bnd.273
 2528 019c 72B7     		jb	.L93	 #,
 2529 019e 4B8D041F 		lea	rax, [r15+r11]	 # i,
 2530 01a2 4D29D8   		sub	r8, r11	 # D.77728, ratio_mult_vf.274
 2531 01a5 4D39D9   		cmp	r9, r11	 # niters.272, ratio_mult_vf.274
 2532 01a8 7435     		je	.L95	 #,
 2533              	.LVL240:
 2534              		.loc 3 17 0 is_stmt 0
 2535 01aa 69D017CD 		imul	edx, eax, 123456791	 # D.77723, i,
 2535      5B07
  16:TestRadixSort.cpp ****         keys[i] = i*123456791;
 2536              		.loc 3 16 0 is_stmt 1
 2537 01b0 4983F801 		cmp	r8, 1	 # D.77728,
 2538              		.loc 3 17 0
 2539 01b4 41895485 		mov	DWORD PTR 0[r13+rax*4], edx	 # *_824, D.77723
 2539      00
  16:TestRadixSort.cpp ****         keys[i] = i*123456791;
 2540              		.loc 3 16 0
 2541 01b9 488D5001 		lea	rdx, 1[rax]	 # i,
 2542              	.LVL241:
 2543 01bd 7420     		je	.L95	 #,
 2544              		.loc 3 17 0
 2545 01bf 69CA17CD 		imul	ecx, edx, 123456791	 # D.77723, i,
 2545      5B07
  16:TestRadixSort.cpp ****         keys[i] = i*123456791;
 2546              		.loc 3 16 0
 2547 01c5 4883C002 		add	rax, 2	 # i,
 2548 01c9 4983F802 		cmp	r8, 2	 # D.77728,
 2549              		.loc 3 17 0
 2550 01cd 41894C95 		mov	DWORD PTR 0[r13+rdx*4], ecx	 # *_834, D.77723
 2550      00
 2551              	.LVL242:
  16:TestRadixSort.cpp ****         keys[i] = i*123456791;
 2552              		.loc 3 16 0
 2553 01d2 740B     		je	.L95	 #,
 2554              		.loc 3 17 0
 2555 01d4 69D017CD 		imul	edx, eax, 123456791	 # D.77723, i,
 2555      5B07
 2556 01da 41895485 		mov	DWORD PTR 0[r13+rax*4], edx	 # *_653, D.77723
 2556      00
 2557              	.L95:
 2558              	.LVL243:
 2559              	.LBE677:
 2560              	.LBB678:
 2561              	.LBB679:
  25:timer.h       ****     }
 2562              		.loc 2 25 0
 2563 01df 4889D9   		mov	rcx, rbx	 #, tmp862
 2564 01e2 FFD6     		call	rsi	 # tmp861
 2565              	.LVL244:
 2566              	.LBE679:
 2567              	.LBE678:
  18:TestRadixSort.cpp ****     t.Start();
  19:TestRadixSort.cpp ****     RadixSortPass<Key,Data,0,4> (keys, data, outkeys, outdata, DATASET);
 2568              		.loc 3 19 0
 2569 01e4 4D89E1   		mov	r9, r12	 #, outdata
 2570 01e7 4989E8   		mov	r8, rbp	 #, outkeys
 2571 01ea 4889FA   		mov	rdx, rdi	 #, data
 2572 01ed 48C74424 		mov	QWORD PTR 32[rsp], 104857600	 #,
 2572      20000040 
 2572      06
 2573 01f6 4C89E9   		mov	rcx, r13	 #, keys
 2574 01f9 E8000000 		call	_Z13RadixSortPassIjjLi0ELi4EEvPKT_PKT0_PS0_PS3_y	 #
 2574      00
 2575              	.LVL245:
 2576              	.LBB680:
 2577              	.LBB681:
  30:timer.h       ****     }
 2578              		.loc 2 30 0
 2579 01fe 488D4B08 		lea	rcx, 8[rbx]	 # tmp503,
 2580 0202 FFD6     		call	rsi	 # tmp861
 2581              	.LVL246:
 2582              	.LBE681:
 2583              	.LBE680:
 2584              	.LBB682:
 2585              	.LBB683:
  36:timer.h       ****                                           * 1000.0 / m_freq.QuadPart;
 2586              		.loc 2 36 0
 2587 0204 488B4424 		mov	rax, QWORD PTR 56[rsp]	 # t.m_stop.QuadPart, t.m_stop.QuadPart
 2587      38
  37:timer.h       ****     }
 2588              		.loc 2 37 0
 2589 0209 660FEFC0 		pxor	xmm0, xmm0	 # D.77726
 2590 020d 660FEFC9 		pxor	xmm1, xmm1	 # D.77726
  36:timer.h       ****                                           * 1000.0 / m_freq.QuadPart;
 2591              		.loc 2 36 0
 2592 0211 482B4424 		sub	rax, QWORD PTR 48[rsp]	 # D.77725, t.m_start.QuadPart
 2592      30
 2593              	.LBE683:
 2594              	.LBE682:
  20:TestRadixSort.cpp ****     t.Stop();  speed = DATASET/(t.Elapsed()/1000);
  21:TestRadixSort.cpp ****     printf("Sorting %d MiB", int(DATASET>>20));
 2595              		.loc 3 21 0
 2596 0216 BA640000 		mov	edx, 100	 #,
 2596      00
 2597              	.LBB687:
 2598              	.LBB684:
  36:timer.h       ****                                           * 1000.0 / m_freq.QuadPart;
 2599              		.loc 2 36 0
 2600 021b 482B4424 		sub	rax, QWORD PTR 72[rsp]	 # D.77725, t.m_overhead
 2600      48
  37:timer.h       ****     }
 2601              		.loc 2 37 0
 2602 0220 F20F103D 		movsd	xmm7, QWORD PTR .LC0[rip]	 # tmp854,
 2602      80000000 
 2603 0228 F2480F2A 		cvtsi2sdq	xmm1, QWORD PTR 64[rsp]	 # D.77726, t.m_freq.QuadPart
 2603      4C2440
 2604              	.LBE684:
 2605              	.LBE687:
  20:TestRadixSort.cpp ****     t.Stop();  speed = DATASET/(t.Elapsed()/1000);
 2606              		.loc 3 20 0
 2607 022f F2440F10 		movsd	xmm8, QWORD PTR .LC7[rip]	 # tmp860,
 2607      05D00000 
 2607      00
 2608              		.loc 3 21 0
 2609 0238 488D0D39 		lea	rcx, .LC8[rip]	 #,
 2609      000000
 2610              	.LBB688:
 2611              	.LBB685:
  37:timer.h       ****     }
 2612              		.loc 2 37 0
 2613 023f F2480F2A 		cvtsi2sdq	xmm0, rax	 # D.77726, D.77725
 2613      C0
 2614              	.LBE685:
 2615              	.LBE688:
  20:TestRadixSort.cpp ****     t.Stop();  speed = DATASET/(t.Elapsed()/1000);
 2616              		.loc 3 20 0
 2617 0244 66450F28 		movapd	xmm13, xmm8	 # speed, tmp860
 2617      E8
 2618              	.LBB689:
 2619              	.LBB686:
  37:timer.h       ****     }
 2620              		.loc 2 37 0
 2621 0249 F20F59C7 		mulsd	xmm0, xmm7	 # D.77726, tmp854
 2622 024d F20F5EC1 		divsd	xmm0, xmm1	 # D.77726, D.77726
 2623              	.LBE686:
 2624              	.LBE689:
  20:TestRadixSort.cpp ****     t.Stop();  speed = DATASET/(t.Elapsed()/1000);
 2625              		.loc 3 20 0
 2626 0251 F20F5EC7 		divsd	xmm0, xmm7	 # D.77726, tmp854
 2627 0255 F2440F5E 		divsd	xmm13, xmm0	 # speed, D.77726
 2627      E8
 2628              	.LVL247:
 2629              		.loc 3 21 0
 2630 025a E8000000 		call	printf	 #
 2630      00
 2631              	.LVL248:
 2632              	.LBB690:
 2633              	.LBB691:
  36:timer.h       ****                                           * 1000.0 / m_freq.QuadPart;
 2634              		.loc 2 36 0
 2635 025f 488B4424 		mov	rax, QWORD PTR 56[rsp]	 # t.m_stop.QuadPart, t.m_stop.QuadPart
 2635      38
  37:timer.h       ****     }
 2636              		.loc 2 37 0
 2637 0264 660FEFC0 		pxor	xmm0, xmm0	 # D.77726
 2638 0268 660FEFD2 		pxor	xmm2, xmm2	 # D.77726
  36:timer.h       ****                                           * 1000.0 / m_freq.QuadPart;
 2639              		.loc 2 36 0
 2640 026c 482B4424 		sub	rax, QWORD PTR 48[rsp]	 # D.77725, t.m_start.QuadPart
 2640      30
 2641              	.LBE691:
 2642              	.LBE690:
  22:TestRadixSort.cpp ****     printf(": %.3lf milliseconds = %.3lf MB/s = %.3lf MiB/s\n\n", t.Elapsed(), speed/1e6, speed/(1<
 2643              		.loc 3 22 0
 2644 0271 488D0D48 		lea	rcx, .LC9[rip]	 #,
 2644      000000
 2645              	.LBB695:
 2646              	.LBB692:
  36:timer.h       ****                                           * 1000.0 / m_freq.QuadPart;
 2647              		.loc 2 36 0
 2648 0278 482B4424 		sub	rax, QWORD PTR 72[rsp]	 # D.77725, t.m_overhead
 2648      48
 2649              	.LBE692:
 2650              	.LBE695:
 2651              		.loc 3 22 0
 2652 027d F2440F10 		movsd	xmm10, QWORD PTR .LC2[rip]	 # tmp856,
 2652      15900000 
 2652      00
 2653              	.LBB696:
 2654              	.LBB693:
  37:timer.h       ****     }
 2655              		.loc 2 37 0
 2656 0286 F2480F2A 		cvtsi2sdq	xmm2, QWORD PTR 64[rsp]	 # D.77726, t.m_freq.QuadPart
 2656      542440
 2657              	.LBE693:
 2658              	.LBE696:
 2659              		.loc 3 22 0
 2660 028d F2440F10 		movsd	xmm9, QWORD PTR .LC1[rip]	 # tmp855,
 2660      0D880000 
 2660      00
 2661              	.LBB697:
 2662              	.LBB694:
  37:timer.h       ****     }
 2663              		.loc 2 37 0
 2664 0296 F2480F2A 		cvtsi2sdq	xmm0, rax	 # D.77726, D.77725
 2664      C0
 2665 029b F20F59C7 		mulsd	xmm0, xmm7	 # D.77726, tmp854
 2666 029f F20F5EC2 		divsd	xmm0, xmm2	 # D.77726, D.77726
 2667              	.LBE694:
 2668              	.LBE697:
 2669              		.loc 3 22 0
 2670 02a3 66410F28 		movapd	xmm1, xmm13	 # D.77726, speed
 2670      CD
 2671 02a8 F2410F59 		mulsd	xmm1, xmm9	 # D.77726, tmp855
 2671      C9
 2672 02ad 660F28D9 		movapd	xmm3, xmm1	 #, D.77726
 2673 02b1 66490F7E 		movq	r9, xmm1	 #, D.77726
 2673      C9
 2674 02b6 F2450F5E 		divsd	xmm13, xmm10	 # D.77726, tmp856
 2674      EA
 2675              	.LVL249:
 2676 02bb 660F28C8 		movapd	xmm1, xmm0	 #, D.77726
 2677 02bf 66480F7E 		movq	rdx, xmm0	 #, D.77726
 2677      C2
 2678 02c4 66410F28 		movapd	xmm2, xmm13	 #, D.77726
 2678      D5
 2679 02c9 664D0F7E 		movq	r8, xmm13	 #, D.77726
 2679      E8
 2680 02ce E8000000 		call	printf	 #
 2680      00
 2681              	.LVL250:
 2682 02d3 4D85F6   		test	r14, r14	 # prolog_loop_niters.271
 2683 02d6 0F84090A 		je	.L130	 #,
 2683      0000
 2684 02dc 4983FE01 		cmp	r14, 1	 # prolog_loop_niters.271,
 2685              	.LBB698:
  23:TestRadixSort.cpp **** 
  24:TestRadixSort.cpp ****     for (size_t i=0; i<DATASET; i++)
  25:TestRadixSort.cpp ****         keys[i] = i*123456791;
 2686              		.loc 3 25 0
 2687 02e0 41C74500 		mov	DWORD PTR 0[r13], 0	 # *keys_15,
 2687      00000000 
 2688              	.LVL251:
 2689 02e8 0F848C0A 		je	.L131	 #,
 2689      0000
 2690 02ee 4983FE03 		cmp	r14, 3	 # prolog_loop_niters.271,
 2691 02f2 41C74504 		mov	DWORD PTR 4[r13], 123456791	 # MEM[(unsigned int *)keys_15 + 4B],
 2691      17CD5B07 
 2692              	.LVL252:
 2693 02fa 0F858B0A 		jne	.L132	 #,
 2693      0000
 2694 0300 41C74508 		mov	DWORD PTR 8[r13], 246913582	 # MEM[(unsigned int *)keys_15 + 8B],
 2694      2E9AB70E 
 2695              	.LVL253:
 2696 0308 41BBFDFF 		mov	r11d, 104857597	 # D.77728,
 2696      3F06
  24:TestRadixSort.cpp ****         keys[i] = i*123456791;
 2697              		.loc 3 24 0
 2698 030e 41B80300 		mov	r8d, 3	 # i,
 2698      0000
 2699              	.LVL254:
 2700              	.L98:
 2701 0314 41B90000 		mov	r9d, 104857600	 # tmp543,
 2701      4006
 2702 031a 41BAFCFF 		mov	r10d, 104857596	 # ratio_mult_vf.255,
 2702      3F06
 2703 0320 B9FFFF8F 		mov	ecx, 26214399	 # bnd.254,
 2703      01
 2704 0325 4D29F1   		sub	r9, r14	 # niters.253, prolog_loop_niters.271
 2705              	.L97:
 2706 0328 498D4001 		lea	rax, 1[r8]	 # stmp_var_.258,
 2707 032c 66490F6E 		movq	xmm2, r8	 # vect_vec_iv_.261, i
 2707      D0
 2708 0331 66410F6F 		movdqa	xmm3, xmm12	 # vect_cst_.260, vect_cst_.184
 2708      DC
 2709 0336 4B8D54B5 		lea	rdx, 0[r13+r14*4]	 # ivtmp.315,
 2709      00
 2710 033b 66480F6E 		movq	xmm5, rax	 # stmp_var_.258, stmp_var_.258
 2710      E8
 2711              	.LBE698:
  22:TestRadixSort.cpp **** 
 2712              		.loc 3 22 0
 2713 0340 31C0     		xor	eax, eax	 # ivtmp.314
 2714 0342 660F6CD5 		punpcklqdq	xmm2, xmm5	 # vect_vec_iv_.261, stmp_var_.258
 2715 0346 662E0F1F 		.p2align 4,,10
 2715      84000000 
 2715      0000
 2716              	.L99:
 2717 0350 660F6FC2 		movdqa	xmm0, xmm2	 # vect_vec_iv_.261, vect_vec_iv_.261
 2718              	.LBB699:
 2719              		.loc 3 25 0 discriminator 3
 2720 0354 660F6FEA 		movdqa	xmm5, xmm2	 # vect__39.263, vect_vec_iv_.261
 2721 0358 4883C001 		add	rax, 1	 # ivtmp.314,
 2722 035c 66410FD4 		paddq	xmm0, xmm11	 # vect_vec_iv_.261, tmp858
 2722      C3
 2723 0361 4883C210 		add	rdx, 16	 # ivtmp.315,
 2724 0365 660FD4D3 		paddq	xmm2, xmm3	 # vect_vec_iv_.261, vect_cst_.260
 2725 0369 0FC6E888 		shufps	xmm5, xmm0, 136	 # vect__39.263, vect_vec_iv_.261,
 2726 036d 660F6FC5 		movdqa	xmm0, xmm5	 # vect__39.263, vect__39.263
 2727 0371 660F6FCD 		movdqa	xmm1, xmm5	 # tmp553, vect__39.263
 2728 0375 660F73D0 		psrlq	xmm0, 32	 # tmp557,
 2728      20
 2729 037a 660FF4CE 		pmuludq	xmm1, xmm6	 # tmp553, tmp859
 2730 037e 660FF4C6 		pmuludq	xmm0, xmm6	 # tmp554, tmp859
 2731 0382 660F70C9 		pshufd	xmm1, xmm1, 8	 # tmp551, tmp553,
 2731      08
 2732 0387 660F70C0 		pshufd	xmm0, xmm0, 8	 # tmp552, tmp554,
 2732      08
 2733 038c 660F62C8 		punpckldq	xmm1, xmm0	 # vect__40.264, tmp552
 2734 0390 0F294AF0 		movaps	XMMWORD PTR -16[rdx], xmm1	 # MEM[base: _614, offset: 0B], vect__40.264
 2735 0394 4839C8   		cmp	rax, rcx	 # ivtmp.314, bnd.254
 2736 0397 72B7     		jb	.L99	 #,
 2737 0399 4B8D0410 		lea	rax, [r8+r10]	 # i,
 2738 039d 4C89DA   		mov	rdx, r11	 # D.77728, D.77728
 2739 03a0 4C29D2   		sub	rdx, r10	 # D.77728, ratio_mult_vf.255
 2740 03a3 4D39D1   		cmp	r9, r10	 # niters.253, ratio_mult_vf.255
 2741 03a6 7436     		je	.L101	 #,
 2742              	.LVL255:
 2743              		.loc 3 25 0 is_stmt 0
 2744 03a8 69C817CD 		imul	ecx, eax, 123456791	 # D.77723, i,
 2744      5B07
  24:TestRadixSort.cpp ****         keys[i] = i*123456791;
 2745              		.loc 3 24 0 is_stmt 1
 2746 03ae 4883FA01 		cmp	rdx, 1	 # D.77728,
 2747              		.loc 3 25 0
 2748 03b2 41894C85 		mov	DWORD PTR 0[r13+rax*4], ecx	 # *_780, D.77723
 2748      00
  24:TestRadixSort.cpp ****         keys[i] = i*123456791;
 2749              		.loc 3 24 0
 2750 03b7 488D4801 		lea	rcx, 1[rax]	 # i,
 2751              	.LVL256:
 2752 03bb 7421     		je	.L101	 #,
 2753              		.loc 3 25 0
 2754 03bd 4469C117 		imul	r8d, ecx, 123456791	 # D.77723, i,
 2754      CD5B07
  24:TestRadixSort.cpp ****         keys[i] = i*123456791;
 2755              		.loc 3 24 0
 2756 03c4 4883C002 		add	rax, 2	 # i,
 2757 03c8 4883FA02 		cmp	rdx, 2	 # D.77728,
 2758              		.loc 3 25 0
 2759 03cc 4589448D 		mov	DWORD PTR 0[r13+rcx*4], r8d	 # *_790, D.77723
 2759      00
 2760              	.LVL257:
  24:TestRadixSort.cpp ****         keys[i] = i*123456791;
 2761              		.loc 3 24 0
 2762 03d1 740B     		je	.L101	 #,
 2763              		.loc 3 25 0
 2764 03d3 69D017CD 		imul	edx, eax, 123456791	 # D.77723, i,
 2764      5B07
 2765 03d9 41895485 		mov	DWORD PTR 0[r13+rax*4], edx	 # *_580, D.77723
 2765      00
 2766              	.L101:
 2767              	.LVL258:
 2768              	.LBE699:
 2769              	.LBB700:
 2770              	.LBB701:
  25:timer.h       ****     }
 2771              		.loc 2 25 0
 2772 03de 4889D9   		mov	rcx, rbx	 #, tmp862
 2773              	.LBE701:
 2774              	.LBE700:
  26:TestRadixSort.cpp ****     t.Start();
  27:TestRadixSort.cpp ****     RadixSortPass<Key,Data,0,6> (keys, data, outkeys, outdata, DATASET);
  28:TestRadixSort.cpp ****     t.Stop();  speed = DATASET/(t.Elapsed()/1000);
 2775              		.loc 3 28 0
 2776 03e1 66450F28 		movapd	xmm13, xmm8	 # speed, tmp860
 2776      E8
 2777              	.LBB703:
 2778              	.LBB702:
  25:timer.h       ****     }
 2779              		.loc 2 25 0
 2780 03e6 FFD6     		call	rsi	 # tmp861
 2781              	.LVL259:
 2782              	.LBE702:
 2783              	.LBE703:
  27:TestRadixSort.cpp ****     t.Stop();  speed = DATASET/(t.Elapsed()/1000);
 2784              		.loc 3 27 0
 2785 03e8 4D89E1   		mov	r9, r12	 #, outdata
 2786 03eb 4989E8   		mov	r8, rbp	 #, outkeys
 2787 03ee 4889FA   		mov	rdx, rdi	 #, data
 2788 03f1 48C74424 		mov	QWORD PTR 32[rsp], 104857600	 #,
 2788      20000040 
 2788      06
 2789 03fa 4C89E9   		mov	rcx, r13	 #, keys
 2790 03fd E8000000 		call	_Z13RadixSortPassIjjLi0ELi6EEvPKT_PKT0_PS0_PS3_y	 #
 2790      00
 2791              	.LVL260:
 2792              	.LBB704:
 2793              	.LBB705:
  30:timer.h       ****     }
 2794              		.loc 2 30 0
 2795 0402 488D4B08 		lea	rcx, 8[rbx]	 # tmp565,
 2796 0406 FFD6     		call	rsi	 # tmp861
 2797              	.LVL261:
 2798              	.LBE705:
 2799              	.LBE704:
 2800              	.LBB706:
 2801              	.LBB707:
  36:timer.h       ****                                           * 1000.0 / m_freq.QuadPart;
 2802              		.loc 2 36 0
 2803 0408 488B4424 		mov	rax, QWORD PTR 56[rsp]	 # t.m_stop.QuadPart, t.m_stop.QuadPart
 2803      38
  37:timer.h       ****     }
 2804              		.loc 2 37 0
 2805 040d 660FEFC0 		pxor	xmm0, xmm0	 # D.77726
 2806 0411 660FEFC9 		pxor	xmm1, xmm1	 # D.77726
  36:timer.h       ****                                           * 1000.0 / m_freq.QuadPart;
 2807              		.loc 2 36 0
 2808 0415 482B4424 		sub	rax, QWORD PTR 48[rsp]	 # D.77725, t.m_start.QuadPart
 2808      30
 2809              	.LBE707:
 2810              	.LBE706:
  29:TestRadixSort.cpp ****     printf("Sorting %d MiB", int(DATASET>>20));
 2811              		.loc 3 29 0
 2812 041a BA640000 		mov	edx, 100	 #,
 2812      00
 2813              	.LBB710:
 2814              	.LBB708:
  36:timer.h       ****                                           * 1000.0 / m_freq.QuadPart;
 2815              		.loc 2 36 0
 2816 041f 482B4424 		sub	rax, QWORD PTR 72[rsp]	 # D.77725, t.m_overhead
 2816      48
  37:timer.h       ****     }
 2817              		.loc 2 37 0
 2818 0424 F2480F2A 		cvtsi2sdq	xmm1, QWORD PTR 64[rsp]	 # D.77726, t.m_freq.QuadPart
 2818      4C2440
 2819              	.LBE708:
 2820              	.LBE710:
 2821              		.loc 3 29 0
 2822 042b 488D0D39 		lea	rcx, .LC8[rip]	 #,
 2822      000000
 2823              	.LBB711:
 2824              	.LBB709:
  37:timer.h       ****     }
 2825              		.loc 2 37 0
 2826 0432 F2480F2A 		cvtsi2sdq	xmm0, rax	 # D.77726, D.77725
 2826      C0
 2827 0437 F20F59C7 		mulsd	xmm0, xmm7	 # D.77726, tmp854
 2828 043b F20F5EC1 		divsd	xmm0, xmm1	 # D.77726, D.77726
 2829              	.LBE709:
 2830              	.LBE711:
  28:TestRadixSort.cpp ****     printf("Sorting %d MiB", int(DATASET>>20));
 2831              		.loc 3 28 0
 2832 043f F20F5EC7 		divsd	xmm0, xmm7	 # D.77726, tmp854
 2833 0443 F2440F5E 		divsd	xmm13, xmm0	 # speed, D.77726
 2833      E8
 2834              	.LVL262:
 2835              		.loc 3 29 0
 2836 0448 E8000000 		call	printf	 #
 2836      00
 2837              	.LVL263:
 2838              	.LBB712:
 2839              	.LBB713:
  36:timer.h       ****                                           * 1000.0 / m_freq.QuadPart;
 2840              		.loc 2 36 0
 2841 044d 488B4424 		mov	rax, QWORD PTR 56[rsp]	 # t.m_stop.QuadPart, t.m_stop.QuadPart
 2841      38
  37:timer.h       ****     }
 2842              		.loc 2 37 0
 2843 0452 660FEFC0 		pxor	xmm0, xmm0	 # D.77726
 2844 0456 660FEFD2 		pxor	xmm2, xmm2	 # D.77726
  36:timer.h       ****                                           * 1000.0 / m_freq.QuadPart;
 2845              		.loc 2 36 0
 2846 045a 482B4424 		sub	rax, QWORD PTR 48[rsp]	 # D.77725, t.m_start.QuadPart
 2846      30
 2847              	.LBE713:
 2848              	.LBE712:
  30:TestRadixSort.cpp ****     printf(": %.3lf milliseconds = %.3lf MB/s = %.3lf MiB/s\n\n", t.Elapsed(), speed/1e6, speed/(1<
 2849              		.loc 3 30 0
 2850 045f 488D0D48 		lea	rcx, .LC9[rip]	 #,
 2850      000000
 2851              	.LBB715:
 2852              	.LBB714:
  36:timer.h       ****                                           * 1000.0 / m_freq.QuadPart;
 2853              		.loc 2 36 0
 2854 0466 482B4424 		sub	rax, QWORD PTR 72[rsp]	 # D.77725, t.m_overhead
 2854      48
  37:timer.h       ****     }
 2855              		.loc 2 37 0
 2856 046b F2480F2A 		cvtsi2sdq	xmm2, QWORD PTR 64[rsp]	 # D.77726, t.m_freq.QuadPart
 2856      542440
 2857 0472 F2480F2A 		cvtsi2sdq	xmm0, rax	 # D.77726, D.77725
 2857      C0
 2858 0477 F20F59C7 		mulsd	xmm0, xmm7	 # D.77726, tmp854
 2859 047b F20F5EC2 		divsd	xmm0, xmm2	 # D.77726, D.77726
 2860              	.LBE714:
 2861              	.LBE715:
 2862              		.loc 3 30 0
 2863 047f 66410F28 		movapd	xmm1, xmm13	 # D.77726, speed
 2863      CD
 2864 0484 F2410F59 		mulsd	xmm1, xmm9	 # D.77726, tmp855
 2864      C9
 2865 0489 660F28D9 		movapd	xmm3, xmm1	 #, D.77726
 2866 048d 66490F7E 		movq	r9, xmm1	 #, D.77726
 2866      C9
 2867 0492 F2450F5E 		divsd	xmm13, xmm10	 # D.77726, tmp856
 2867      EA
 2868              	.LVL264:
 2869 0497 660F28C8 		movapd	xmm1, xmm0	 #, D.77726
 2870 049b 66480F7E 		movq	rdx, xmm0	 #, D.77726
 2870      C2
 2871 04a0 66410F28 		movapd	xmm2, xmm13	 #, D.77726
 2871      D5
 2872 04a5 664D0F7E 		movq	r8, xmm13	 #, D.77726
 2872      E8
 2873 04aa E8000000 		call	printf	 #
 2873      00
 2874              	.LVL265:
 2875 04af 4D85F6   		test	r14, r14	 # prolog_loop_niters.271
 2876 04b2 0F840E08 		je	.L133	 #,
 2876      0000
 2877 04b8 4983FE01 		cmp	r14, 1	 # prolog_loop_niters.271,
 2878              	.LBB716:
  31:TestRadixSort.cpp **** 
  32:TestRadixSort.cpp ****     for (size_t i=0; i<DATASET; i++)
  33:TestRadixSort.cpp ****         keys[i] = i*123456791;
 2879              		.loc 3 33 0
 2880 04bc 41C74500 		mov	DWORD PTR 0[r13], 0	 # *keys_15,
 2880      00000000 
 2881              	.LVL266:
 2882 04c4 0F844A08 		je	.L134	 #,
 2882      0000
 2883 04ca 4983FE03 		cmp	r14, 3	 # prolog_loop_niters.271,
 2884 04ce 41C74504 		mov	DWORD PTR 4[r13], 123456791	 # MEM[(unsigned int *)keys_15 + 4B],
 2884      17CD5B07 
 2885              	.LVL267:
 2886 04d6 0F854908 		jne	.L135	 #,
 2886      0000
 2887 04dc 41C74508 		mov	DWORD PTR 8[r13], 246913582	 # MEM[(unsigned int *)keys_15 + 8B],
 2887      2E9AB70E 
 2888              	.LVL268:
 2889 04e4 41BBFDFF 		mov	r11d, 104857597	 # D.77728,
 2889      3F06
  32:TestRadixSort.cpp ****         keys[i] = i*123456791;
 2890              		.loc 3 32 0
 2891 04ea 41B80300 		mov	r8d, 3	 # i,
 2891      0000
 2892              	.LVL269:
 2893              	.L104:
 2894 04f0 41B90000 		mov	r9d, 104857600	 # tmp605,
 2894      4006
 2895 04f6 41BAFCFF 		mov	r10d, 104857596	 # ratio_mult_vf.236,
 2895      3F06
 2896 04fc B9FFFF8F 		mov	ecx, 26214399	 # bnd.235,
 2896      01
 2897 0501 4D29F1   		sub	r9, r14	 # niters.234, prolog_loop_niters.271
 2898              	.L103:
 2899 0504 498D4001 		lea	rax, 1[r8]	 # stmp_var_.239,
 2900 0508 66490F6E 		movq	xmm2, r8	 # vect_vec_iv_.242, i
 2900      D0
 2901 050d 66410F6F 		movdqa	xmm3, xmm12	 # vect_cst_.241, vect_cst_.184
 2901      DC
 2902 0512 4B8D54B5 		lea	rdx, 0[r13+r14*4]	 # ivtmp.309,
 2902      00
 2903 0517 66480F6E 		movq	xmm5, rax	 # stmp_var_.239, stmp_var_.239
 2903      E8
 2904              	.LBE716:
  30:TestRadixSort.cpp ****     printf(": %.3lf milliseconds = %.3lf MB/s = %.3lf MiB/s\n\n", t.Elapsed(), speed/1e6, speed/(1<
 2905              		.loc 3 30 0
 2906 051c 31C0     		xor	eax, eax	 # ivtmp.308
 2907 051e 660F6CD5 		punpcklqdq	xmm2, xmm5	 # vect_vec_iv_.242, stmp_var_.239
 2908              		.p2align 4,,10
 2909              	.L105:
 2910 0522 660F6FC2 		movdqa	xmm0, xmm2	 # vect_vec_iv_.242, vect_vec_iv_.242
 2911              	.LBB717:
 2912              		.loc 3 33 0 discriminator 3
 2913 0526 660F6FE2 		movdqa	xmm4, xmm2	 # vect__53.244, vect_vec_iv_.242
 2914 052a 4883C001 		add	rax, 1	 # ivtmp.308,
 2915 052e 66410FD4 		paddq	xmm0, xmm11	 # vect_vec_iv_.242, tmp858
 2915      C3
 2916 0533 4883C210 		add	rdx, 16	 # ivtmp.309,
 2917 0537 660FD4D3 		paddq	xmm2, xmm3	 # vect_vec_iv_.242, vect_cst_.241
 2918 053b 0FC6E088 		shufps	xmm4, xmm0, 136	 # vect__53.244, vect_vec_iv_.242,
 2919 053f 660F6FC4 		movdqa	xmm0, xmm4	 # vect__53.244, vect__53.244
 2920 0543 660F6FCC 		movdqa	xmm1, xmm4	 # tmp615, vect__53.244
 2921 0547 660F73D0 		psrlq	xmm0, 32	 # tmp619,
 2921      20
 2922 054c 660FF4CE 		pmuludq	xmm1, xmm6	 # tmp615, tmp859
 2923 0550 660FF4C6 		pmuludq	xmm0, xmm6	 # tmp616, tmp859
 2924 0554 660F70C9 		pshufd	xmm1, xmm1, 8	 # tmp613, tmp615,
 2924      08
 2925 0559 660F70C0 		pshufd	xmm0, xmm0, 8	 # tmp614, tmp616,
 2925      08
 2926 055e 660F62C8 		punpckldq	xmm1, xmm0	 # vect__54.245, tmp614
 2927 0562 0F294AF0 		movaps	XMMWORD PTR -16[rdx], xmm1	 # MEM[base: _248, offset: 0B], vect__54.245
 2928 0566 4839C8   		cmp	rax, rcx	 # ivtmp.308, bnd.235
 2929 0569 72B7     		jb	.L105	 #,
 2930 056b 4B8D0410 		lea	rax, [r8+r10]	 # i,
 2931 056f 4C89DA   		mov	rdx, r11	 # D.77728, D.77728
 2932 0572 4C29D2   		sub	rdx, r10	 # D.77728, ratio_mult_vf.236
 2933 0575 4D39D1   		cmp	r9, r10	 # niters.234, ratio_mult_vf.236
 2934 0578 7436     		je	.L107	 #,
 2935              	.LVL270:
 2936              		.loc 3 33 0 is_stmt 0
 2937 057a 69C817CD 		imul	ecx, eax, 123456791	 # D.77723, i,
 2937      5B07
  32:TestRadixSort.cpp ****         keys[i] = i*123456791;
 2938              		.loc 3 32 0 is_stmt 1
 2939 0580 4883FA01 		cmp	rdx, 1	 # D.77728,
 2940              		.loc 3 33 0
 2941 0584 41894C85 		mov	DWORD PTR 0[r13+rax*4], ecx	 # *_736, D.77723
 2941      00
  32:TestRadixSort.cpp ****         keys[i] = i*123456791;
 2942              		.loc 3 32 0
 2943 0589 488D4801 		lea	rcx, 1[rax]	 # i,
 2944              	.LVL271:
 2945 058d 7421     		je	.L107	 #,
 2946              		.loc 3 33 0
 2947 058f 4469C117 		imul	r8d, ecx, 123456791	 # D.77723, i,
 2947      CD5B07
  32:TestRadixSort.cpp ****         keys[i] = i*123456791;
 2948              		.loc 3 32 0
 2949 0596 4883C002 		add	rax, 2	 # i,
 2950 059a 4883FA02 		cmp	rdx, 2	 # D.77728,
 2951              		.loc 3 33 0
 2952 059e 4589448D 		mov	DWORD PTR 0[r13+rcx*4], r8d	 # *_746, D.77723
 2952      00
 2953              	.LVL272:
  32:TestRadixSort.cpp ****         keys[i] = i*123456791;
 2954              		.loc 3 32 0
 2955 05a3 740B     		je	.L107	 #,
 2956              		.loc 3 33 0
 2957 05a5 69D017CD 		imul	edx, eax, 123456791	 # D.77723, i,
 2957      5B07
 2958 05ab 41895485 		mov	DWORD PTR 0[r13+rax*4], edx	 # *_507, D.77723
 2958      00
 2959              	.L107:
 2960              	.LVL273:
 2961              	.LBE717:
 2962              	.LBB718:
 2963              	.LBB719:
  25:timer.h       ****     }
 2964              		.loc 2 25 0
 2965 05b0 4889D9   		mov	rcx, rbx	 #, tmp862
 2966              	.LBE719:
 2967              	.LBE718:
  34:TestRadixSort.cpp ****     t.Start();
  35:TestRadixSort.cpp ****     RadixSortPass<Key,Data,0,8> (keys, data, outkeys, outdata, DATASET);
  36:TestRadixSort.cpp ****     t.Stop();  speed = DATASET/(t.Elapsed()/1000);
 2968              		.loc 3 36 0
 2969 05b3 66450F28 		movapd	xmm13, xmm8	 # speed, tmp860
 2969      E8
 2970              	.LBB721:
 2971              	.LBB720:
  25:timer.h       ****     }
 2972              		.loc 2 25 0
 2973 05b8 FFD6     		call	rsi	 # tmp861
 2974              	.LVL274:
 2975              	.LBE720:
 2976              	.LBE721:
  35:TestRadixSort.cpp ****     t.Stop();  speed = DATASET/(t.Elapsed()/1000);
 2977              		.loc 3 35 0
 2978 05ba 4D89E1   		mov	r9, r12	 #, outdata
 2979 05bd 4989E8   		mov	r8, rbp	 #, outkeys
 2980 05c0 4889FA   		mov	rdx, rdi	 #, data
 2981 05c3 48C74424 		mov	QWORD PTR 32[rsp], 104857600	 #,
 2981      20000040 
 2981      06
 2982 05cc 4C89E9   		mov	rcx, r13	 #, keys
 2983 05cf E8000000 		call	_Z13RadixSortPassIjjLi0ELi8EEvPKT_PKT0_PS0_PS3_y	 #
 2983      00
 2984              	.LVL275:
 2985              	.LBB722:
 2986              	.LBB723:
  30:timer.h       ****     }
 2987              		.loc 2 30 0
 2988 05d4 488D4B08 		lea	rcx, 8[rbx]	 # tmp627,
 2989 05d8 FFD6     		call	rsi	 # tmp861
 2990              	.LVL276:
 2991              	.LBE723:
 2992              	.LBE722:
 2993              	.LBB724:
 2994              	.LBB725:
  36:timer.h       ****                                           * 1000.0 / m_freq.QuadPart;
 2995              		.loc 2 36 0
 2996 05da 488B4424 		mov	rax, QWORD PTR 56[rsp]	 # t.m_stop.QuadPart, t.m_stop.QuadPart
 2996      38
  37:timer.h       ****     }
 2997              		.loc 2 37 0
 2998 05df 660FEFC0 		pxor	xmm0, xmm0	 # D.77726
 2999 05e3 660FEFC9 		pxor	xmm1, xmm1	 # D.77726
  36:timer.h       ****                                           * 1000.0 / m_freq.QuadPart;
 3000              		.loc 2 36 0
 3001 05e7 482B4424 		sub	rax, QWORD PTR 48[rsp]	 # D.77725, t.m_start.QuadPart
 3001      30
 3002              	.LBE725:
 3003              	.LBE724:
  37:TestRadixSort.cpp ****     printf("Sorting %d MiB", int(DATASET>>20));
 3004              		.loc 3 37 0
 3005 05ec BA640000 		mov	edx, 100	 #,
 3005      00
 3006              	.LBB728:
 3007              	.LBB726:
  36:timer.h       ****                                           * 1000.0 / m_freq.QuadPart;
 3008              		.loc 2 36 0
 3009 05f1 482B4424 		sub	rax, QWORD PTR 72[rsp]	 # D.77725, t.m_overhead
 3009      48
  37:timer.h       ****     }
 3010              		.loc 2 37 0
 3011 05f6 F2480F2A 		cvtsi2sdq	xmm1, QWORD PTR 64[rsp]	 # D.77726, t.m_freq.QuadPart
 3011      4C2440
 3012              	.LBE726:
 3013              	.LBE728:
 3014              		.loc 3 37 0
 3015 05fd 488D0D39 		lea	rcx, .LC8[rip]	 #,
 3015      000000
 3016              	.LBB729:
 3017              	.LBB727:
  37:timer.h       ****     }
 3018              		.loc 2 37 0
 3019 0604 F2480F2A 		cvtsi2sdq	xmm0, rax	 # D.77726, D.77725
 3019      C0
 3020 0609 F20F59C7 		mulsd	xmm0, xmm7	 # D.77726, tmp854
 3021 060d F20F5EC1 		divsd	xmm0, xmm1	 # D.77726, D.77726
 3022              	.LBE727:
 3023              	.LBE729:
  36:TestRadixSort.cpp ****     printf("Sorting %d MiB", int(DATASET>>20));
 3024              		.loc 3 36 0
 3025 0611 F20F5EC7 		divsd	xmm0, xmm7	 # D.77726, tmp854
 3026 0615 F2440F5E 		divsd	xmm13, xmm0	 # speed, D.77726
 3026      E8
 3027              	.LVL277:
 3028              		.loc 3 37 0
 3029 061a E8000000 		call	printf	 #
 3029      00
 3030              	.LVL278:
 3031              	.LBB730:
 3032              	.LBB731:
  36:timer.h       ****                                           * 1000.0 / m_freq.QuadPart;
 3033              		.loc 2 36 0
 3034 061f 488B4424 		mov	rax, QWORD PTR 56[rsp]	 # t.m_stop.QuadPart, t.m_stop.QuadPart
 3034      38
  37:timer.h       ****     }
 3035              		.loc 2 37 0
 3036 0624 660FEFC0 		pxor	xmm0, xmm0	 # D.77726
 3037 0628 660FEFD2 		pxor	xmm2, xmm2	 # D.77726
  36:timer.h       ****                                           * 1000.0 / m_freq.QuadPart;
 3038              		.loc 2 36 0
 3039 062c 482B4424 		sub	rax, QWORD PTR 48[rsp]	 # D.77725, t.m_start.QuadPart
 3039      30
 3040              	.LBE731:
 3041              	.LBE730:
  38:TestRadixSort.cpp ****     printf(": %.3lf milliseconds = %.3lf MB/s = %.3lf MiB/s\n\n", t.Elapsed(), speed/1e6, speed/(1<
 3042              		.loc 3 38 0
 3043 0631 488D0D48 		lea	rcx, .LC9[rip]	 #,
 3043      000000
 3044              	.LBB733:
 3045              	.LBB732:
  36:timer.h       ****                                           * 1000.0 / m_freq.QuadPart;
 3046              		.loc 2 36 0
 3047 0638 482B4424 		sub	rax, QWORD PTR 72[rsp]	 # D.77725, t.m_overhead
 3047      48
  37:timer.h       ****     }
 3048              		.loc 2 37 0
 3049 063d F2480F2A 		cvtsi2sdq	xmm2, QWORD PTR 64[rsp]	 # D.77726, t.m_freq.QuadPart
 3049      542440
 3050 0644 F2480F2A 		cvtsi2sdq	xmm0, rax	 # D.77726, D.77725
 3050      C0
 3051 0649 F20F59C7 		mulsd	xmm0, xmm7	 # D.77726, tmp854
 3052 064d F20F5EC2 		divsd	xmm0, xmm2	 # D.77726, D.77726
 3053              	.LBE732:
 3054              	.LBE733:
 3055              		.loc 3 38 0
 3056 0651 66410F28 		movapd	xmm1, xmm13	 # D.77726, speed
 3056      CD
 3057 0656 F2410F59 		mulsd	xmm1, xmm9	 # D.77726, tmp855
 3057      C9
 3058 065b 660F28D9 		movapd	xmm3, xmm1	 #, D.77726
 3059 065f 66490F7E 		movq	r9, xmm1	 #, D.77726
 3059      C9
 3060 0664 F2450F5E 		divsd	xmm13, xmm10	 # D.77726, tmp856
 3060      EA
 3061              	.LVL279:
 3062 0669 660F28C8 		movapd	xmm1, xmm0	 #, D.77726
 3063 066d 66480F7E 		movq	rdx, xmm0	 #, D.77726
 3063      C2
 3064 0672 66410F28 		movapd	xmm2, xmm13	 #, D.77726
 3064      D5
 3065 0677 664D0F7E 		movq	r8, xmm13	 #, D.77726
 3065      E8
 3066 067c E8000000 		call	printf	 #
 3066      00
 3067              	.LVL280:
 3068 0681 4D85F6   		test	r14, r14	 # prolog_loop_niters.271
 3069 0684 0F841D06 		je	.L136	 #,
 3069      0000
 3070 068a 4983FE01 		cmp	r14, 1	 # prolog_loop_niters.271,
 3071              	.LBB734:
  39:TestRadixSort.cpp **** 
  40:TestRadixSort.cpp ****     for (size_t i=0; i<DATASET; i++)
  41:TestRadixSort.cpp ****         keys[i] = i*123456791;
 3072              		.loc 3 41 0
 3073 068e 41C74500 		mov	DWORD PTR 0[r13], 0	 # *keys_15,
 3073      00000000 
 3074              	.LVL281:
 3075 0696 0F849A06 		je	.L137	 #,
 3075      0000
 3076 069c 4983FE03 		cmp	r14, 3	 # prolog_loop_niters.271,
 3077 06a0 41C74504 		mov	DWORD PTR 4[r13], 123456791	 # MEM[(unsigned int *)keys_15 + 4B],
 3077      17CD5B07 
 3078              	.LVL282:
 3079 06a8 0F859906 		jne	.L138	 #,
 3079      0000
 3080 06ae 41C74508 		mov	DWORD PTR 8[r13], 246913582	 # MEM[(unsigned int *)keys_15 + 8B],
 3080      2E9AB70E 
 3081              	.LVL283:
 3082 06b6 41BBFDFF 		mov	r11d, 104857597	 # D.77728,
 3082      3F06
  40:TestRadixSort.cpp ****         keys[i] = i*123456791;
 3083              		.loc 3 40 0
 3084 06bc 41B80300 		mov	r8d, 3	 # i,
 3084      0000
 3085              	.LVL284:
 3086              	.L110:
 3087 06c2 41B90000 		mov	r9d, 104857600	 # tmp667,
 3087      4006
 3088 06c8 41BAFCFF 		mov	r10d, 104857596	 # ratio_mult_vf.217,
 3088      3F06
 3089 06ce B9FFFF8F 		mov	ecx, 26214399	 # bnd.216,
 3089      01
 3090 06d3 4D29F1   		sub	r9, r14	 # niters.215, prolog_loop_niters.271
 3091              	.L109:
 3092 06d6 498D4001 		lea	rax, 1[r8]	 # stmp_var_.220,
 3093 06da 66490F6E 		movq	xmm2, r8	 # vect_vec_iv_.223, i
 3093      D0
 3094 06df 66410F6F 		movdqa	xmm3, xmm12	 # vect_cst_.222, vect_cst_.184
 3094      DC
 3095 06e4 4B8D54B5 		lea	rdx, 0[r13+r14*4]	 # ivtmp.303,
 3095      00
 3096 06e9 66480F6E 		movq	xmm5, rax	 # stmp_var_.220, stmp_var_.220
 3096      E8
 3097              	.LBE734:
  38:TestRadixSort.cpp ****     printf(": %.3lf milliseconds = %.3lf MB/s = %.3lf MiB/s\n\n", t.Elapsed(), speed/1e6, speed/(1<
 3098              		.loc 3 38 0
 3099 06ee 31C0     		xor	eax, eax	 # ivtmp.302
 3100 06f0 660F6CD5 		punpcklqdq	xmm2, xmm5	 # vect_vec_iv_.223, stmp_var_.220
 3101              		.p2align 4,,10
 3102              	.L111:
 3103 06f4 660F6FC2 		movdqa	xmm0, xmm2	 # vect_vec_iv_.223, vect_vec_iv_.223
 3104              	.LBB735:
 3105              		.loc 3 41 0 discriminator 3
 3106 06f8 660F6FEA 		movdqa	xmm5, xmm2	 # vect__67.225, vect_vec_iv_.223
 3107 06fc 4883C001 		add	rax, 1	 # ivtmp.302,
 3108 0700 66410FD4 		paddq	xmm0, xmm11	 # vect_vec_iv_.223, tmp858
 3108      C3
 3109 0705 4883C210 		add	rdx, 16	 # ivtmp.303,
 3110 0709 660FD4D3 		paddq	xmm2, xmm3	 # vect_vec_iv_.223, vect_cst_.222
 3111 070d 0FC6E888 		shufps	xmm5, xmm0, 136	 # vect__67.225, vect_vec_iv_.223,
 3112 0711 660F6FC5 		movdqa	xmm0, xmm5	 # vect__67.225, vect__67.225
 3113 0715 660F6FCD 		movdqa	xmm1, xmm5	 # tmp677, vect__67.225
 3114 0719 660F73D0 		psrlq	xmm0, 32	 # tmp681,
 3114      20
 3115 071e 660FF4CE 		pmuludq	xmm1, xmm6	 # tmp677, tmp859
 3116 0722 660FF4C6 		pmuludq	xmm0, xmm6	 # tmp678, tmp859
 3117 0726 660F70C9 		pshufd	xmm1, xmm1, 8	 # tmp675, tmp677,
 3117      08
 3118 072b 660F70C0 		pshufd	xmm0, xmm0, 8	 # tmp676, tmp678,
 3118      08
 3119 0730 660F62C8 		punpckldq	xmm1, xmm0	 # vect__68.226, tmp676
 3120 0734 0F294AF0 		movaps	XMMWORD PTR -16[rdx], xmm1	 # MEM[base: _246, offset: 0B], vect__68.226
 3121 0738 4839C8   		cmp	rax, rcx	 # ivtmp.302, bnd.216
 3122 073b 72B7     		jb	.L111	 #,
 3123 073d 4B8D0410 		lea	rax, [r8+r10]	 # i,
 3124 0741 4C89DA   		mov	rdx, r11	 # D.77728, D.77728
 3125 0744 4C29D2   		sub	rdx, r10	 # D.77728, ratio_mult_vf.217
 3126 0747 4D39D1   		cmp	r9, r10	 # niters.215, ratio_mult_vf.217
 3127 074a 7436     		je	.L113	 #,
 3128              	.LVL285:
 3129              		.loc 3 41 0 is_stmt 0
 3130 074c 69C817CD 		imul	ecx, eax, 123456791	 # D.77723, i,
 3130      5B07
  40:TestRadixSort.cpp ****         keys[i] = i*123456791;
 3131              		.loc 3 40 0 is_stmt 1
 3132 0752 4883FA01 		cmp	rdx, 1	 # D.77728,
 3133              		.loc 3 41 0
 3134 0756 41894C85 		mov	DWORD PTR 0[r13+rax*4], ecx	 # *_84, D.77723
 3134      00
  40:TestRadixSort.cpp ****         keys[i] = i*123456791;
 3135              		.loc 3 40 0
 3136 075b 488D4801 		lea	rcx, 1[rax]	 # i,
 3137              	.LVL286:
 3138 075f 7421     		je	.L113	 #,
 3139              		.loc 3 41 0
 3140 0761 4469C117 		imul	r8d, ecx, 123456791	 # D.77723, i,
 3140      CD5B07
  40:TestRadixSort.cpp ****         keys[i] = i*123456791;
 3141              		.loc 3 40 0
 3142 0768 4883C002 		add	rax, 2	 # i,
 3143 076c 4883FA02 		cmp	rdx, 2	 # D.77728,
 3144              		.loc 3 41 0
 3145 0770 4589448D 		mov	DWORD PTR 0[r13+rcx*4], r8d	 # *_702, D.77723
 3145      00
 3146              	.LVL287:
  40:TestRadixSort.cpp ****         keys[i] = i*123456791;
 3147              		.loc 3 40 0
 3148 0775 740B     		je	.L113	 #,
 3149              		.loc 3 41 0
 3150 0777 69D017CD 		imul	edx, eax, 123456791	 # D.77723, i,
 3150      5B07
 3151 077d 41895485 		mov	DWORD PTR 0[r13+rax*4], edx	 # *_434, D.77723
 3151      00
 3152              	.L113:
 3153              	.LVL288:
 3154              	.LBE735:
 3155              	.LBB736:
 3156              	.LBB737:
  25:timer.h       ****     }
 3157              		.loc 2 25 0
 3158 0782 4889D9   		mov	rcx, rbx	 #, tmp862
 3159              	.LBE737:
 3160              	.LBE736:
  42:TestRadixSort.cpp ****     t.Start();
  43:TestRadixSort.cpp ****     RadixSortPass<Key,Data,0,12> (keys, data, outkeys, outdata, DATASET);
  44:TestRadixSort.cpp ****     t.Stop();  speed = DATASET/(t.Elapsed()/1000);
 3161              		.loc 3 44 0
 3162 0785 66450F28 		movapd	xmm13, xmm8	 # speed, tmp860
 3162      E8
 3163              	.LBB739:
 3164              	.LBB738:
  25:timer.h       ****     }
 3165              		.loc 2 25 0
 3166 078a FFD6     		call	rsi	 # tmp861
 3167              	.LVL289:
 3168              	.LBE738:
 3169              	.LBE739:
  43:TestRadixSort.cpp ****     t.Stop();  speed = DATASET/(t.Elapsed()/1000);
 3170              		.loc 3 43 0
 3171 078c 4D89E1   		mov	r9, r12	 #, outdata
 3172 078f 4989E8   		mov	r8, rbp	 #, outkeys
 3173 0792 4889FA   		mov	rdx, rdi	 #, data
 3174 0795 48C74424 		mov	QWORD PTR 32[rsp], 104857600	 #,
 3174      20000040 
 3174      06
 3175 079e 4C89E9   		mov	rcx, r13	 #, keys
 3176 07a1 E8000000 		call	_Z13RadixSortPassIjjLi0ELi12EEvPKT_PKT0_PS0_PS3_y	 #
 3176      00
 3177              	.LVL290:
 3178              	.LBB740:
 3179              	.LBB741:
  30:timer.h       ****     }
 3180              		.loc 2 30 0
 3181 07a6 488D4B08 		lea	rcx, 8[rbx]	 # tmp689,
 3182 07aa FFD6     		call	rsi	 # tmp861
 3183              	.LVL291:
 3184              	.LBE741:
 3185              	.LBE740:
 3186              	.LBB742:
 3187              	.LBB743:
  36:timer.h       ****                                           * 1000.0 / m_freq.QuadPart;
 3188              		.loc 2 36 0
 3189 07ac 488B4424 		mov	rax, QWORD PTR 56[rsp]	 # t.m_stop.QuadPart, t.m_stop.QuadPart
 3189      38
  37:timer.h       ****     }
 3190              		.loc 2 37 0
 3191 07b1 660FEFC0 		pxor	xmm0, xmm0	 # D.77726
 3192 07b5 660FEFC9 		pxor	xmm1, xmm1	 # D.77726
  36:timer.h       ****                                           * 1000.0 / m_freq.QuadPart;
 3193              		.loc 2 36 0
 3194 07b9 482B4424 		sub	rax, QWORD PTR 48[rsp]	 # D.77725, t.m_start.QuadPart
 3194      30
 3195              	.LBE743:
 3196              	.LBE742:
  45:TestRadixSort.cpp ****     printf("Sorting %d MiB", int(DATASET>>20));
 3197              		.loc 3 45 0
 3198 07be BA640000 		mov	edx, 100	 #,
 3198      00
 3199              	.LBB746:
 3200              	.LBB744:
  36:timer.h       ****                                           * 1000.0 / m_freq.QuadPart;
 3201              		.loc 2 36 0
 3202 07c3 482B4424 		sub	rax, QWORD PTR 72[rsp]	 # D.77725, t.m_overhead
 3202      48
  37:timer.h       ****     }
 3203              		.loc 2 37 0
 3204 07c8 F2480F2A 		cvtsi2sdq	xmm1, QWORD PTR 64[rsp]	 # D.77726, t.m_freq.QuadPart
 3204      4C2440
 3205              	.LBE744:
 3206              	.LBE746:
 3207              		.loc 3 45 0
 3208 07cf 488D0D39 		lea	rcx, .LC8[rip]	 #,
 3208      000000
 3209              	.LBB747:
 3210              	.LBB745:
  37:timer.h       ****     }
 3211              		.loc 2 37 0
 3212 07d6 F2480F2A 		cvtsi2sdq	xmm0, rax	 # D.77726, D.77725
 3212      C0
 3213 07db F20F59C7 		mulsd	xmm0, xmm7	 # D.77726, tmp854
 3214 07df F20F5EC1 		divsd	xmm0, xmm1	 # D.77726, D.77726
 3215              	.LBE745:
 3216              	.LBE747:
  44:TestRadixSort.cpp ****     printf("Sorting %d MiB", int(DATASET>>20));
 3217              		.loc 3 44 0
 3218 07e3 F20F5EC7 		divsd	xmm0, xmm7	 # D.77726, tmp854
 3219 07e7 F2440F5E 		divsd	xmm13, xmm0	 # speed, D.77726
 3219      E8
 3220              	.LVL292:
 3221              		.loc 3 45 0
 3222 07ec E8000000 		call	printf	 #
 3222      00
 3223              	.LVL293:
 3224              	.LBB748:
 3225              	.LBB749:
  36:timer.h       ****                                           * 1000.0 / m_freq.QuadPart;
 3226              		.loc 2 36 0
 3227 07f1 488B4424 		mov	rax, QWORD PTR 56[rsp]	 # t.m_stop.QuadPart, t.m_stop.QuadPart
 3227      38
  37:timer.h       ****     }
 3228              		.loc 2 37 0
 3229 07f6 660FEFC0 		pxor	xmm0, xmm0	 # D.77726
 3230 07fa 660FEFD2 		pxor	xmm2, xmm2	 # D.77726
  36:timer.h       ****                                           * 1000.0 / m_freq.QuadPart;
 3231              		.loc 2 36 0
 3232 07fe 482B4424 		sub	rax, QWORD PTR 48[rsp]	 # D.77725, t.m_start.QuadPart
 3232      30
 3233              	.LBE749:
 3234              	.LBE748:
  46:TestRadixSort.cpp ****     printf(": %.3lf milliseconds = %.3lf MB/s = %.3lf MiB/s\n\n", t.Elapsed(), speed/1e6, speed/(1<
 3235              		.loc 3 46 0
 3236 0803 488D0D48 		lea	rcx, .LC9[rip]	 #,
 3236      000000
 3237              	.LBB751:
 3238              	.LBB750:
  36:timer.h       ****                                           * 1000.0 / m_freq.QuadPart;
 3239              		.loc 2 36 0
 3240 080a 482B4424 		sub	rax, QWORD PTR 72[rsp]	 # D.77725, t.m_overhead
 3240      48
  37:timer.h       ****     }
 3241              		.loc 2 37 0
 3242 080f F2480F2A 		cvtsi2sdq	xmm2, QWORD PTR 64[rsp]	 # D.77726, t.m_freq.QuadPart
 3242      542440
 3243 0816 F2480F2A 		cvtsi2sdq	xmm0, rax	 # D.77726, D.77725
 3243      C0
 3244 081b F20F59C7 		mulsd	xmm0, xmm7	 # D.77726, tmp854
 3245 081f F20F5EC2 		divsd	xmm0, xmm2	 # D.77726, D.77726
 3246              	.LBE750:
 3247              	.LBE751:
 3248              		.loc 3 46 0
 3249 0823 66410F28 		movapd	xmm1, xmm13	 # D.77726, speed
 3249      CD
 3250 0828 F2410F59 		mulsd	xmm1, xmm9	 # D.77726, tmp855
 3250      C9
 3251 082d 660F28D9 		movapd	xmm3, xmm1	 #, D.77726
 3252 0831 66490F7E 		movq	r9, xmm1	 #, D.77726
 3252      C9
 3253 0836 F2450F5E 		divsd	xmm13, xmm10	 # D.77726, tmp856
 3253      EA
 3254              	.LVL294:
 3255 083b 660F28C8 		movapd	xmm1, xmm0	 #, D.77726
 3256 083f 66480F7E 		movq	rdx, xmm0	 #, D.77726
 3256      C2
 3257 0844 66410F28 		movapd	xmm2, xmm13	 #, D.77726
 3257      D5
 3258 0849 664D0F7E 		movq	r8, xmm13	 #, D.77726
 3258      E8
 3259 084e E8000000 		call	printf	 #
 3259      00
 3260              	.LVL295:
 3261 0853 4D85F6   		test	r14, r14	 # prolog_loop_niters.271
 3262 0856 0F842C04 		je	.L139	 #,
 3262      0000
 3263 085c 4983FE01 		cmp	r14, 1	 # prolog_loop_niters.271,
 3264              	.LBB752:
  47:TestRadixSort.cpp **** 
  48:TestRadixSort.cpp ****     for (size_t i=0; i<DATASET; i++)
  49:TestRadixSort.cpp ****         keys[i] = i*123456791;
 3265              		.loc 3 49 0
 3266 0860 41C74500 		mov	DWORD PTR 0[r13], 0	 # *keys_15,
 3266      00000000 
 3267              	.LVL296:
 3268 0868 0F842E05 		je	.L140	 #,
 3268      0000
 3269 086e 4983FE03 		cmp	r14, 3	 # prolog_loop_niters.271,
 3270 0872 41C74504 		mov	DWORD PTR 4[r13], 123456791	 # MEM[(unsigned int *)keys_15 + 4B],
 3270      17CD5B07 
 3271              	.LVL297:
 3272 087a 0F852D05 		jne	.L141	 #,
 3272      0000
 3273 0880 41C74508 		mov	DWORD PTR 8[r13], 246913582	 # MEM[(unsigned int *)keys_15 + 8B],
 3273      2E9AB70E 
 3274              	.LVL298:
 3275 0888 41BBFDFF 		mov	r11d, 104857597	 # D.77728,
 3275      3F06
  48:TestRadixSort.cpp ****         keys[i] = i*123456791;
 3276              		.loc 3 48 0
 3277 088e 41B80300 		mov	r8d, 3	 # i,
 3277      0000
 3278              	.LVL299:
 3279              	.L116:
 3280 0894 41B90000 		mov	r9d, 104857600	 # tmp729,
 3280      4006
 3281 089a 41BAFCFF 		mov	r10d, 104857596	 # ratio_mult_vf.198,
 3281      3F06
 3282 08a0 B9FFFF8F 		mov	ecx, 26214399	 # bnd.197,
 3282      01
 3283 08a5 4D29F1   		sub	r9, r14	 # niters.196, prolog_loop_niters.271
 3284              	.L115:
 3285 08a8 498D4001 		lea	rax, 1[r8]	 # stmp_var_.201,
 3286 08ac 66490F6E 		movq	xmm2, r8	 # vect_vec_iv_.204, i
 3286      D0
 3287 08b1 66410F6F 		movdqa	xmm3, xmm12	 # vect_cst_.203, vect_cst_.184
 3287      DC
 3288 08b6 66480F6E 		movq	xmm5, rax	 # stmp_var_.201, stmp_var_.201
 3288      E8
 3289              	.LBE752:
  46:TestRadixSort.cpp ****     printf(": %.3lf milliseconds = %.3lf MB/s = %.3lf MiB/s\n\n", t.Elapsed(), speed/1e6, speed/(1<
 3290              		.loc 3 46 0
 3291 08bb 31D2     		xor	edx, edx	 # ivtmp.296
 3292 08bd 4B8D44B5 		lea	rax, 0[r13+r14*4]	 # ivtmp.297,
 3292      00
 3293 08c2 660F6CD5 		punpcklqdq	xmm2, xmm5	 # vect_vec_iv_.204, stmp_var_.201
 3294 08c6 662E0F1F 		.p2align 4,,10
 3294      84000000 
 3294      0000
 3295              	.L117:
 3296 08d0 660F6FC2 		movdqa	xmm0, xmm2	 # vect_vec_iv_.204, vect_vec_iv_.204
 3297              	.LBB753:
 3298              		.loc 3 49 0 discriminator 3
 3299 08d4 660F6FE2 		movdqa	xmm4, xmm2	 # vect__81.206, vect_vec_iv_.204
 3300 08d8 4883C201 		add	rdx, 1	 # ivtmp.296,
 3301 08dc 66410FD4 		paddq	xmm0, xmm11	 # vect_vec_iv_.204, tmp858
 3301      C3
 3302 08e1 4883C010 		add	rax, 16	 # ivtmp.297,
 3303 08e5 660FD4D3 		paddq	xmm2, xmm3	 # vect_vec_iv_.204, vect_cst_.203
 3304 08e9 0FC6E088 		shufps	xmm4, xmm0, 136	 # vect__81.206, vect_vec_iv_.204,
 3305 08ed 660F6FC4 		movdqa	xmm0, xmm4	 # vect__81.206, vect__81.206
 3306 08f1 660F6FCC 		movdqa	xmm1, xmm4	 # tmp739, vect__81.206
 3307 08f5 660F73D0 		psrlq	xmm0, 32	 # tmp743,
 3307      20
 3308 08fa 660FF4CE 		pmuludq	xmm1, xmm6	 # tmp739, tmp859
 3309 08fe 660FF4C6 		pmuludq	xmm0, xmm6	 # tmp740, tmp859
 3310 0902 660F70C9 		pshufd	xmm1, xmm1, 8	 # tmp737, tmp739,
 3310      08
 3311 0907 660F70C0 		pshufd	xmm0, xmm0, 8	 # tmp738, tmp740,
 3311      08
 3312 090c 660F62C8 		punpckldq	xmm1, xmm0	 # vect__82.207, tmp738
 3313 0910 0F2948F0 		movaps	XMMWORD PTR -16[rax], xmm1	 # MEM[base: _641, offset: 0B], vect__82.207
 3314 0914 4839CA   		cmp	rdx, rcx	 # ivtmp.296, bnd.197
 3315 0917 72B7     		jb	.L117	 #,
 3316 0919 4B8D0410 		lea	rax, [r8+r10]	 # i,
 3317 091d 4C89DA   		mov	rdx, r11	 # D.77728, D.77728
 3318 0920 4C29D2   		sub	rdx, r10	 # D.77728, ratio_mult_vf.198
 3319 0923 4D39D1   		cmp	r9, r10	 # niters.196, ratio_mult_vf.198
 3320 0926 7436     		je	.L119	 #,
 3321              	.LVL300:
 3322              		.loc 3 49 0 is_stmt 0
 3323 0928 69C817CD 		imul	ecx, eax, 123456791	 # D.77723, i,
 3323      5B07
  48:TestRadixSort.cpp ****         keys[i] = i*123456791;
 3324              		.loc 3 48 0 is_stmt 1
 3325 092e 4883FA01 		cmp	rdx, 1	 # D.77728,
 3326              		.loc 3 49 0
 3327 0932 41894C85 		mov	DWORD PTR 0[r13+rax*4], ecx	 # *_27, D.77723
 3327      00
  48:TestRadixSort.cpp ****         keys[i] = i*123456791;
 3328              		.loc 3 48 0
 3329 0937 488D4801 		lea	rcx, 1[rax]	 # i,
 3330              	.LVL301:
 3331 093b 7421     		je	.L119	 #,
 3332              		.loc 3 49 0
 3333 093d 4469C117 		imul	r8d, ecx, 123456791	 # D.77723, i,
 3333      CD5B07
  48:TestRadixSort.cpp ****         keys[i] = i*123456791;
 3334              		.loc 3 48 0
 3335 0944 4883C002 		add	rax, 2	 # i,
 3336 0948 4883FA02 		cmp	rdx, 2	 # D.77728,
 3337              		.loc 3 49 0
 3338 094c 4589448D 		mov	DWORD PTR 0[r13+rcx*4], r8d	 # *_55, D.77723
 3338      00
 3339              	.LVL302:
  48:TestRadixSort.cpp ****         keys[i] = i*123456791;
 3340              		.loc 3 48 0
 3341 0951 740B     		je	.L119	 #,
 3342              		.loc 3 49 0
 3343 0953 69D017CD 		imul	edx, eax, 123456791	 # D.77723, i,
 3343      5B07
 3344 0959 41895485 		mov	DWORD PTR 0[r13+rax*4], edx	 # *_361, D.77723
 3344      00
 3345              	.L119:
 3346              	.LVL303:
 3347              	.LBE753:
 3348              	.LBB754:
 3349              	.LBB755:
  25:timer.h       ****     }
 3350              		.loc 2 25 0
 3351 095e 4889D9   		mov	rcx, rbx	 #, tmp862
 3352              	.LBE755:
 3353              	.LBE754:
  50:TestRadixSort.cpp ****     t.Start();
  51:TestRadixSort.cpp ****     RadixSortPass<Key,Data,0,16> (keys, data, outkeys, outdata, DATASET);
  52:TestRadixSort.cpp ****     t.Stop();  speed = DATASET/(t.Elapsed()/1000);
 3354              		.loc 3 52 0
 3355 0961 66450F28 		movapd	xmm13, xmm8	 # speed, tmp860
 3355      E8
 3356              	.LBB757:
 3357              	.LBB756:
  25:timer.h       ****     }
 3358              		.loc 2 25 0
 3359 0966 FFD6     		call	rsi	 # tmp861
 3360              	.LVL304:
 3361              	.LBE756:
 3362              	.LBE757:
  51:TestRadixSort.cpp ****     t.Stop();  speed = DATASET/(t.Elapsed()/1000);
 3363              		.loc 3 51 0
 3364 0968 4D89E1   		mov	r9, r12	 #, outdata
 3365 096b 4989E8   		mov	r8, rbp	 #, outkeys
 3366 096e 4889FA   		mov	rdx, rdi	 #, data
 3367 0971 48C74424 		mov	QWORD PTR 32[rsp], 104857600	 #,
 3367      20000040 
 3367      06
 3368 097a 4C89E9   		mov	rcx, r13	 #, keys
 3369 097d E8000000 		call	_Z13RadixSortPassIjjLi0ELi16EEvPKT_PKT0_PS0_PS3_y	 #
 3369      00
 3370              	.LVL305:
 3371              	.LBB758:
 3372              	.LBB759:
  30:timer.h       ****     }
 3373              		.loc 2 30 0
 3374 0982 488D4B08 		lea	rcx, 8[rbx]	 # tmp751,
 3375 0986 FFD6     		call	rsi	 # tmp861
 3376              	.LVL306:
 3377              	.LBE759:
 3378              	.LBE758:
 3379              	.LBB760:
 3380              	.LBB761:
  36:timer.h       ****                                           * 1000.0 / m_freq.QuadPart;
 3381              		.loc 2 36 0
 3382 0988 488B4424 		mov	rax, QWORD PTR 56[rsp]	 # t.m_stop.QuadPart, t.m_stop.QuadPart
 3382      38
  37:timer.h       ****     }
 3383              		.loc 2 37 0
 3384 098d 660FEFC0 		pxor	xmm0, xmm0	 # D.77726
 3385 0991 660FEFC9 		pxor	xmm1, xmm1	 # D.77726
  36:timer.h       ****                                           * 1000.0 / m_freq.QuadPart;
 3386              		.loc 2 36 0
 3387 0995 482B4424 		sub	rax, QWORD PTR 48[rsp]	 # D.77725, t.m_start.QuadPart
 3387      30
 3388              	.LBE761:
 3389              	.LBE760:
  53:TestRadixSort.cpp ****     printf("Sorting %d MiB", int(DATASET>>20));
 3390              		.loc 3 53 0
 3391 099a BA640000 		mov	edx, 100	 #,
 3391      00
 3392              	.LBB764:
 3393              	.LBB762:
  36:timer.h       ****                                           * 1000.0 / m_freq.QuadPart;
 3394              		.loc 2 36 0
 3395 099f 482B4424 		sub	rax, QWORD PTR 72[rsp]	 # D.77725, t.m_overhead
 3395      48
  37:timer.h       ****     }
 3396              		.loc 2 37 0
 3397 09a4 F2480F2A 		cvtsi2sdq	xmm1, QWORD PTR 64[rsp]	 # D.77726, t.m_freq.QuadPart
 3397      4C2440
 3398              	.LBE762:
 3399              	.LBE764:
 3400              		.loc 3 53 0
 3401 09ab 488D0D39 		lea	rcx, .LC8[rip]	 #,
 3401      000000
 3402              	.LBB765:
 3403              	.LBB763:
  37:timer.h       ****     }
 3404              		.loc 2 37 0
 3405 09b2 F2480F2A 		cvtsi2sdq	xmm0, rax	 # D.77726, D.77725
 3405      C0
 3406 09b7 F20F59C7 		mulsd	xmm0, xmm7	 # D.77726, tmp854
 3407 09bb F20F5EC1 		divsd	xmm0, xmm1	 # D.77726, D.77726
 3408              	.LBE763:
 3409              	.LBE765:
  52:TestRadixSort.cpp ****     printf("Sorting %d MiB", int(DATASET>>20));
 3410              		.loc 3 52 0
 3411 09bf F20F5EC7 		divsd	xmm0, xmm7	 # D.77726, tmp854
 3412 09c3 F2440F5E 		divsd	xmm13, xmm0	 # speed, D.77726
 3412      E8
 3413              	.LVL307:
 3414              		.loc 3 53 0
 3415 09c8 E8000000 		call	printf	 #
 3415      00
 3416              	.LVL308:
 3417              	.LBB766:
 3418              	.LBB767:
  36:timer.h       ****                                           * 1000.0 / m_freq.QuadPart;
 3419              		.loc 2 36 0
 3420 09cd 488B4424 		mov	rax, QWORD PTR 56[rsp]	 # t.m_stop.QuadPart, t.m_stop.QuadPart
 3420      38
  37:timer.h       ****     }
 3421              		.loc 2 37 0
 3422 09d2 660FEFC0 		pxor	xmm0, xmm0	 # D.77726
 3423 09d6 660FEFD2 		pxor	xmm2, xmm2	 # D.77726
  36:timer.h       ****                                           * 1000.0 / m_freq.QuadPart;
 3424              		.loc 2 36 0
 3425 09da 482B4424 		sub	rax, QWORD PTR 48[rsp]	 # D.77725, t.m_start.QuadPart
 3425      30
 3426              	.LBE767:
 3427              	.LBE766:
  54:TestRadixSort.cpp ****     printf(": %.3lf milliseconds = %.3lf MB/s = %.3lf MiB/s\n\n", t.Elapsed(), speed/1e6, speed/(1<
 3428              		.loc 3 54 0
 3429 09df 488D0D48 		lea	rcx, .LC9[rip]	 #,
 3429      000000
 3430              	.LBB769:
 3431              	.LBB768:
  36:timer.h       ****                                           * 1000.0 / m_freq.QuadPart;
 3432              		.loc 2 36 0
 3433 09e6 482B4424 		sub	rax, QWORD PTR 72[rsp]	 # D.77725, t.m_overhead
 3433      48
  37:timer.h       ****     }
 3434              		.loc 2 37 0
 3435 09eb F2480F2A 		cvtsi2sdq	xmm2, QWORD PTR 64[rsp]	 # D.77726, t.m_freq.QuadPart
 3435      542440
 3436 09f2 F2480F2A 		cvtsi2sdq	xmm0, rax	 # D.77726, D.77725
 3436      C0
 3437 09f7 F20F59C7 		mulsd	xmm0, xmm7	 # D.77726, tmp854
 3438 09fb F20F5EC2 		divsd	xmm0, xmm2	 # D.77726, D.77726
 3439              	.LBE768:
 3440              	.LBE769:
 3441              		.loc 3 54 0
 3442 09ff 66410F28 		movapd	xmm1, xmm13	 # D.77726, speed
 3442      CD
 3443 0a04 F2410F59 		mulsd	xmm1, xmm9	 # D.77726, tmp855
 3443      C9
 3444 0a09 660F28D9 		movapd	xmm3, xmm1	 #, D.77726
 3445 0a0d 66490F7E 		movq	r9, xmm1	 #, D.77726
 3445      C9
 3446 0a12 F2450F5E 		divsd	xmm13, xmm10	 # D.77726, tmp856
 3446      EA
 3447              	.LVL309:
 3448 0a17 660F28C8 		movapd	xmm1, xmm0	 #, D.77726
 3449 0a1b 66480F7E 		movq	rdx, xmm0	 #, D.77726
 3449      C2
 3450 0a20 66410F28 		movapd	xmm2, xmm13	 #, D.77726
 3450      D5
 3451 0a25 664D0F7E 		movq	r8, xmm13	 #, D.77726
 3451      E8
 3452 0a2a E8000000 		call	printf	 #
 3452      00
 3453              	.LVL310:
 3454 0a2f 4D85F6   		test	r14, r14	 # prolog_loop_niters.271
 3455 0a32 0F843302 		je	.L142	 #,
 3455      0000
 3456 0a38 4983FE01 		cmp	r14, 1	 # prolog_loop_niters.271,
 3457              	.LBB770:
  55:TestRadixSort.cpp **** 
  56:TestRadixSort.cpp ****     for (size_t i=0; i<DATASET; i++)
  57:TestRadixSort.cpp ****         keys[i] = i*123456791;
 3458              		.loc 3 57 0
 3459 0a3c 41C74500 		mov	DWORD PTR 0[r13], 0	 # *keys_15,
 3459      00000000 
 3460              	.LVL311:
 3461 0a44 0F847403 		je	.L143	 #,
 3461      0000
 3462 0a4a 4983FE03 		cmp	r14, 3	 # prolog_loop_niters.271,
 3463 0a4e 41C74504 		mov	DWORD PTR 4[r13], 123456791	 # MEM[(unsigned int *)keys_15 + 4B],
 3463      17CD5B07 
 3464              	.LVL312:
 3465 0a56 0F85A802 		jne	.L144	 #,
 3465      0000
 3466 0a5c 41C74508 		mov	DWORD PTR 8[r13], 246913582	 # MEM[(unsigned int *)keys_15 + 8B],
 3466      2E9AB70E 
 3467              	.LVL313:
 3468 0a64 41B9FDFF 		mov	r9d, 104857597	 # D.77728,
 3468      3F06
  56:TestRadixSort.cpp ****         keys[i] = i*123456791;
 3469              		.loc 3 56 0
 3470 0a6a BA030000 		mov	edx, 3	 # i,
 3470      00
 3471              	.LVL314:
 3472              	.L122:
 3473 0a6f B9000040 		mov	ecx, 104857600	 # tmp791,
 3473      06
 3474 0a74 B8FFFF8F 		mov	eax, 26214399	 # bnd.178,
 3474      01
 3475 0a79 41B8FCFF 		mov	r8d, 104857596	 # ratio_mult_vf.179,
 3475      3F06
 3476 0a7f 4C29F1   		sub	rcx, r14	 # niters.177, prolog_loop_niters.271
 3477              	.L121:
 3478 0a82 4C8D5201 		lea	r10, 1[rdx]	 # stmp_var_.182,
 3479 0a86 66480F6E 		movq	xmm2, rdx	 # vect_vec_iv_.185, i
 3479      D2
 3480 0a8b 4F8D5CB5 		lea	r11, 0[r13+r14*4]	 # ivtmp.291,
 3480      00
 3481 0a90 66490F6E 		movq	xmm5, r10	 # stmp_var_.182, stmp_var_.182
 3481      EA
 3482              	.LBE770:
  54:TestRadixSort.cpp ****     printf(": %.3lf milliseconds = %.3lf MB/s = %.3lf MiB/s\n\n", t.Elapsed(), speed/1e6, speed/(1<
 3483              		.loc 3 54 0
 3484 0a95 4531D2   		xor	r10d, r10d	 # ivtmp.290
 3485 0a98 660F6CD5 		punpcklqdq	xmm2, xmm5	 # vect_vec_iv_.185, stmp_var_.182
 3486 0a9c 0F1F4000 		.p2align 4,,10
 3487              	.L123:
 3488 0aa0 660F6FC2 		movdqa	xmm0, xmm2	 # vect_vec_iv_.185, vect_vec_iv_.185
 3489              	.LBB771:
 3490              		.loc 3 57 0 discriminator 3
 3491 0aa4 660F6FDA 		movdqa	xmm3, xmm2	 # vect__95.187, vect_vec_iv_.185
 3492 0aa8 4983C201 		add	r10, 1	 # ivtmp.290,
 3493 0aac 66410FD4 		paddq	xmm0, xmm11	 # vect_vec_iv_.185, tmp858
 3493      C3
 3494 0ab1 4983C310 		add	r11, 16	 # ivtmp.291,
 3495 0ab5 66410FD4 		paddq	xmm2, xmm12	 # vect_vec_iv_.185, vect_cst_.184
 3495      D4
 3496 0aba 0FC6D888 		shufps	xmm3, xmm0, 136	 # vect__95.187, vect_vec_iv_.185,
 3497 0abe 660F6FC3 		movdqa	xmm0, xmm3	 # vect__95.187, vect__95.187
 3498 0ac2 660F6FCB 		movdqa	xmm1, xmm3	 # tmp801, vect__95.187
 3499 0ac6 660F73D0 		psrlq	xmm0, 32	 # tmp805,
 3499      20
 3500 0acb 660FF4CE 		pmuludq	xmm1, xmm6	 # tmp801, tmp859
 3501 0acf 660FF4C6 		pmuludq	xmm0, xmm6	 # tmp802, tmp859
 3502 0ad3 660F70C9 		pshufd	xmm1, xmm1, 8	 # tmp799, tmp801,
 3502      08
 3503 0ad8 660F70C0 		pshufd	xmm0, xmm0, 8	 # tmp800, tmp802,
 3503      08
 3504 0add 660F62C8 		punpckldq	xmm1, xmm0	 # vect__96.188, tmp800
 3505 0ae1 410F294B 		movaps	XMMWORD PTR -16[r11], xmm1	 # MEM[base: _255, offset: 0B], vect__96.188
 3505      F0
 3506 0ae6 4C39D0   		cmp	rax, r10	 # bnd.178, ivtmp.290
 3507 0ae9 77B5     		ja	.L123	 #,
 3508 0aeb 4A8D0402 		lea	rax, [rdx+r8]	 # i,
 3509 0aef 4C89CA   		mov	rdx, r9	 # D.77728, D.77728
 3510 0af2 4C29C2   		sub	rdx, r8	 # D.77728, ratio_mult_vf.179
 3511 0af5 4939C8   		cmp	r8, rcx	 # ratio_mult_vf.179, niters.177
 3512 0af8 7436     		je	.L125	 #,
 3513              	.LVL315:
 3514              		.loc 3 57 0 is_stmt 0
 3515 0afa 69C817CD 		imul	ecx, eax, 123456791	 # D.77723, i,
 3515      5B07
  56:TestRadixSort.cpp ****         keys[i] = i*123456791;
 3516              		.loc 3 56 0 is_stmt 1
 3517 0b00 4883FA01 		cmp	rdx, 1	 # D.77728,
 3518              		.loc 3 57 0
 3519 0b04 41894C85 		mov	DWORD PTR 0[r13+rax*4], ecx	 # *_287, D.77723
 3519      00
  56:TestRadixSort.cpp ****         keys[i] = i*123456791;
 3520              		.loc 3 56 0
 3521 0b09 488D4801 		lea	rcx, 1[rax]	 # i,
 3522              	.LVL316:
 3523 0b0d 7421     		je	.L125	 #,
 3524              		.loc 3 57 0
 3525 0b0f 4469C117 		imul	r8d, ecx, 123456791	 # D.77723, i,
 3525      CD5B07
  56:TestRadixSort.cpp ****         keys[i] = i*123456791;
 3526              		.loc 3 56 0
 3527 0b16 4883C002 		add	rax, 2	 # i,
 3528 0b1a 4883FA02 		cmp	rdx, 2	 # D.77728,
 3529              		.loc 3 57 0
 3530 0b1e 4589448D 		mov	DWORD PTR 0[r13+rcx*4], r8d	 # *_349, D.77723
 3530      00
 3531              	.LVL317:
  56:TestRadixSort.cpp ****         keys[i] = i*123456791;
 3532              		.loc 3 56 0
 3533 0b23 740B     		je	.L125	 #,
 3534              		.loc 3 57 0
 3535 0b25 69D017CD 		imul	edx, eax, 123456791	 # D.77723, i,
 3535      5B07
 3536 0b2b 41895485 		mov	DWORD PTR 0[r13+rax*4], edx	 # *_288, D.77723
 3536      00
 3537              	.L125:
 3538              	.LVL318:
 3539              	.LBE771:
 3540              	.LBB772:
 3541              	.LBB773:
  25:timer.h       ****     }
 3542              		.loc 2 25 0
 3543 0b30 4889D9   		mov	rcx, rbx	 #, tmp862
 3544 0b33 FFD6     		call	rsi	 # tmp861
 3545              	.LVL319:
 3546              	.LBE773:
 3547              	.LBE772:
  58:TestRadixSort.cpp ****     t.Start();
  59:TestRadixSort.cpp ****     RadixSortPass<Key,Data,0,20> (keys, data, outkeys, outdata, DATASET);
 3548              		.loc 3 59 0
 3549 0b35 4D89E1   		mov	r9, r12	 #, outdata
 3550 0b38 4989E8   		mov	r8, rbp	 #, outkeys
 3551 0b3b 4889FA   		mov	rdx, rdi	 #, data
 3552 0b3e 48C74424 		mov	QWORD PTR 32[rsp], 104857600	 #,
 3552      20000040 
 3552      06
 3553 0b47 4C89E9   		mov	rcx, r13	 #, keys
 3554 0b4a E8000000 		call	_Z13RadixSortPassIjjLi0ELi20EEvPKT_PKT0_PS0_PS3_y	 #
 3554      00
 3555              	.LVL320:
 3556              	.LBB774:
 3557              	.LBB775:
  30:timer.h       ****     }
 3558              		.loc 2 30 0
 3559 0b4f 488D4B08 		lea	rcx, 8[rbx]	 # tmp813,
 3560 0b53 FFD6     		call	rsi	 # tmp861
 3561              	.LVL321:
 3562              	.LBE775:
 3563              	.LBE774:
 3564              	.LBB776:
 3565              	.LBB777:
  36:timer.h       ****                                           * 1000.0 / m_freq.QuadPart;
 3566              		.loc 2 36 0
 3567 0b55 488B4424 		mov	rax, QWORD PTR 56[rsp]	 # t.m_stop.QuadPart, t.m_stop.QuadPart
 3567      38
  37:timer.h       ****     }
 3568              		.loc 2 37 0
 3569 0b5a 660FEFC0 		pxor	xmm0, xmm0	 # D.77726
 3570 0b5e 660FEFC9 		pxor	xmm1, xmm1	 # D.77726
  36:timer.h       ****                                           * 1000.0 / m_freq.QuadPart;
 3571              		.loc 2 36 0
 3572 0b62 482B4424 		sub	rax, QWORD PTR 48[rsp]	 # D.77725, t.m_start.QuadPart
 3572      30
 3573              	.LBE777:
 3574              	.LBE776:
  60:TestRadixSort.cpp ****     t.Stop();  speed = DATASET/(t.Elapsed()/1000);
  61:TestRadixSort.cpp ****     printf("Sorting %d MiB", int(DATASET>>20));
 3575              		.loc 3 61 0
 3576 0b67 BA640000 		mov	edx, 100	 #,
 3576      00
 3577              	.LBB780:
 3578              	.LBB778:
  36:timer.h       ****                                           * 1000.0 / m_freq.QuadPart;
 3579              		.loc 2 36 0
 3580 0b6c 482B4424 		sub	rax, QWORD PTR 72[rsp]	 # D.77725, t.m_overhead
 3580      48
  37:timer.h       ****     }
 3581              		.loc 2 37 0
 3582 0b71 F2480F2A 		cvtsi2sdq	xmm1, QWORD PTR 64[rsp]	 # D.77726, t.m_freq.QuadPart
 3582      4C2440
 3583              	.LBE778:
 3584              	.LBE780:
 3585              		.loc 3 61 0
 3586 0b78 488D0D39 		lea	rcx, .LC8[rip]	 #,
 3586      000000
 3587              	.LBB781:
 3588              	.LBB779:
  37:timer.h       ****     }
 3589              		.loc 2 37 0
 3590 0b7f F2480F2A 		cvtsi2sdq	xmm0, rax	 # D.77726, D.77725
 3590      C0
 3591 0b84 F20F59C7 		mulsd	xmm0, xmm7	 # D.77726, tmp854
 3592 0b88 F20F5EC1 		divsd	xmm0, xmm1	 # D.77726, D.77726
 3593              	.LBE779:
 3594              	.LBE781:
  60:TestRadixSort.cpp ****     t.Stop();  speed = DATASET/(t.Elapsed()/1000);
 3595              		.loc 3 60 0
 3596 0b8c F20F5EC7 		divsd	xmm0, xmm7	 # D.77726, tmp854
 3597 0b90 F2440F5E 		divsd	xmm8, xmm0	 # speed, D.77726
 3597      C0
 3598              	.LVL322:
 3599              		.loc 3 61 0
 3600 0b95 E8000000 		call	printf	 #
 3600      00
 3601              	.LVL323:
 3602              	.LBB782:
 3603              	.LBB783:
  36:timer.h       ****                                           * 1000.0 / m_freq.QuadPart;
 3604              		.loc 2 36 0
 3605 0b9a 488B4424 		mov	rax, QWORD PTR 56[rsp]	 # t.m_stop.QuadPart, t.m_stop.QuadPart
 3605      38
  37:timer.h       ****     }
 3606              		.loc 2 37 0
 3607 0b9f 660FEFC0 		pxor	xmm0, xmm0	 # D.77726
 3608              	.LBE783:
 3609              	.LBE782:
  62:TestRadixSort.cpp ****     printf(": %.3lf milliseconds = %.3lf MB/s = %.3lf MiB/s\n\n", t.Elapsed(), speed/1e6, speed/(1<
 3610              		.loc 3 62 0
 3611 0ba3 488D0D48 		lea	rcx, .LC9[rip]	 #,
 3611      000000
 3612              	.LBB785:
 3613              	.LBB784:
  36:timer.h       ****                                           * 1000.0 / m_freq.QuadPart;
 3614              		.loc 2 36 0
 3615 0baa 482B4424 		sub	rax, QWORD PTR 48[rsp]	 # D.77725, t.m_start.QuadPart
 3615      30
 3616 0baf 482B4424 		sub	rax, QWORD PTR 72[rsp]	 # D.77725, t.m_overhead
 3616      48
  37:timer.h       ****     }
 3617              		.loc 2 37 0
 3618 0bb4 F2480F2A 		cvtsi2sdq	xmm0, rax	 # D.77726, D.77725
 3618      C0
 3619 0bb9 F20F59F8 		mulsd	xmm7, xmm0	 # D.77726, D.77726
 3620 0bbd 660FEFC0 		pxor	xmm0, xmm0	 # D.77726
 3621 0bc1 F2480F2A 		cvtsi2sdq	xmm0, QWORD PTR 64[rsp]	 # D.77726, t.m_freq.QuadPart
 3621      442440
 3622 0bc8 F20F5EF8 		divsd	xmm7, xmm0	 # D.77726, D.77726
 3623              	.LBE784:
 3624              	.LBE785:
 3625              		.loc 3 62 0
 3626 0bcc F2450F59 		mulsd	xmm9, xmm8	 # D.77726, speed
 3626      C8
 3627 0bd1 66410F28 		movapd	xmm3, xmm9	 #, D.77726
 3627      D9
 3628 0bd6 664D0F7E 		movq	r9, xmm9	 #, D.77726
 3628      C9
 3629 0bdb F2450F5E 		divsd	xmm8, xmm10	 # D.77726, tmp856
 3629      C2
 3630              	.LVL324:
 3631 0be0 660F28CF 		movapd	xmm1, xmm7	 #, D.77726
 3632 0be4 66480F7E 		movq	rdx, xmm7	 #, D.77726
 3632      FA
 3633 0be9 66410F28 		movapd	xmm2, xmm8	 #, D.77726
 3633      D0
 3634 0bee 664D0F7E 		movq	r8, xmm8	 #, D.77726
 3634      C0
 3635 0bf3 E8000000 		call	printf	 #
 3635      00
 3636 0bf8 90       		nop
 3637              	.LVL325:
 3638              	.LBE660:
  63:TestRadixSort.cpp **** 
  64:TestRadixSort.cpp ****     return 0;
  65:TestRadixSort.cpp **** }
 3639              		.loc 3 65 0
 3640 0bf9 0F287424 		movaps	xmm6, XMMWORD PTR 80[rsp]	 #,
 3640      50
 3641 0bfe 31C0     		xor	eax, eax	 #
 3642 0c00 0F287C24 		movaps	xmm7, XMMWORD PTR 96[rsp]	 #,
 3642      60
 3643 0c05 440F2844 		movaps	xmm8, XMMWORD PTR 112[rsp]	 #,
 3643      2470
 3644 0c0b 440F288C 		movaps	xmm9, XMMWORD PTR 128[rsp]	 #,
 3644      24800000 
 3644      00
 3645 0c14 440F2894 		movaps	xmm10, XMMWORD PTR 144[rsp]	 #,
 3645      24900000 
 3645      00
 3646 0c1d 440F289C 		movaps	xmm11, XMMWORD PTR 160[rsp]	 #,
 3646      24A00000 
 3646      00
 3647 0c26 440F28A4 		movaps	xmm12, XMMWORD PTR 176[rsp]	 #,
 3647      24B00000 
 3647      00
 3648 0c2f 440F28AC 		movaps	xmm13, XMMWORD PTR 192[rsp]	 #,
 3648      24C00000 
 3648      00
 3649 0c38 4881C4D8 		add	rsp, 216	 #,
 3649      000000
 3650              		.cfi_remember_state
 3651              		.cfi_restore 30
 3652              		.cfi_restore 29
 3653              		.cfi_restore 28
 3654              		.cfi_restore 27
 3655              		.cfi_restore 26
 3656              		.cfi_restore 25
 3657              		.cfi_restore 24
 3658              		.cfi_restore 23
 3659              		.cfi_def_cfa_offset 72
 3660 0c3f 5B       		pop	rbx	 #
 3661              		.cfi_restore 3
 3662              		.cfi_def_cfa_offset 64
 3663              	.LVL326:
 3664 0c40 5E       		pop	rsi	 #
 3665              		.cfi_restore 4
 3666              		.cfi_def_cfa_offset 56
 3667 0c41 5F       		pop	rdi	 #
 3668              		.cfi_restore 5
 3669              		.cfi_def_cfa_offset 48
 3670              	.LVL327:
 3671 0c42 5D       		pop	rbp	 #
 3672              		.cfi_restore 6
 3673              		.cfi_def_cfa_offset 40
 3674              	.LVL328:
 3675 0c43 415C     		pop	r12	 #
 3676              		.cfi_restore 12
 3677              		.cfi_def_cfa_offset 32
 3678              	.LVL329:
 3679 0c45 415D     		pop	r13	 #
 3680              		.cfi_restore 13
 3681              		.cfi_def_cfa_offset 24
 3682              	.LVL330:
 3683 0c47 415E     		pop	r14	 #
 3684              		.cfi_restore 14
 3685              		.cfi_def_cfa_offset 16
 3686 0c49 415F     		pop	r15	 #
 3687              		.cfi_restore 15
 3688              		.cfi_def_cfa_offset 8
 3689 0c4b C3       		ret
 3690              	.LVL331:
 3691              	.L127:
 3692              		.cfi_restore_state
 3693              	.LBB794:
 3694              	.LBB786:
 3695              	.LBB672:
  46:timer.h       ****     }
 3696              		.loc 2 46 0
 3697 0c4c 41BB0000 		mov	r11d, 104857600	 # ratio_mult_vf.274,
 3697      4006
 3698 0c52 B9000090 		mov	ecx, 26214400	 # bnd.273,
 3698      01
 3699 0c57 41B90000 		mov	r9d, 104857600	 # niters.272,
 3699      4006
 3700 0c5d 41B80000 		mov	r8d, 104857600	 # D.77728,
 3700      4006
 3701 0c63 4531FF   		xor	r15d, r15d	 # i
 3702 0c66 E9B2F4FF 		jmp	.L91	 #
 3702      FF
 3703              	.LVL332:
 3704              	.L142:
 3705              	.LBE672:
 3706              	.LBE786:
  54:TestRadixSort.cpp **** 
 3707              		.loc 3 54 0
 3708 0c6b 31D2     		xor	edx, edx	 # i
 3709 0c6d 41B90000 		mov	r9d, 104857600	 # D.77728,
 3709      4006
 3710 0c73 B9000040 		mov	ecx, 104857600	 # niters.177,
 3710      06
 3711 0c78 B8000090 		mov	eax, 26214400	 # bnd.178,
 3711      01
 3712 0c7d 41B80000 		mov	r8d, 104857600	 # ratio_mult_vf.179,
 3712      4006
 3713 0c83 E9FAFDFF 		jmp	.L121	 #
 3713      FF
 3714              	.LVL333:
 3715              	.L139:
  46:TestRadixSort.cpp **** 
 3716              		.loc 3 46 0
 3717 0c88 41BA0000 		mov	r10d, 104857600	 # ratio_mult_vf.198,
 3717      4006
 3718 0c8e B9000090 		mov	ecx, 26214400	 # bnd.197,
 3718      01
 3719 0c93 41B90000 		mov	r9d, 104857600	 # niters.196,
 3719      4006
 3720 0c99 41BB0000 		mov	r11d, 104857600	 # D.77728,
 3720      4006
 3721 0c9f 4531C0   		xor	r8d, r8d	 # i
 3722 0ca2 E901FCFF 		jmp	.L115	 #
 3722      FF
 3723              	.LVL334:
 3724              	.L136:
  38:TestRadixSort.cpp **** 
 3725              		.loc 3 38 0
 3726 0ca7 41BA0000 		mov	r10d, 104857600	 # ratio_mult_vf.217,
 3726      4006
 3727 0cad B9000090 		mov	ecx, 26214400	 # bnd.216,
 3727      01
 3728 0cb2 41B90000 		mov	r9d, 104857600	 # niters.215,
 3728      4006
 3729 0cb8 41BB0000 		mov	r11d, 104857600	 # D.77728,
 3729      4006
 3730 0cbe 4531C0   		xor	r8d, r8d	 # i
 3731 0cc1 E910FAFF 		jmp	.L109	 #
 3731      FF
 3732              	.LVL335:
 3733              	.L133:
  30:TestRadixSort.cpp **** 
 3734              		.loc 3 30 0
 3735 0cc6 41BA0000 		mov	r10d, 104857600	 # ratio_mult_vf.236,
 3735      4006
 3736 0ccc B9000090 		mov	ecx, 26214400	 # bnd.235,
 3736      01
 3737 0cd1 41B90000 		mov	r9d, 104857600	 # niters.234,
 3737      4006
 3738 0cd7 41BB0000 		mov	r11d, 104857600	 # D.77728,
 3738      4006
 3739 0cdd 4531C0   		xor	r8d, r8d	 # i
 3740 0ce0 E91FF8FF 		jmp	.L103	 #
 3740      FF
 3741              	.LVL336:
 3742              	.L130:
  22:TestRadixSort.cpp **** 
 3743              		.loc 3 22 0
 3744 0ce5 41BA0000 		mov	r10d, 104857600	 # ratio_mult_vf.255,
 3744      4006
 3745 0ceb B9000090 		mov	ecx, 26214400	 # bnd.254,
 3745      01
 3746 0cf0 41B90000 		mov	r9d, 104857600	 # niters.253,
 3746      4006
 3747 0cf6 41BB0000 		mov	r11d, 104857600	 # D.77728,
 3747      4006
 3748 0cfc 4531C0   		xor	r8d, r8d	 # i
 3749 0cff E924F6FF 		jmp	.L97	 #
 3749      FF
 3750              	.LVL337:
 3751              	.L144:
 3752              	.LBB787:
  57:TestRadixSort.cpp ****     t.Start();
 3753              		.loc 3 57 0
 3754 0d04 41B9FEFF 		mov	r9d, 104857598	 # D.77728,
 3754      3F06
  56:TestRadixSort.cpp ****         keys[i] = i*123456791;
 3755              		.loc 3 56 0
 3756 0d0a BA020000 		mov	edx, 2	 # i,
 3756      00
 3757 0d0f E95BFDFF 		jmp	.L122	 #
 3757      FF
 3758              	.LVL338:
 3759              	.L134:
 3760              	.LBE787:
 3761              	.LBB788:
  33:TestRadixSort.cpp ****     t.Start();
 3762              		.loc 3 33 0
 3763 0d14 41BBFFFF 		mov	r11d, 104857599	 # D.77728,
 3763      3F06
  32:TestRadixSort.cpp ****         keys[i] = i*123456791;
 3764              		.loc 3 32 0
 3765 0d1a 41B80100 		mov	r8d, 1	 # i,
 3765      0000
 3766 0d20 E9CBF7FF 		jmp	.L104	 #
 3766      FF
 3767              	.LVL339:
 3768              	.L135:
  33:TestRadixSort.cpp ****     t.Start();
 3769              		.loc 3 33 0
 3770 0d25 41BBFEFF 		mov	r11d, 104857598	 # D.77728,
 3770      3F06
  32:TestRadixSort.cpp ****         keys[i] = i*123456791;
 3771              		.loc 3 32 0
 3772 0d2b 41B80200 		mov	r8d, 2	 # i,
 3772      0000
 3773 0d31 E9BAF7FF 		jmp	.L104	 #
 3773      FF
 3774              	.LVL340:
 3775              	.L137:
 3776              	.LBE788:
 3777              	.LBB789:
  41:TestRadixSort.cpp ****     t.Start();
 3778              		.loc 3 41 0
 3779 0d36 41BBFFFF 		mov	r11d, 104857599	 # D.77728,
 3779      3F06
  40:TestRadixSort.cpp ****         keys[i] = i*123456791;
 3780              		.loc 3 40 0
 3781 0d3c 41B80100 		mov	r8d, 1	 # i,
 3781      0000
 3782 0d42 E97BF9FF 		jmp	.L110	 #
 3782      FF
 3783              	.LVL341:
 3784              	.L138:
  41:TestRadixSort.cpp ****     t.Start();
 3785              		.loc 3 41 0
 3786 0d47 41BBFEFF 		mov	r11d, 104857598	 # D.77728,
 3786      3F06
  40:TestRadixSort.cpp ****         keys[i] = i*123456791;
 3787              		.loc 3 40 0
 3788 0d4d 41B80200 		mov	r8d, 2	 # i,
 3788      0000
 3789 0d53 E96AF9FF 		jmp	.L110	 #
 3789      FF
 3790              	.LVL342:
 3791              	.L128:
 3792              	.LBE789:
 3793              	.LBB790:
  17:TestRadixSort.cpp ****     t.Start();
 3794              		.loc 3 17 0
 3795 0d58 41B8FFFF 		mov	r8d, 104857599	 # D.77728,
 3795      3F06
  16:TestRadixSort.cpp ****         keys[i] = i*123456791;
 3796              		.loc 3 16 0
 3797 0d5e 41BF0100 		mov	r15d, 1	 # i,
 3797      0000
 3798 0d64 E9A0F3FF 		jmp	.L92	 #
 3798      FF
 3799              	.LVL343:
 3800              	.L129:
  17:TestRadixSort.cpp ****     t.Start();
 3801              		.loc 3 17 0
 3802 0d69 41B8FEFF 		mov	r8d, 104857598	 # D.77728,
 3802      3F06
  16:TestRadixSort.cpp ****         keys[i] = i*123456791;
 3803              		.loc 3 16 0
 3804 0d6f 41BF0200 		mov	r15d, 2	 # i,
 3804      0000
 3805 0d75 E98FF3FF 		jmp	.L92	 #
 3805      FF
 3806              	.LVL344:
 3807              	.L131:
 3808              	.LBE790:
 3809              	.LBB791:
  25:TestRadixSort.cpp ****     t.Start();
 3810              		.loc 3 25 0
 3811 0d7a 41BBFFFF 		mov	r11d, 104857599	 # D.77728,
 3811      3F06
  24:TestRadixSort.cpp ****         keys[i] = i*123456791;
 3812              		.loc 3 24 0
 3813 0d80 41B80100 		mov	r8d, 1	 # i,
 3813      0000
 3814 0d86 E989F5FF 		jmp	.L98	 #
 3814      FF
 3815              	.LVL345:
 3816              	.L132:
  25:TestRadixSort.cpp ****     t.Start();
 3817              		.loc 3 25 0
 3818 0d8b 41BBFEFF 		mov	r11d, 104857598	 # D.77728,
 3818      3F06
  24:TestRadixSort.cpp ****         keys[i] = i*123456791;
 3819              		.loc 3 24 0
 3820 0d91 41B80200 		mov	r8d, 2	 # i,
 3820      0000
 3821 0d97 E978F5FF 		jmp	.L98	 #
 3821      FF
 3822              	.LVL346:
 3823              	.L140:
 3824              	.LBE791:
 3825              	.LBB792:
  49:TestRadixSort.cpp ****     t.Start();
 3826              		.loc 3 49 0
 3827 0d9c 41BBFFFF 		mov	r11d, 104857599	 # D.77728,
 3827      3F06
  48:TestRadixSort.cpp ****         keys[i] = i*123456791;
 3828              		.loc 3 48 0
 3829 0da2 41B80100 		mov	r8d, 1	 # i,
 3829      0000
 3830 0da8 E9E7FAFF 		jmp	.L116	 #
 3830      FF
 3831              	.LVL347:
 3832              	.L141:
  49:TestRadixSort.cpp ****     t.Start();
 3833              		.loc 3 49 0
 3834 0dad 41BBFEFF 		mov	r11d, 104857598	 # D.77728,
 3834      3F06
  48:TestRadixSort.cpp ****         keys[i] = i*123456791;
 3835              		.loc 3 48 0
 3836 0db3 41B80200 		mov	r8d, 2	 # i,
 3836      0000
 3837 0db9 E9D6FAFF 		jmp	.L116	 #
 3837      FF
 3838              	.LVL348:
 3839              	.L143:
 3840              	.LBE792:
 3841              	.LBB793:
  57:TestRadixSort.cpp ****     t.Start();
 3842              		.loc 3 57 0
 3843 0dbe 41B9FFFF 		mov	r9d, 104857599	 # D.77728,
 3843      3F06
  56:TestRadixSort.cpp ****         keys[i] = i*123456791;
 3844              		.loc 3 56 0
 3845 0dc4 BA010000 		mov	edx, 1	 # i,
 3845      00
 3846 0dc9 E9A1FCFF 		jmp	.L122	 #
 3846      FF
 3847              	.LBE793:
 3848              	.LBE794:
 3849              		.cfi_endproc
 3850              	.LFE3006:
 3851              		.seh_endproc
 3852 0dce 9090     		.section .rdata,"dr"
 3853 007a 00000000 		.align 8
 3853      0000
 3854              	.LC0:
 3855 0080 00000000 		.long	0
 3856 0084 00408F40 		.long	1083129856
 3857              		.align 8
 3858              	.LC1:
 3859 0088 00000000 		.long	0
 3860 008c 0000B03E 		.long	1051721728
 3861              		.align 8
 3862              	.LC2:
 3863 0090 00000000 		.long	0
 3864 0094 80842E41 		.long	1093567616
 3865 0098 00000000 		.align 16
 3865      00000000 
 3866              	.LC4:
 3867 00a0 04000000 		.quad	4
 3867      00000000 
 3868 00a8 04000000 		.quad	4
 3868      00000000 
 3869              		.align 16
 3870              	.LC5:
 3871 00b0 02000000 		.quad	2
 3871      00000000 
 3872 00b8 02000000 		.quad	2
 3872      00000000 
 3873              		.align 16
 3874              	.LC6:
 3875 00c0 17CD5B07 		.long	123456791
 3876 00c4 17CD5B07 		.long	123456791
 3877 00c8 17CD5B07 		.long	123456791
 3878 00cc 17CD5B07 		.long	123456791
 3879              		.align 8
 3880              	.LC7:
 3881 00d0 00000000 		.long	0
 3882 00d4 00009941 		.long	1100546048
 3883 00d8 00000000 		.text
 3883      00000000 
 3884              	.Letext0:
 3885              		.file 4 "C:/Base/Compiler/MinGW-4.9.2/mingw32/i686-w64-mingw32/include/crtdefs.h"
 3886              		.file 5 "C:/Base/Compiler/MinGW-4.9.2/mingw32/i686-w64-mingw32/include/stdint.h"
 3887              		.file 6 "C:/Base/Compiler/MinGW-4.9.2/mingw32/i686-w64-mingw32/include/minwindef.h"
 3888              		.file 7 "C:/Base/Compiler/MinGW-4.9.2/mingw32/i686-w64-mingw32/include/winnt.h"
 3889              		.file 8 "C:/Base/Compiler/MinGW-4.9.2/mingw32/i686-w64-mingw32/include/stdio.h"