   1              		.file	"TestRadixSort.cpp"
   2              		.intel_syntax noprefix
   3              	 # GNU C++ (i686-posix-sjlj-rev2, Built by MinGW-W64 project) version 4.9.2 (i686-w64-mingw32)
   4              	 #	compiled by GNU C version 4.9.2, GMP version 6.0.0, MPFR version 3.1.2-p9, MPC version 1.0.2
   5              	 # warning: MPFR header version 3.1.2-p9 differs from library version 3.1.2-p10.
   6              	 # GGC heuristics: --param ggc-min-expand=100 --param ggc-min-heapsize=131072
   7              	 # options passed:  -imultilib 64
   8              	 # -iprefix C:/Base/Compiler/MinGW-4.9.2/mingw32/bin/../lib/gcc/i686-w64-mingw32/4.9.2/
   9              	 # -D_REENTRANT TestRadixSort.cpp -m64 -masm=intel -mtune=core2
  10              	 # -march=nocona -g -O3 -std=c++11 -fverbose-asm
  11              	 # options enabled:  -faggressive-loop-optimizations
  12              	 # -fasynchronous-unwind-tables -fauto-inc-dec -fbranch-count-reg
  13              	 # -fcaller-saves -fcombine-stack-adjustments -fcommon -fcompare-elim
  14              	 # -fcprop-registers -fcrossjumping -fcse-follow-jumps -fdefer-pop
  15              	 # -fdelete-null-pointer-checks -fdevirtualize -fdevirtualize-speculatively
  16              	 # -fdwarf2-cfi-asm -fearly-inlining -feliminate-unused-debug-types
  17              	 # -fexceptions -fexpensive-optimizations -fforward-propagate
  18              	 # -ffunction-cse -fgcse -fgcse-after-reload -fgcse-lm -fgnu-runtime
  19              	 # -fgnu-unique -fguess-branch-probability -fhoist-adjacent-loads -fident
  20              	 # -fif-conversion -fif-conversion2 -findirect-inlining -finline
  21              	 # -finline-atomics -finline-functions -finline-functions-called-once
  22              	 # -finline-small-functions -fipa-cp -fipa-cp-clone -fipa-profile
  23              	 # -fipa-pure-const -fipa-reference -fipa-sra -fira-hoist-pressure
  24              	 # -fira-share-save-slots -fira-share-spill-slots
  25              	 # -fisolate-erroneous-paths-dereference -fivopts -fkeep-inline-dllexport
  26              	 # -fkeep-static-consts -fleading-underscore -fmath-errno -fmerge-constants
  27              	 # -fmerge-debug-strings -fmove-loop-invariants -fomit-frame-pointer
  28              	 # -foptimize-sibling-calls -foptimize-strlen -fpartial-inlining -fpeephole
  29              	 # -fpeephole2 -fpic -fpredictive-commoning -fprefetch-loop-arrays -free
  30              	 # -freg-struct-return -freorder-blocks -freorder-functions
  31              	 # -frerun-cse-after-loop -fsched-critical-path-heuristic
  32              	 # -fsched-dep-count-heuristic -fsched-group-heuristic -fsched-interblock
  33              	 # -fsched-last-insn-heuristic -fsched-rank-heuristic -fsched-spec
  34              	 # -fsched-spec-insn-heuristic -fsched-stalled-insns-dep -fschedule-insns2
  35              	 # -fset-stack-executable -fshow-column -fshrink-wrap -fsigned-zeros
  36              	 # -fsplit-ivs-in-unroller -fsplit-wide-types -fstrict-aliasing
  37              	 # -fstrict-overflow -fstrict-volatile-bitfields -fsync-libcalls
  38              	 # -fthread-jumps -ftoplevel-reorder -ftrapping-math -ftree-bit-ccp
  39              	 # -ftree-builtin-call-dce -ftree-ccp -ftree-ch -ftree-coalesce-vars
  40              	 # -ftree-copy-prop -ftree-copyrename -ftree-cselim -ftree-dce
  41              	 # -ftree-dominator-opts -ftree-dse -ftree-forwprop -ftree-fre
  42              	 # -ftree-loop-distribute-patterns -ftree-loop-if-convert -ftree-loop-im
  43              	 # -ftree-loop-ivcanon -ftree-loop-optimize -ftree-loop-vectorize
  44              	 # -ftree-parallelize-loops= -ftree-partial-pre -ftree-phiprop -ftree-pre
  45              	 # -ftree-pta -ftree-reassoc -ftree-scev-cprop -ftree-sink
  46              	 # -ftree-slp-vectorize -ftree-slsr -ftree-sra -ftree-switch-conversion
  47              	 # -ftree-tail-merge -ftree-ter -ftree-vrp -funit-at-a-time
  48              	 # -funswitch-loops -funwind-tables -fvar-tracking
  49              	 # -fvar-tracking-assignments -fverbose-asm -fzero-initialized-in-bss
  50              	 # -m128bit-long-double -m64 -m80387 -maccumulate-outgoing-args
  51              	 # -malign-double -malign-stringops -mcx16 -mfancy-math-387 -mfentry
  52              	 # -mfp-ret-in-387 -mfxsr -mieee-fp -mlong-double-80 -mmmx -mms-bitfields
  53              	 # -mno-sse4 -mpush-args -mred-zone -msse -msse2 -msse3 -mstack-arg-probe
  54              	 # -mvzeroupper
  55              	
  56              		.text
  57              	.Ltext0:
  58              		.cfi_sections	.debug_frame
  59              		.section .rdata,"dr"
  60              		.align 8
  61              	.LC3:
  62 0000 436F756E 		.ascii "Counting: %.3lf milliseconds = %.3lf MB/s = %.3lf MiB/s\12\0"
  62      74696E67 
  62      3A20252E 
  62      336C6620 
  62      6D696C6C 
  63              		.section	.text$_Z13RadixSortPassIjjLi0ELi4EEvPKT_PKT0_PS0_PS3_y,"x"
  64              		.linkonce discard
  65              		.p2align 4,,15
  66              		.globl	_Z13RadixSortPassIjjLi0ELi4EEvPKT_PKT0_PS0_PS3_y
  68              		.seh_proc	_Z13RadixSortPassIjjLi0ELi4EEvPKT_PKT0_PS0_PS3_y
  69              	_Z13RadixSortPassIjjLi0ELi4EEvPKT_PKT0_PS0_PS3_y:
  70              	.LFB3007:
  71              		.file 1 "RadixSort.cpp"
   1:RadixSort.cpp **** #include <stdlib.h>
   2:RadixSort.cpp **** #include <stdint.h>
   3:RadixSort.cpp **** #include <memory.h>
   4:RadixSort.cpp **** 
   5:RadixSort.cpp **** template <typename Key, typename Data, int SortBase, int SortBits>
   6:RadixSort.cpp **** void RadixSortPass (const Key *InKey, const Data *InData, Key *OutKey, Data *OutData, size_t size)
  72              		.loc 1 6 0
  73              		.cfi_startproc
  74              	.LVL0:
  75 0000 55       		push	rbp	 #
  76              		.seh_pushreg	rbp
  77              		.cfi_def_cfa_offset 16
  78              		.cfi_offset 6, -16
  79 0001 4157     		push	r15	 #
  80              		.seh_pushreg	r15
  81              		.cfi_def_cfa_offset 24
  82              		.cfi_offset 15, -24
  83 0003 4156     		push	r14	 #
  84              		.seh_pushreg	r14
  85              		.cfi_def_cfa_offset 32
  86              		.cfi_offset 14, -32
  87 0005 4155     		push	r13	 #
  88              		.seh_pushreg	r13
  89              		.cfi_def_cfa_offset 40
  90              		.cfi_offset 13, -40
  91 0007 4154     		push	r12	 #
  92              		.seh_pushreg	r12
  93              		.cfi_def_cfa_offset 48
  94              		.cfi_offset 12, -48
  95 0009 57       		push	rdi	 #
  96              		.seh_pushreg	rdi
  97              		.cfi_def_cfa_offset 56
  98              		.cfi_offset 5, -56
  99 000a 56       		push	rsi	 #
 100              		.seh_pushreg	rsi
 101              		.cfi_def_cfa_offset 64
 102              		.cfi_offset 4, -64
 103 000b 53       		push	rbx	 #
 104              		.seh_pushreg	rbx
 105              		.cfi_def_cfa_offset 72
 106              		.cfi_offset 3, -72
 107 000c 4883EC68 		sub	rsp, 104	 #,
 108              		.seh_stackalloc	104
 109              		.cfi_def_cfa_offset 176
 110 0010 488DAC24 		lea	rbp, 128[rsp]	 #,
 110      80000000 
 111              		.seh_setframe	rbp, 128
 112              		.cfi_def_cfa 6, 48
 113              		.seh_endprologue
 114              	.LVL1:
 115              		.loc 1 6 0
 116 0018 4C8B6D50 		mov	r13, QWORD PTR 80[rbp]	 # size, size
 117              	.LBB213:
 118              	.LBB214:
 119              	.LBB215:
 120              		.file 2 "timer.h"
   1:timer.h       **** //--------------------------------------------------------------------------------------
   2:timer.h       **** // Copyright (c) Microsoft Corp.
   3:timer.h       **** //
   4:timer.h       **** // File: timer.h
   5:timer.h       **** //
   6:timer.h       **** // Licensed under the Apache License, Version 2.0 (the "License"); you may not use this
   7:timer.h       **** // file except in compliance with the License. You may obtain a copy of the License at
   8:timer.h       **** // http://www.apache.org/licenses/LICENSE-2.0
   9:timer.h       **** //
  10:timer.h       **** // THIS CODE IS PROVIDED *AS IS* BASIS, WITHOUT WARRANTIES OR CONDITIONS OF ANY KIND,
  11:timer.h       **** // EITHER EXPRESS OR IMPLIED, INCLUDING WITHOUT LIMITATION ANY IMPLIED WARRANTIES OR
  12:timer.h       **** // CONDITIONS OF TITLE, FITNESS FOR A PARTICULAR PURPOSE, MERCHANTABLITY OR NON-INFRINGEMENT.
  13:timer.h       **** //
  14:timer.h       **** // See the Apache Version 2.0 License for specific language governing permissions and
  15:timer.h       **** // limitations under the License.
  16:timer.h       **** //--------------------------------------------------------------------------------------
  17:timer.h       **** 
  18:timer.h       **** #pragma once
  19:timer.h       **** #include <windows.h>
  20:timer.h       **** 
  21:timer.h       **** struct Timer
  22:timer.h       **** {
  23:timer.h       ****     void Start()
  24:timer.h       ****     {
  25:timer.h       ****         QueryPerformanceCounter(&m_start);
  26:timer.h       ****     }
  27:timer.h       **** 
  28:timer.h       ****     void Stop()
  29:timer.h       ****     {
  30:timer.h       ****         QueryPerformanceCounter(&m_stop);
  31:timer.h       ****     }
  32:timer.h       **** 
  33:timer.h       ****     // Returns elapsed time in milliseconds (ms)
  34:timer.h       ****     double Elapsed()
  35:timer.h       ****     {
  36:timer.h       ****         return (m_stop.QuadPart - m_start.QuadPart - m_overhead) \
  37:timer.h       ****                                           * 1000.0 / m_freq.QuadPart;
  38:timer.h       ****     }
  39:timer.h       **** 
  40:timer.h       ****     Timer()
  41:timer.h       ****     {
  42:timer.h       ****         // Initialize the resolution of the timer
  43:timer.h       ****         QueryPerformanceFrequency(&m_freq);
 121              		.loc 2 43 0
 122 001c 488D45C0 		lea	rax, -64[rbp]	 # tmp284,
 123              	.LVL2:
 124              	.LBE215:
 125              	.LBE214:
 126              	.LBE213:
 127              		.loc 1 6 0
 128 0020 4989D6   		mov	r14, rdx	 # InData, InData
 129 0023 4D89C7   		mov	r15, r8	 # OutKey, OutKey
 130 0026 4C894DA8 		mov	QWORD PTR -88[rbp], r9	 # %sfp, OutData
 131              	.LBB263:
 132              	.LBB227:
 133              	.LBB224:
 134              		.loc 2 43 0
 135 002a 4889C7   		mov	rdi, rax	 # tmp284, tmp284
 136              	.LBE224:
 137              	.LBE227:
 138              	.LBE263:
 139              		.loc 1 6 0
 140 002d 4989CC   		mov	r12, rcx	 # InKey, InKey
 141              	.LBB264:
 142              	.LBB228:
 143              	.LBB225:
 144              		.loc 2 43 0
 145 0030 488945B8 		mov	QWORD PTR -72[rbp], rax	 # %sfp, tmp284
 146 0034 488D4810 		lea	rcx, 16[rax]	 # tmp206,
 147              	.LVL3:
 148 0038 FF150000 		call	[QWORD PTR __imp_QueryPerformanceFrequency[rip]]	 #
 148      0000
 149              	.LVL4:
 150              	.LBB216:
 151              	.LBB217:
 152              	.LBB218:
 153              	.LBB219:
  25:timer.h       ****     }
 154              		.loc 2 25 0
 155 003e 488B0500 		mov	rax, QWORD PTR __imp_QueryPerformanceCounter[rip]	 # tmp285,
 155      000000
 156 0045 4889F9   		mov	rcx, rdi	 #, tmp284
 157 0048 4889C6   		mov	rsi, rax	 # tmp285, tmp285
 158 004b 488945B0 		mov	QWORD PTR -80[rbp], rax	 # %sfp, tmp285
 159 004f FFD0     		call	rax	 # tmp285
 160              	.LVL5:
 161              	.LBE219:
 162              	.LBE218:
 163              	.LBB220:
 164              	.LBB221:
  30:timer.h       ****     }
 165              		.loc 2 30 0
 166 0051 488D4F08 		lea	rcx, 8[rdi]	 # tmp211,
 167 0055 4889F0   		mov	rax, rsi	 # tmp285, tmp285
 168 0058 FFD0     		call	rax	 # tmp285
 169              	.LVL6:
 170              	.LBE221:
 171              	.LBE220:
  44:timer.h       **** 
  45:timer.h       ****         // Calculate the overhead of the timer
  46:timer.h       ****         m_overhead = Timer::GetOverhead();
  47:timer.h       ****     }
  48:timer.h       **** 
  49:timer.h       **** private:
  50:timer.h       **** 
  51:timer.h       ****     // Returns the overhead of the timer in ticks
  52:timer.h       ****     LONGLONG GetOverhead()
  53:timer.h       ****     {
  54:timer.h       ****         Start();
  55:timer.h       ****         Stop();
  56:timer.h       ****         return m_stop.QuadPart - m_start.QuadPart;
 172              		.loc 2 56 0
 173 005a 488B45C8 		mov	rax, QWORD PTR -56[rbp]	 # t.m_stop.QuadPart, t.m_stop.QuadPart
 174              	.LBE217:
 175              	.LBE216:
 176              	.LBE225:
 177              	.LBE228:
 178              	.LBB229:
 179              	.LBB230:
  25:timer.h       ****     }
 180              		.loc 2 25 0
 181 005e 4889F9   		mov	rcx, rdi	 #, tmp284
 182              	.LBE230:
 183              	.LBE229:
 184              	.LBB232:
 185              	.LBB226:
 186              	.LBB223:
 187              	.LBB222:
 188              		.loc 2 56 0
 189 0061 482B45C0 		sub	rax, QWORD PTR -64[rbp]	 # D.77361, t.m_start.QuadPart
 190              	.LBE222:
 191              	.LBE223:
  46:timer.h       ****     }
 192              		.loc 2 46 0
 193 0065 488945D8 		mov	QWORD PTR -40[rbp], rax	 # t.m_overhead, D.77361
 194              	.LVL7:
 195              	.LBE226:
 196              	.LBE232:
 197              	.LBB233:
 198              	.LBB231:
  25:timer.h       ****     }
 199              		.loc 2 25 0
 200 0069 4889F0   		mov	rax, rsi	 # tmp285, tmp285
 201 006c FFD0     		call	rax	 # tmp285
 202              	.LVL8:
 203              	.LBE231:
 204              	.LBE233:
   7:RadixSort.cpp **** {
   8:RadixSort.cpp ****     size_t SortBins = 1<<SortBits;
   9:RadixSort.cpp ****     // Function returning value of key
  10:RadixSort.cpp ****     auto key = [&] (const Key &p) {return (*(uint64_t*)&p >> SortBase) % SortBins;};
  11:RadixSort.cpp **** 
  12:RadixSort.cpp ****     Timer t;  t.Start();
  13:RadixSort.cpp ****     // Histogram keys into cnt[]
  14:RadixSort.cpp ****     size_t cnt[SortBins] = {0};  auto p = InKey;
 205              		.loc 1 14 0
 206 006e 4881EC90 		sub	rsp, 144	 #,
 206      000000
 207 0075 31C0     		xor	eax, eax	 # tmp225
 208 0077 B90F0000 		mov	ecx, 15	 # tmp226,
 208      00
 209 007c 488D5C24 		lea	rbx, 39[rsp]	 # tmp220,
 209      27
 210              	.LBB234:
  15:RadixSort.cpp ****     for (size_t i=0; i<size; i++)
 211              		.loc 1 15 0
 212 0081 4C8B5DA8 		mov	r11, QWORD PTR -88[rbp]	 # OutData, %sfp
 213              	.LBE234:
  14:RadixSort.cpp ****     for (size_t i=0; i<size; i++)
 214              		.loc 1 14 0
 215 0085 48C1EB03 		shr	rbx, 3	 # tmp221,
 216              	.LBB237:
 217              		.loc 1 15 0
 218 0089 4D85ED   		test	r13, r13	 # size
 219              	.LBE237:
  14:RadixSort.cpp ****     for (size_t i=0; i<size; i++)
 220              		.loc 1 14 0
 221 008c 488D34DD 		lea	rsi, 0[0+rbx*8]	 # tmp222,
 221      00000000 
 222              	.LVL9:
 223 0094 48C704DD 		mov	QWORD PTR 0[0+rbx*8], 0	 # MEM[(size_t *)cnt.2_18],
 223      00000000 
 223      00000000 
 224 00a0 488D5608 		lea	rdx, 8[rsi]	 # D.77353,
 225 00a4 4889D7   		mov	rdi, rdx	 # D.77353, D.77353
 226              	.LVL10:
 227 00a7 4C89E2   		mov	rdx, r12	 # ivtmp.66, InKey
 228 00aa F348AB   		rep stosq
 229              	.LVL11:
 230 00ad 4B8D0CAC 		lea	rcx, [r12+r13*4]	 # D.77360,
 231              	.LBB238:
 232              		.loc 1 15 0
 233 00b1 7414     		je	.L8	 #,
 234              	.LVL12:
 235              		.p2align 4,,10
 236              	.L11:
 237              	.LBB235:
 238              	.LBB236:
  10:RadixSort.cpp **** 
 239              		.loc 1 10 0 discriminator 3
 240 00b3 488B02   		mov	rax, QWORD PTR [rdx]	 # D.77354, MEM[base: _80, offset: 0B]
 241 00b6 4883C204 		add	rdx, 4	 # ivtmp.66,
 242              	.LVL13:
 243 00ba 83E00F   		and	eax, 15	 # D.77354,
 244              	.LBE236:
 245              	.LBE235:
  16:RadixSort.cpp ****         cnt[key(InKey[i])]++;
 246              		.loc 1 16 0 discriminator 3
 247 00bd 488304C6 		add	QWORD PTR [rsi+rax*8], 1	 # MEM[(size_t[0:D.76902] *)_4],
 247      01
  15:RadixSort.cpp ****         cnt[key(InKey[i])]++;
 248              		.loc 1 15 0 discriminator 3
 249 00c2 4839CA   		cmp	rdx, rcx	 # ivtmp.66, D.77360
 250 00c5 75EC     		jne	.L11	 #,
 251              	.LVL14:
 252              	.L8:
 253              	.LBE238:
 254              	.LBB239:
 255              	.LBB240:
  30:timer.h       ****     }
 256              		.loc 2 30 0
 257 00c7 488B4DB8 		mov	rcx, QWORD PTR -72[rbp]	 # tmp228, %sfp
 258 00cb 4C895DA8 		mov	QWORD PTR -88[rbp], r11	 # %sfp, OutData
 259              	.LVL15:
 260 00cf 488B45B0 		mov	rax, QWORD PTR -80[rbp]	 # tmp285, %sfp
 261 00d3 4883C108 		add	rcx, 8	 # tmp228,
 262 00d7 FFD0     		call	rax	 # tmp285
 263              	.LVL16:
 264              	.LBE240:
 265              	.LBE239:
 266              	.LBB241:
 267              	.LBB242:
  36:timer.h       ****                                           * 1000.0 / m_freq.QuadPart;
 268              		.loc 2 36 0
 269 00d9 488B45C8 		mov	rax, QWORD PTR -56[rbp]	 # t.m_stop.QuadPart, t.m_stop.QuadPart
  37:timer.h       ****     }
 270              		.loc 2 37 0
 271 00dd 660FEFC0 		pxor	xmm0, xmm0	 # D.77357
 272 00e1 660FEFC9 		pxor	xmm1, xmm1	 # D.77357
 273 00e5 F2480F2A 		cvtsi2sdq	xmm1, QWORD PTR -48[rbp]	 # D.77357, t.m_freq.QuadPart
 273      4DD0
  36:timer.h       ****                                           * 1000.0 / m_freq.QuadPart;
 274              		.loc 2 36 0
 275 00eb 482B45C0 		sub	rax, QWORD PTR -64[rbp]	 # D.77356, t.m_start.QuadPart
 276 00ef 482B45D8 		sub	rax, QWORD PTR -40[rbp]	 # D.77356, t.m_overhead
 277              	.LBE242:
 278              	.LBE241:
  17:RadixSort.cpp ****     t.Stop();  double speed = size/(t.Elapsed()/1000);
 279              		.loc 1 17 0
 280 00f3 4D85ED   		test	r13, r13	 # size
 281              	.LBB245:
 282              	.LBB243:
  37:timer.h       ****     }
 283              		.loc 2 37 0
 284 00f6 F20F1015 		movsd	xmm2, QWORD PTR .LC0[rip]	 # tmp286,
 284      80000000 
 285              	.LBE243:
 286              	.LBE245:
 287              		.loc 1 17 0
 288 00fe 4C8B5DA8 		mov	r11, QWORD PTR -88[rbp]	 # OutData, %sfp
 289              	.LBB246:
 290              	.LBB244:
  37:timer.h       ****     }
 291              		.loc 2 37 0
 292 0102 F2480F2A 		cvtsi2sdq	xmm0, rax	 # D.77357, D.77356
 292      C0
 293 0107 F20F59C2 		mulsd	xmm0, xmm2	 # D.77357, tmp286
 294 010b F20F5EC1 		divsd	xmm0, xmm1	 # D.77357, D.77357
 295              	.LBE244:
 296              	.LBE246:
 297              		.loc 1 17 0
 298 010f 0F88CB01 		js	.L3	 #,
 298      0000
 299 0115 660FEFC9 		pxor	xmm1, xmm1	 # D.77357
 300 0119 F2490F2A 		cvtsi2sdq	xmm1, r13	 # D.77357, size
 300      CD
 301              	.L4:
 302 011e 660F28E0 		movapd	xmm4, xmm0	 # D.77357, D.77357
  18:RadixSort.cpp ****     printf("Counting: %.3lf milliseconds = %.3lf MB/s = %.3lf MiB/s\n", t.Elapsed(), speed/1e6, spe
 303              		.loc 1 18 0
 304 0122 66480F7E 		movq	rdx, xmm0	 #, D.77357
 304      C2
 305 0127 4C895DB8 		mov	QWORD PTR -72[rbp], r11	 # %sfp, OutData
 306              	.LVL17:
 307 012b 488D0D00 		lea	rcx, .LC3[rip]	 #,
 307      000000
  17:RadixSort.cpp ****     t.Stop();  double speed = size/(t.Elapsed()/1000);
 308              		.loc 1 17 0
 309 0132 F20F5EE2 		divsd	xmm4, xmm2	 # D.77357, tmp286
 310              		.loc 1 18 0
 311 0136 F20F1015 		movsd	xmm2, QWORD PTR .LC1[rip]	 # D.77357,
 311      88000000 
  17:RadixSort.cpp ****     t.Stop();  double speed = size/(t.Elapsed()/1000);
 312              		.loc 1 17 0
 313 013e F20F5ECC 		divsd	xmm1, xmm4	 # speed, D.77357
 314              	.LVL18:
 315              		.loc 1 18 0
 316 0142 F20F59D1 		mulsd	xmm2, xmm1	 # D.77357, speed
 317 0146 F20F5E0D 		divsd	xmm1, QWORD PTR .LC2[rip]	 # D.77357,
 317      90000000 
 318              	.LVL19:
 319 014e 66490F7E 		movq	r8, xmm1	 #, D.77357
 319      C8
 320 0153 660F28DA 		movapd	xmm3, xmm2	 #, D.77357
 321 0157 66490F7E 		movq	r9, xmm2	 #, D.77357
 321      D1
 322 015c 660F28D1 		movapd	xmm2, xmm1	 #, D.77357
 323 0160 660F28C8 		movapd	xmm1, xmm0	 #, D.77357
 324 0164 E8000000 		call	printf	 #
 324      00
 325              	.LVL20:
 326              	.LBB247:
 327              	.LBB248:
  19:RadixSort.cpp ****     
  20:RadixSort.cpp ****     // Inclusive scan of cnt[] => compute first output position for every bin
  21:RadixSort.cpp ****     for (size_t i=0,sum=0; i<SortBins; i++)
  22:RadixSort.cpp ****     {
  23:RadixSort.cpp ****         auto tmp = sum + cnt[i];
 328              		.loc 1 23 0
 329 0169 488B14DD 		mov	rdx, QWORD PTR 0[0+rbx*8]	 # D.77354, *cnt.2_18
 329      00000000 
 330              	.LVL21:
  24:RadixSort.cpp ****         cnt[i] = sum;
 331              		.loc 1 24 0
 332 0171 48C704DD 		mov	QWORD PTR 0[0+rbx*8], 0	 # *cnt.2_18,
 332      00000000 
 332      00000000 
 333              	.LVL22:
 334              	.LBE248:
 335              	.LBE247:
 336              	.LBB251:
  25:RadixSort.cpp ****         sum = tmp;
  26:RadixSort.cpp ****     }
  27:RadixSort.cpp ****         
  28:RadixSort.cpp ****     // Fill OutKey & OutData
  29:RadixSort.cpp ****     for (size_t i=0; i<size; i++)
 337              		.loc 1 29 0
 338 017d 4C8B5DB8 		mov	r11, QWORD PTR -72[rbp]	 # OutData, %sfp
 339              	.LBE251:
 340              	.LBB259:
 341              	.LBB249:
  23:RadixSort.cpp ****         cnt[i] = sum;
 342              		.loc 1 23 0
 343 0181 4889D0   		mov	rax, rdx	 # sum, D.77354
 344 0184 480304DD 		add	rax, QWORD PTR 8[0+rbx*8]	 # sum, MEM[(size_t[0:D.76902] *)cnt.2_18 + 8B]
 344      08000000 
 345              	.LVL23:
  24:RadixSort.cpp ****         cnt[i] = sum;
 346              		.loc 1 24 0
 347 018c 488914DD 		mov	QWORD PTR 8[0+rbx*8], rdx	 # MEM[(size_t[0:D.76902] *)cnt.2_18 + 8B], D.77354
 347      08000000 
 348              	.LVL24:
  23:RadixSort.cpp ****         cnt[i] = sum;
 349              		.loc 1 23 0
 350 0194 4889C2   		mov	rdx, rax	 # sum, sum
 351 0197 480314DD 		add	rdx, QWORD PTR 16[0+rbx*8]	 # sum, MEM[(size_t[0:D.76902] *)cnt.2_18 + 16B]
 351      10000000 
 352              	.LVL25:
  24:RadixSort.cpp ****         cnt[i] = sum;
 353              		.loc 1 24 0
 354 019f 488904DD 		mov	QWORD PTR 16[0+rbx*8], rax	 # MEM[(size_t[0:D.76902] *)cnt.2_18 + 16B], sum
 354      10000000 
 355              	.LVL26:
  23:RadixSort.cpp ****         cnt[i] = sum;
 356              		.loc 1 23 0
 357 01a7 4889D0   		mov	rax, rdx	 # sum, sum
 358 01aa 480304DD 		add	rax, QWORD PTR 24[0+rbx*8]	 # sum, MEM[(size_t[0:D.76902] *)cnt.2_18 + 24B]
 358      18000000 
 359              	.LVL27:
  24:RadixSort.cpp ****         cnt[i] = sum;
 360              		.loc 1 24 0
 361 01b2 488914DD 		mov	QWORD PTR 24[0+rbx*8], rdx	 # MEM[(size_t[0:D.76902] *)cnt.2_18 + 24B], sum
 361      18000000 
 362              	.LVL28:
  23:RadixSort.cpp ****         cnt[i] = sum;
 363              		.loc 1 23 0
 364 01ba 4889C2   		mov	rdx, rax	 # sum, sum
 365 01bd 480314DD 		add	rdx, QWORD PTR 32[0+rbx*8]	 # sum, MEM[(size_t[0:D.76902] *)cnt.2_18 + 32B]
 365      20000000 
 366              	.LVL29:
  24:RadixSort.cpp ****         cnt[i] = sum;
 367              		.loc 1 24 0
 368 01c5 488904DD 		mov	QWORD PTR 32[0+rbx*8], rax	 # MEM[(size_t[0:D.76902] *)cnt.2_18 + 32B], sum
 368      20000000 
 369              	.LVL30:
  23:RadixSort.cpp ****         cnt[i] = sum;
 370              		.loc 1 23 0
 371 01cd 4889D0   		mov	rax, rdx	 # sum, sum
 372 01d0 480304DD 		add	rax, QWORD PTR 40[0+rbx*8]	 # sum, MEM[(size_t[0:D.76902] *)cnt.2_18 + 40B]
 372      28000000 
 373              	.LVL31:
  24:RadixSort.cpp ****         cnt[i] = sum;
 374              		.loc 1 24 0
 375 01d8 488914DD 		mov	QWORD PTR 40[0+rbx*8], rdx	 # MEM[(size_t[0:D.76902] *)cnt.2_18 + 40B], sum
 375      28000000 
 376              	.LVL32:
  23:RadixSort.cpp ****         cnt[i] = sum;
 377              		.loc 1 23 0
 378 01e0 4889C2   		mov	rdx, rax	 # sum, sum
 379 01e3 480314DD 		add	rdx, QWORD PTR 48[0+rbx*8]	 # sum, MEM[(size_t[0:D.76902] *)cnt.2_18 + 48B]
 379      30000000 
 380              	.LVL33:
  24:RadixSort.cpp ****         cnt[i] = sum;
 381              		.loc 1 24 0
 382 01eb 488904DD 		mov	QWORD PTR 48[0+rbx*8], rax	 # MEM[(size_t[0:D.76902] *)cnt.2_18 + 48B], sum
 382      30000000 
 383              	.LVL34:
  23:RadixSort.cpp ****         cnt[i] = sum;
 384              		.loc 1 23 0
 385 01f3 4889D0   		mov	rax, rdx	 # sum, sum
 386 01f6 480304DD 		add	rax, QWORD PTR 56[0+rbx*8]	 # sum, MEM[(size_t[0:D.76902] *)cnt.2_18 + 56B]
 386      38000000 
 387              	.LVL35:
  24:RadixSort.cpp ****         cnt[i] = sum;
 388              		.loc 1 24 0
 389 01fe 488914DD 		mov	QWORD PTR 56[0+rbx*8], rdx	 # MEM[(size_t[0:D.76902] *)cnt.2_18 + 56B], sum
 389      38000000 
 390              	.LVL36:
  23:RadixSort.cpp ****         cnt[i] = sum;
 391              		.loc 1 23 0
 392 0206 4889C2   		mov	rdx, rax	 # sum, sum
 393 0209 480314DD 		add	rdx, QWORD PTR 64[0+rbx*8]	 # sum, MEM[(size_t[0:D.76902] *)cnt.2_18 + 64B]
 393      40000000 
 394              	.LVL37:
  24:RadixSort.cpp ****         cnt[i] = sum;
 395              		.loc 1 24 0
 396 0211 488904DD 		mov	QWORD PTR 64[0+rbx*8], rax	 # MEM[(size_t[0:D.76902] *)cnt.2_18 + 64B], sum
 396      40000000 
 397              	.LVL38:
  23:RadixSort.cpp ****         cnt[i] = sum;
 398              		.loc 1 23 0
 399 0219 4889D0   		mov	rax, rdx	 # sum, sum
 400 021c 480304DD 		add	rax, QWORD PTR 72[0+rbx*8]	 # sum, MEM[(size_t[0:D.76902] *)cnt.2_18 + 72B]
 400      48000000 
 401              	.LVL39:
  24:RadixSort.cpp ****         cnt[i] = sum;
 402              		.loc 1 24 0
 403 0224 488914DD 		mov	QWORD PTR 72[0+rbx*8], rdx	 # MEM[(size_t[0:D.76902] *)cnt.2_18 + 72B], sum
 403      48000000 
 404              	.LVL40:
  23:RadixSort.cpp ****         cnt[i] = sum;
 405              		.loc 1 23 0
 406 022c 4889C2   		mov	rdx, rax	 # sum, sum
 407 022f 480314DD 		add	rdx, QWORD PTR 80[0+rbx*8]	 # sum, MEM[(size_t[0:D.76902] *)cnt.2_18 + 80B]
 407      50000000 
 408              	.LVL41:
  24:RadixSort.cpp ****         cnt[i] = sum;
 409              		.loc 1 24 0
 410 0237 488904DD 		mov	QWORD PTR 80[0+rbx*8], rax	 # MEM[(size_t[0:D.76902] *)cnt.2_18 + 80B], sum
 410      50000000 
 411              	.LVL42:
  23:RadixSort.cpp ****         cnt[i] = sum;
 412              		.loc 1 23 0
 413 023f 4889D0   		mov	rax, rdx	 # sum, sum
 414 0242 480304DD 		add	rax, QWORD PTR 88[0+rbx*8]	 # sum, MEM[(size_t[0:D.76902] *)cnt.2_18 + 88B]
 414      58000000 
 415              	.LVL43:
  24:RadixSort.cpp ****         cnt[i] = sum;
 416              		.loc 1 24 0
 417 024a 488914DD 		mov	QWORD PTR 88[0+rbx*8], rdx	 # MEM[(size_t[0:D.76902] *)cnt.2_18 + 88B], sum
 417      58000000 
 418              	.LVL44:
  23:RadixSort.cpp ****         cnt[i] = sum;
 419              		.loc 1 23 0
 420 0252 4889C2   		mov	rdx, rax	 # sum, sum
 421 0255 480314DD 		add	rdx, QWORD PTR 96[0+rbx*8]	 # sum, MEM[(size_t[0:D.76902] *)cnt.2_18 + 96B]
 421      60000000 
 422              	.LVL45:
  24:RadixSort.cpp ****         cnt[i] = sum;
 423              		.loc 1 24 0
 424 025d 488904DD 		mov	QWORD PTR 96[0+rbx*8], rax	 # MEM[(size_t[0:D.76902] *)cnt.2_18 + 96B], sum
 424      60000000 
 425              	.LVL46:
  23:RadixSort.cpp ****         cnt[i] = sum;
 426              		.loc 1 23 0
 427 0265 4889D0   		mov	rax, rdx	 # sum, sum
 428 0268 480304DD 		add	rax, QWORD PTR 104[0+rbx*8]	 # sum, MEM[(size_t[0:D.76902] *)cnt.2_18 + 104B]
 428      68000000 
 429              	.LVL47:
  24:RadixSort.cpp ****         cnt[i] = sum;
 430              		.loc 1 24 0
 431 0270 488914DD 		mov	QWORD PTR 104[0+rbx*8], rdx	 # MEM[(size_t[0:D.76902] *)cnt.2_18 + 104B], sum
 431      68000000 
 432              	.LVL48:
  23:RadixSort.cpp ****         cnt[i] = sum;
 433              		.loc 1 23 0
 434 0278 4889C2   		mov	rdx, rax	 # sum, sum
 435 027b 480314DD 		add	rdx, QWORD PTR 112[0+rbx*8]	 # sum, MEM[(size_t[0:D.76902] *)cnt.2_18 + 112B]
 435      70000000 
 436              	.LVL49:
  24:RadixSort.cpp ****         cnt[i] = sum;
 437              		.loc 1 24 0
 438 0283 488904DD 		mov	QWORD PTR 112[0+rbx*8], rax	 # MEM[(size_t[0:D.76902] *)cnt.2_18 + 112B], sum
 438      70000000 
 439              	.LVL50:
 440              	.LBE249:
 441              	.LBE259:
 442              	.LBB260:
 443              		.loc 1 29 0
 444 028b 31C0     		xor	eax, eax	 # i
 445 028d 4D85ED   		test	r13, r13	 # size
 446              	.LBE260:
 447              	.LBB261:
 448              	.LBB250:
  24:RadixSort.cpp ****         cnt[i] = sum;
 449              		.loc 1 24 0
 450 0290 488914DD 		mov	QWORD PTR 120[0+rbx*8], rdx	 # MEM[(size_t[0:D.76902] *)cnt.2_18 + 120B], sum
 450      78000000 
 451              	.LVL51:
 452              	.LBE250:
 453              	.LBE261:
 454              	.LBB262:
 455              		.loc 1 29 0
 456 0298 7434     		je	.L1	 #,
 457              	.LVL52:
 458 029a 660F1F44 		.p2align 4,,10
 458      0000
 459              	.L10:
 460              	.LBB252:
 461              	.LBB253:
 462              	.LBB254:
  10:RadixSort.cpp **** 
 463              		.loc 1 10 0 discriminator 3
 464 02a0 498B1484 		mov	rdx, QWORD PTR [r12+rax*4]	 # D.77354, MEM[base: InKey_24(D), index: i_7, step: 4, offset: 0B]
 465              	.LBE254:
 466              	.LBE253:
  30:RadixSort.cpp ****     {
  31:RadixSort.cpp ****         auto bin = key(InKey[i]);
  32:RadixSort.cpp ****         OutKey [cnt[bin]] = InKey[i];
 467              		.loc 1 32 0 discriminator 3
 468 02a4 458B0484 		mov	r8d, DWORD PTR [r12+rax*4]	 # D.77359, MEM[base: InKey_24(D), index: i_7, step: 4, offset: 0B]
 469              	.LBB256:
 470              	.LBB255:
  10:RadixSort.cpp **** 
 471              		.loc 1 10 0 discriminator 3
 472 02a8 83E20F   		and	edx, 15	 # D.77354,
 473 02ab 488D0CD6 		lea	rcx, [rsi+rdx*8]	 # D.77353,
 474              	.LBE255:
 475              	.LBE256:
 476              		.loc 1 32 0 discriminator 3
 477 02af 488B11   		mov	rdx, QWORD PTR [rcx]	 # D.77354, MEM[(size_t[0:D.76902] *)_10]
 478 02b2 45890497 		mov	DWORD PTR [r15+rdx*4], r8d	 # *_49, D.77359
  33:RadixSort.cpp ****         OutData[cnt[bin]] = InData[i];
 479              		.loc 1 33 0 discriminator 3
 480 02b6 458B0486 		mov	r8d, DWORD PTR [r14+rax*4]	 # D.77359, MEM[base: InData_55(D), index: i_7, step: 4, offset: 0B
 481              	.LBE252:
  29:RadixSort.cpp ****     {
 482              		.loc 1 29 0 discriminator 3
 483 02ba 4883C001 		add	rax, 1	 # i,
 484              	.LVL53:
 485              	.LBB257:
 486              		.loc 1 33 0 discriminator 3
 487 02be 45890493 		mov	DWORD PTR [r11+rdx*4], r8d	 # *_53, D.77359
  34:RadixSort.cpp ****         cnt[bin]++;
 488              		.loc 1 34 0 discriminator 3
 489 02c2 4883C201 		add	rdx, 1	 # tmp283,
 490              	.LBE257:
  29:RadixSort.cpp ****     {
 491              		.loc 1 29 0 discriminator 3
 492 02c6 4C39E8   		cmp	rax, r13	 # i, size
 493              	.LBB258:
 494              		.loc 1 34 0 discriminator 3
 495 02c9 488911   		mov	QWORD PTR [rcx], rdx	 # MEM[(size_t[0:D.76902] *)_10], tmp283
 496              	.LBE258:
  29:RadixSort.cpp ****     {
 497              		.loc 1 29 0 discriminator 3
 498 02cc 75D2     		jne	.L10	 #,
 499              	.LVL54:
 500              	.L1:
 501              	.LBE262:
 502              	.LBE264:
  35:RadixSort.cpp ****     }
  36:RadixSort.cpp **** }
 503              		.loc 1 36 0
 504 02ce 488D65E8 		lea	rsp, -24[rbp]	 #,
 505 02d2 5B       		pop	rbx	 #
 506              		.cfi_remember_state
 507              		.cfi_restore 3
 508 02d3 5E       		pop	rsi	 #
 509              		.cfi_restore 4
 510              	.LVL55:
 511 02d4 5F       		pop	rdi	 #
 512              		.cfi_restore 5
 513 02d5 415C     		pop	r12	 #
 514              		.cfi_restore 12
 515              	.LVL56:
 516 02d7 415D     		pop	r13	 #
 517              		.cfi_restore 13
 518 02d9 415E     		pop	r14	 #
 519              		.cfi_restore 14
 520              	.LVL57:
 521 02db 415F     		pop	r15	 #
 522              		.cfi_restore 15
 523              	.LVL58:
 524 02dd 5D       		pop	rbp	 #
 525              		.cfi_restore 6
 526              		.cfi_def_cfa 7, -40
 527              	.LVL59:
 528 02de C3       		ret
 529              	.LVL60:
 530 02df 90       		.p2align 4,,10
 531              	.L3:
 532              		.cfi_restore_state
 533              	.LBB265:
  17:RadixSort.cpp ****     printf("Counting: %.3lf milliseconds = %.3lf MB/s = %.3lf MiB/s\n", t.Elapsed(), speed/1e6, spe
 534              		.loc 1 17 0
 535 02e0 4C89E8   		mov	rax, r13	 # tmp239, size
 536 02e3 4C89EA   		mov	rdx, r13	 # tmp240, size
 537 02e6 660FEFC9 		pxor	xmm1, xmm1	 # tmp238
 538 02ea 48D1E8   		shr	rax	 # tmp239
 539 02ed 83E201   		and	edx, 1	 # tmp240,
 540 02f0 4809D0   		or	rax, rdx	 # tmp239, tmp240
 541 02f3 F2480F2A 		cvtsi2sdq	xmm1, rax	 # tmp238, tmp239
 541      C8
 542 02f8 F20F58C9 		addsd	xmm1, xmm1	 # D.77357, tmp238
 543 02fc E91DFEFF 		jmp	.L4	 #
 543      FF
 544              	.LBE265:
 545              		.cfi_endproc
 546              	.LFE3007:
 547              		.seh_endproc
 548 0301 90909090 		.section	.text$_Z13RadixSortPassIjjLi0ELi6EEvPKT_PKT0_PS0_PS3_y,"x"
 548      90909090 
 548      90909090 
 548      909090
 549              		.linkonce discard
 550              		.p2align 4,,15
 551              		.globl	_Z13RadixSortPassIjjLi0ELi6EEvPKT_PKT0_PS0_PS3_y
 553              		.seh_proc	_Z13RadixSortPassIjjLi0ELi6EEvPKT_PKT0_PS0_PS3_y
 554              	_Z13RadixSortPassIjjLi0ELi6EEvPKT_PKT0_PS0_PS3_y:
 555              	.LFB3009:
   6:RadixSort.cpp **** {
 556              		.loc 1 6 0
 557              		.cfi_startproc
 558              	.LVL61:
 559 0000 55       		push	rbp	 #
 560              		.seh_pushreg	rbp
 561              		.cfi_def_cfa_offset 16
 562              		.cfi_offset 6, -16
 563 0001 4157     		push	r15	 #
 564              		.seh_pushreg	r15
 565              		.cfi_def_cfa_offset 24
 566              		.cfi_offset 15, -24
 567 0003 4156     		push	r14	 #
 568              		.seh_pushreg	r14
 569              		.cfi_def_cfa_offset 32
 570              		.cfi_offset 14, -32
 571 0005 4155     		push	r13	 #
 572              		.seh_pushreg	r13
 573              		.cfi_def_cfa_offset 40
 574              		.cfi_offset 13, -40
 575 0007 4154     		push	r12	 #
 576              		.seh_pushreg	r12
 577              		.cfi_def_cfa_offset 48
 578              		.cfi_offset 12, -48
 579 0009 57       		push	rdi	 #
 580              		.seh_pushreg	rdi
 581              		.cfi_def_cfa_offset 56
 582              		.cfi_offset 5, -56
 583 000a 56       		push	rsi	 #
 584              		.seh_pushreg	rsi
 585              		.cfi_def_cfa_offset 64
 586              		.cfi_offset 4, -64
 587 000b 53       		push	rbx	 #
 588              		.seh_pushreg	rbx
 589              		.cfi_def_cfa_offset 72
 590              		.cfi_offset 3, -72
 591 000c 4883EC58 		sub	rsp, 88	 #,
 592              		.seh_stackalloc	88
 593              		.cfi_def_cfa_offset 160
 594 0010 488DAC24 		lea	rbp, 128[rsp]	 #,
 594      80000000 
 595              		.seh_setframe	rbp, 128
 596              		.cfi_def_cfa 6, 32
 597              		.seh_endprologue
 598              	.LVL62:
   6:RadixSort.cpp **** {
 599              		.loc 1 6 0
 600 0018 4C8B6540 		mov	r12, QWORD PTR 64[rbp]	 # size, size
 601              	.LBB291:
 602              	.LBB292:
 603              	.LBB293:
  43:timer.h       **** 
 604              		.loc 2 43 0
 605 001c 488D45B0 		lea	rax, -80[rbp]	 # tmp206,
 606              	.LVL63:
 607              	.LBE293:
 608              	.LBE292:
 609              	.LBE291:
   6:RadixSort.cpp **** {
 610              		.loc 1 6 0
 611 0020 4989D5   		mov	r13, rdx	 # InData, InData
 612 0023 4D89C7   		mov	r15, r8	 # OutKey, OutKey
 613              	.LBB333:
 614              	.LBB305:
 615              	.LBB302:
  43:timer.h       **** 
 616              		.loc 2 43 0
 617 0026 4889C7   		mov	rdi, rax	 # tmp206, tmp206
 618              	.LBE302:
 619              	.LBE305:
 620              	.LBE333:
   6:RadixSort.cpp **** {
 621              		.loc 1 6 0
 622 0029 4D89CE   		mov	r14, r9	 # OutData, OutData
 623 002c 4889CE   		mov	rsi, rcx	 # InKey, InKey
 624              	.LBB334:
 625              	.LBB306:
 626              	.LBB303:
  43:timer.h       **** 
 627              		.loc 2 43 0
 628 002f 488945A0 		mov	QWORD PTR -96[rbp], rax	 # %sfp, tmp206
 629 0033 488D4810 		lea	rcx, 16[rax]	 # tmp140,
 630              	.LVL64:
 631 0037 FF150000 		call	[QWORD PTR __imp_QueryPerformanceFrequency[rip]]	 #
 631      0000
 632              	.LVL65:
 633              	.LBB294:
 634              	.LBB295:
 635              	.LBB296:
 636              	.LBB297:
  25:timer.h       ****     }
 637              		.loc 2 25 0
 638 003d 488B0500 		mov	rax, QWORD PTR __imp_QueryPerformanceCounter[rip]	 # tmp205,
 638      000000
 639 0044 4889F9   		mov	rcx, rdi	 #, tmp206
 640 0047 4889C3   		mov	rbx, rax	 # tmp205, tmp205
 641 004a 488945A8 		mov	QWORD PTR -88[rbp], rax	 # %sfp, tmp205
 642 004e FFD0     		call	rax	 # tmp205
 643              	.LVL66:
 644              	.LBE297:
 645              	.LBE296:
 646              	.LBB298:
 647              	.LBB299:
  30:timer.h       ****     }
 648              		.loc 2 30 0
 649 0050 488D4F08 		lea	rcx, 8[rdi]	 # tmp145,
 650 0054 4889D8   		mov	rax, rbx	 # tmp205, tmp205
 651 0057 FFD0     		call	rax	 # tmp205
 652              	.LVL67:
 653              	.LBE299:
 654              	.LBE298:
 655              		.loc 2 56 0
 656 0059 488B45B8 		mov	rax, QWORD PTR -72[rbp]	 # t.m_stop.QuadPart, t.m_stop.QuadPart
 657              	.LBE295:
 658              	.LBE294:
 659              	.LBE303:
 660              	.LBE306:
 661              	.LBB307:
 662              	.LBB308:
  25:timer.h       ****     }
 663              		.loc 2 25 0
 664 005d 4889F9   		mov	rcx, rdi	 #, tmp206
 665              	.LBE308:
 666              	.LBE307:
 667              	.LBB310:
 668              	.LBB304:
 669              	.LBB301:
 670              	.LBB300:
 671              		.loc 2 56 0
 672 0060 482B45B0 		sub	rax, QWORD PTR -80[rbp]	 # D.77404, t.m_start.QuadPart
 673              	.LBE300:
 674              	.LBE301:
  46:timer.h       ****     }
 675              		.loc 2 46 0
 676 0064 488945C8 		mov	QWORD PTR -56[rbp], rax	 # t.m_overhead, D.77404
 677              	.LVL68:
 678              	.LBE304:
 679              	.LBE310:
 680              	.LBB311:
 681              	.LBB309:
  25:timer.h       ****     }
 682              		.loc 2 25 0
 683 0068 4889D8   		mov	rax, rbx	 # tmp205, tmp205
 684 006b FFD0     		call	rax	 # tmp205
 685              	.LVL69:
 686              	.LBE309:
 687              	.LBE311:
  14:RadixSort.cpp ****     for (size_t i=0; i<size; i++)
 688              		.loc 1 14 0
 689 006d 4881EC10 		sub	rsp, 528	 #,
 689      020000
 690 0074 B93F0000 		mov	ecx, 63	 # tmp160,
 690      00
 691 0079 488D4424 		lea	rax, 39[rsp]	 # tmp154,
 691      27
 692 007e 48C1E803 		shr	rax, 3	 # tmp155,
 693 0082 488D1CC5 		lea	rbx, 0[0+rax*8]	 # tmp156,
 693      00000000 
 694              	.LVL70:
 695 008a 48C704C5 		mov	QWORD PTR 0[0+rax*8], 0	 # MEM[(size_t *)cnt.7_18],
 695      00000000 
 695      00000000 
 696 0096 31C0     		xor	eax, eax	 # tmp159
 697              	.LBB312:
  15:RadixSort.cpp ****         cnt[key(InKey[i])]++;
 698              		.loc 1 15 0
 699 0098 4D85E4   		test	r12, r12	 # size
 700              	.LBE312:
  14:RadixSort.cpp ****     for (size_t i=0; i<size; i++)
 701              		.loc 1 14 0
 702 009b 488D5308 		lea	rdx, 8[rbx]	 # D.77396,
 703 009f 4889D7   		mov	rdi, rdx	 # D.77396, D.77396
 704              	.LVL71:
 705 00a2 4889F2   		mov	rdx, rsi	 # ivtmp.87, InKey
 706 00a5 F348AB   		rep stosq
 707              	.LVL72:
 708 00a8 4A8D0CA6 		lea	rcx, [rsi+r12*4]	 # D.77397,
 709              	.LBB315:
  15:RadixSort.cpp ****         cnt[key(InKey[i])]++;
 710              		.loc 1 15 0
 711 00ac 7416     		je	.L21	 #,
 712              	.LVL73:
 713 00ae 6690     		.p2align 4,,10
 714              	.L26:
 715              	.LBB313:
 716              	.LBB314:
  10:RadixSort.cpp **** 
 717              		.loc 1 10 0 discriminator 3
 718 00b0 488B02   		mov	rax, QWORD PTR [rdx]	 # D.77395, MEM[base: _14, offset: 0B]
 719 00b3 4883C204 		add	rdx, 4	 # ivtmp.87,
 720              	.LVL74:
 721 00b7 83E03F   		and	eax, 63	 # D.77395,
 722              	.LBE314:
 723              	.LBE313:
  16:RadixSort.cpp ****     t.Stop();  double speed = size/(t.Elapsed()/1000);
 724              		.loc 1 16 0 discriminator 3
 725 00ba 488304C3 		add	QWORD PTR [rbx+rax*8], 1	 # MEM[(size_t[0:D.76943] *)_26],
 725      01
  15:RadixSort.cpp ****         cnt[key(InKey[i])]++;
 726              		.loc 1 15 0 discriminator 3
 727 00bf 4839CA   		cmp	rdx, rcx	 # ivtmp.87, D.77397
 728 00c2 75EC     		jne	.L26	 #,
 729              	.LVL75:
 730              	.L21:
 731              	.LBE315:
 732              	.LBB316:
 733              	.LBB317:
  30:timer.h       ****     }
 734              		.loc 2 30 0
 735 00c4 488B4DA0 		mov	rcx, QWORD PTR -96[rbp]	 # tmp162, %sfp
 736 00c8 488B45A8 		mov	rax, QWORD PTR -88[rbp]	 # tmp205, %sfp
 737 00cc 4883C108 		add	rcx, 8	 # tmp162,
 738 00d0 FFD0     		call	rax	 # tmp205
 739              	.LVL76:
 740              	.LBE317:
 741              	.LBE316:
 742              	.LBB318:
 743              	.LBB319:
  36:timer.h       ****                                           * 1000.0 / m_freq.QuadPart;
 744              		.loc 2 36 0
 745 00d2 488B45B8 		mov	rax, QWORD PTR -72[rbp]	 # t.m_stop.QuadPart, t.m_stop.QuadPart
  37:timer.h       ****     }
 746              		.loc 2 37 0
 747 00d6 660FEFC0 		pxor	xmm0, xmm0	 # D.77400
 748 00da 660FEFC9 		pxor	xmm1, xmm1	 # D.77400
 749 00de F2480F2A 		cvtsi2sdq	xmm1, QWORD PTR -64[rbp]	 # D.77400, t.m_freq.QuadPart
 749      4DC0
  36:timer.h       ****                                           * 1000.0 / m_freq.QuadPart;
 750              		.loc 2 36 0
 751 00e4 482B45B0 		sub	rax, QWORD PTR -80[rbp]	 # D.77399, t.m_start.QuadPart
 752 00e8 482B45C8 		sub	rax, QWORD PTR -56[rbp]	 # D.77399, t.m_overhead
 753              	.LBE319:
 754              	.LBE318:
  17:RadixSort.cpp ****     printf("Counting: %.3lf milliseconds = %.3lf MB/s = %.3lf MiB/s\n", t.Elapsed(), speed/1e6, spe
 755              		.loc 1 17 0
 756 00ec 4D85E4   		test	r12, r12	 # size
 757              	.LBB321:
 758              	.LBB320:
  37:timer.h       ****     }
 759              		.loc 2 37 0
 760 00ef F20F1015 		movsd	xmm2, QWORD PTR .LC0[rip]	 # tmp207,
 760      80000000 
 761 00f7 F2480F2A 		cvtsi2sdq	xmm0, rax	 # D.77400, D.77399
 761      C0
 762 00fc F20F59C2 		mulsd	xmm0, xmm2	 # D.77400, tmp207
 763 0100 F20F5EC1 		divsd	xmm0, xmm1	 # D.77400, D.77400
 764              	.LBE320:
 765              	.LBE321:
  17:RadixSort.cpp ****     printf("Counting: %.3lf milliseconds = %.3lf MB/s = %.3lf MiB/s\n", t.Elapsed(), speed/1e6, spe
 766              		.loc 1 17 0
 767 0104 0F88C600 		js	.L17	 #,
 767      0000
 768 010a 660FEFC9 		pxor	xmm1, xmm1	 # D.77400
 769 010e F2490F2A 		cvtsi2sdq	xmm1, r12	 # D.77400, size
 769      CC
 770              	.L18:
 771 0113 660F28E0 		movapd	xmm4, xmm0	 # D.77400, D.77400
  18:RadixSort.cpp ****     
 772              		.loc 1 18 0
 773 0117 66480F7E 		movq	rdx, xmm0	 #, D.77400
 773      C2
 774 011c 488D0D00 		lea	rcx, .LC3[rip]	 #,
 774      000000
  17:RadixSort.cpp ****     printf("Counting: %.3lf milliseconds = %.3lf MB/s = %.3lf MiB/s\n", t.Elapsed(), speed/1e6, spe
 775              		.loc 1 17 0
 776 0123 F20F5EE2 		divsd	xmm4, xmm2	 # D.77400, tmp207
  18:RadixSort.cpp ****     
 777              		.loc 1 18 0
 778 0127 F20F1015 		movsd	xmm2, QWORD PTR .LC1[rip]	 # D.77400,
 778      88000000 
  17:RadixSort.cpp ****     printf("Counting: %.3lf milliseconds = %.3lf MB/s = %.3lf MiB/s\n", t.Elapsed(), speed/1e6, spe
 779              		.loc 1 17 0
 780 012f F20F5ECC 		divsd	xmm1, xmm4	 # speed, D.77400
 781              	.LVL77:
  18:RadixSort.cpp ****     
 782              		.loc 1 18 0
 783 0133 F20F59D1 		mulsd	xmm2, xmm1	 # D.77400, speed
 784 0137 F20F5E0D 		divsd	xmm1, QWORD PTR .LC2[rip]	 # D.77400,
 784      90000000 
 785              	.LVL78:
 786 013f 66490F7E 		movq	r8, xmm1	 #, D.77400
 786      C8
 787 0144 660F28DA 		movapd	xmm3, xmm2	 #, D.77400
 788 0148 66490F7E 		movq	r9, xmm2	 #, D.77400
 788      D1
 789 014d 660F28D1 		movapd	xmm2, xmm1	 #, D.77400
 790 0151 660F28C8 		movapd	xmm1, xmm0	 #, D.77400
 791 0155 E8000000 		call	printf	 #
 791      00
 792              	.LVL79:
 793 015a 4889D8   		mov	rax, rbx	 # ivtmp.82, tmp156
 794 015d 31D2     		xor	edx, edx	 # sum
 795 015f 4C8D8300 		lea	r8, 512[rbx]	 # D.77397,
 795      020000
 796              	.LVL80:
 797 0166 662E0F1F 		.p2align 4,,10
 797      84000000 
 797      0000
 798              	.L19:
 799              	.LBB322:
 800              	.LBB323:
  23:RadixSort.cpp ****         cnt[i] = sum;
 801              		.loc 1 23 0 discriminator 3
 802 0170 4889D1   		mov	rcx, rdx	 # sum, sum
 803 0173 480308   		add	rcx, QWORD PTR [rax]	 # sum, MEM[base: _98, offset: 0B]
 804              	.LVL81:
  24:RadixSort.cpp ****         sum = tmp;
 805              		.loc 1 24 0 discriminator 3
 806 0176 488910   		mov	QWORD PTR [rax], rdx	 # MEM[base: _98, offset: 0B], sum
 807              	.LVL82:
 808 0179 4883C008 		add	rax, 8	 # ivtmp.82,
 809              	.LBE323:
  21:RadixSort.cpp ****     {
 810              		.loc 1 21 0 discriminator 3
 811 017d 4C39C0   		cmp	rax, r8	 # ivtmp.82, D.77397
 812              	.LBB324:
  25:RadixSort.cpp ****     }
 813              		.loc 1 25 0 discriminator 3
 814 0180 4889CA   		mov	rdx, rcx	 # sum, sum
 815              	.LBE324:
  21:RadixSort.cpp ****     {
 816              		.loc 1 21 0 discriminator 3
 817 0183 75EB     		jne	.L19	 #,
 818              	.LVL83:
 819              	.LBE322:
 820              	.LBB325:
  29:RadixSort.cpp ****     {
 821              		.loc 1 29 0 discriminator 1
 822 0185 31C0     		xor	eax, eax	 # i
 823 0187 4D85E4   		test	r12, r12	 # size
 824 018a 7433     		je	.L15	 #,
 825              	.LVL84:
 826 018c 0F1F4000 		.p2align 4,,10
 827              	.L25:
 828              	.LBB326:
 829              	.LBB327:
 830              	.LBB328:
  10:RadixSort.cpp **** 
 831              		.loc 1 10 0 discriminator 3
 832 0190 488B1486 		mov	rdx, QWORD PTR [rsi+rax*4]	 # D.77395, MEM[base: InKey_24(D), index: i_7, step: 4, offset: 0B]
 833              	.LBE328:
 834              	.LBE327:
  32:RadixSort.cpp ****         OutData[cnt[bin]] = InData[i];
 835              		.loc 1 32 0 discriminator 3
 836 0194 448B0486 		mov	r8d, DWORD PTR [rsi+rax*4]	 # D.77402, MEM[base: InKey_24(D), index: i_7, step: 4, offset: 0B]
 837              	.LBB330:
 838              	.LBB329:
  10:RadixSort.cpp **** 
 839              		.loc 1 10 0 discriminator 3
 840 0198 83E23F   		and	edx, 63	 # D.77395,
 841 019b 488D0CD3 		lea	rcx, [rbx+rdx*8]	 # D.77396,
 842              	.LBE329:
 843              	.LBE330:
  32:RadixSort.cpp ****         OutData[cnt[bin]] = InData[i];
 844              		.loc 1 32 0 discriminator 3
 845 019f 488B11   		mov	rdx, QWORD PTR [rcx]	 # D.77395, MEM[(size_t[0:D.76943] *)_104]
 846 01a2 45890497 		mov	DWORD PTR [r15+rdx*4], r8d	 # *_49, D.77402
  33:RadixSort.cpp ****         cnt[bin]++;
 847              		.loc 1 33 0 discriminator 3
 848 01a6 458B4485 		mov	r8d, DWORD PTR 0[r13+rax*4]	 # D.77402, MEM[base: InData_55(D), index: i_7, step: 4, offset: 0
 848      00
 849              	.LBE326:
  29:RadixSort.cpp ****     {
 850              		.loc 1 29 0 discriminator 3
 851 01ab 4883C001 		add	rax, 1	 # i,
 852              	.LVL85:
 853              	.LBB331:
  33:RadixSort.cpp ****         cnt[bin]++;
 854              		.loc 1 33 0 discriminator 3
 855 01af 45890496 		mov	DWORD PTR [r14+rdx*4], r8d	 # *_53, D.77402
  34:RadixSort.cpp ****     }
 856              		.loc 1 34 0 discriminator 3
 857 01b3 4883C201 		add	rdx, 1	 # tmp204,
 858              	.LBE331:
  29:RadixSort.cpp ****     {
 859              		.loc 1 29 0 discriminator 3
 860 01b7 4C39E0   		cmp	rax, r12	 # i, size
 861              	.LBB332:
  34:RadixSort.cpp ****     }
 862              		.loc 1 34 0 discriminator 3
 863 01ba 488911   		mov	QWORD PTR [rcx], rdx	 # MEM[(size_t[0:D.76943] *)_104], tmp204
 864              	.LBE332:
  29:RadixSort.cpp ****     {
 865              		.loc 1 29 0 discriminator 3
 866 01bd 75D1     		jne	.L25	 #,
 867              	.LVL86:
 868              	.L15:
 869              	.LBE325:
 870              	.LBE334:
 871              		.loc 1 36 0
 872 01bf 488D65D8 		lea	rsp, -40[rbp]	 #,
 873 01c3 5B       		pop	rbx	 #
 874              		.cfi_remember_state
 875              		.cfi_restore 3
 876              	.LVL87:
 877 01c4 5E       		pop	rsi	 #
 878              		.cfi_restore 4
 879              	.LVL88:
 880 01c5 5F       		pop	rdi	 #
 881              		.cfi_restore 5
 882 01c6 415C     		pop	r12	 #
 883              		.cfi_restore 12
 884 01c8 415D     		pop	r13	 #
 885              		.cfi_restore 13
 886              	.LVL89:
 887 01ca 415E     		pop	r14	 #
 888              		.cfi_restore 14
 889              	.LVL90:
 890 01cc 415F     		pop	r15	 #
 891              		.cfi_restore 15
 892              	.LVL91:
 893 01ce 5D       		pop	rbp	 #
 894              		.cfi_restore 6
 895              		.cfi_def_cfa 7, -24
 896              	.LVL92:
 897 01cf C3       		ret
 898              	.LVL93:
 899              	.L17:
 900              		.cfi_restore_state
 901              	.LBB335:
  17:RadixSort.cpp ****     printf("Counting: %.3lf milliseconds = %.3lf MB/s = %.3lf MiB/s\n", t.Elapsed(), speed/1e6, spe
 902              		.loc 1 17 0
 903 01d0 4C89E0   		mov	rax, r12	 # tmp173, size
 904 01d3 4C89E2   		mov	rdx, r12	 # tmp174, size
 905 01d6 660FEFC9 		pxor	xmm1, xmm1	 # tmp172
 906 01da 48D1E8   		shr	rax	 # tmp173
 907 01dd 83E201   		and	edx, 1	 # tmp174,
 908 01e0 4809D0   		or	rax, rdx	 # tmp173, tmp174
 909 01e3 F2480F2A 		cvtsi2sdq	xmm1, rax	 # tmp172, tmp173
 909      C8
 910 01e8 F20F58C9 		addsd	xmm1, xmm1	 # D.77400, tmp172
 911 01ec E922FFFF 		jmp	.L18	 #
 911      FF
 912              	.LBE335:
 913              		.cfi_endproc
 914              	.LFE3009:
 915              		.seh_endproc
 916 01f1 90909090 		.section	.text$_Z13RadixSortPassIjjLi0ELi8EEvPKT_PKT0_PS0_PS3_y,"x"
 916      90909090 
 916      90909090 
 916      909090
 917              		.linkonce discard
 918              		.p2align 4,,15
 919              		.globl	_Z13RadixSortPassIjjLi0ELi8EEvPKT_PKT0_PS0_PS3_y
 921              		.seh_proc	_Z13RadixSortPassIjjLi0ELi8EEvPKT_PKT0_PS0_PS3_y
 922              	_Z13RadixSortPassIjjLi0ELi8EEvPKT_PKT0_PS0_PS3_y:
 923              	.LFB3011:
   6:RadixSort.cpp **** {
 924              		.loc 1 6 0
 925              		.cfi_startproc
 926              	.LVL94:
 927 0000 55       		push	rbp	 #
 928              		.seh_pushreg	rbp
 929              		.cfi_def_cfa_offset 16
 930              		.cfi_offset 6, -16
 931 0001 4157     		push	r15	 #
 932              		.seh_pushreg	r15
 933              		.cfi_def_cfa_offset 24
 934              		.cfi_offset 15, -24
 935 0003 4156     		push	r14	 #
 936              		.seh_pushreg	r14
 937              		.cfi_def_cfa_offset 32
 938              		.cfi_offset 14, -32
 939 0005 4155     		push	r13	 #
 940              		.seh_pushreg	r13
 941              		.cfi_def_cfa_offset 40
 942              		.cfi_offset 13, -40
 943 0007 4154     		push	r12	 #
 944              		.seh_pushreg	r12
 945              		.cfi_def_cfa_offset 48
 946              		.cfi_offset 12, -48
 947 0009 57       		push	rdi	 #
 948              		.seh_pushreg	rdi
 949              		.cfi_def_cfa_offset 56
 950              		.cfi_offset 5, -56
 951 000a 56       		push	rsi	 #
 952              		.seh_pushreg	rsi
 953              		.cfi_def_cfa_offset 64
 954              		.cfi_offset 4, -64
 955 000b 53       		push	rbx	 #
 956              		.seh_pushreg	rbx
 957              		.cfi_def_cfa_offset 72
 958              		.cfi_offset 3, -72
 959 000c 4883EC58 		sub	rsp, 88	 #,
 960              		.seh_stackalloc	88
 961              		.cfi_def_cfa_offset 160
 962 0010 488DAC24 		lea	rbp, 128[rsp]	 #,
 962      80000000 
 963              		.seh_setframe	rbp, 128
 964              		.cfi_def_cfa 6, 32
 965              		.seh_endprologue
 966              	.LVL95:
   6:RadixSort.cpp **** {
 967              		.loc 1 6 0
 968 0018 488B7D40 		mov	rdi, QWORD PTR 64[rbp]	 # size, size
 969              	.LBB361:
 970              	.LBB362:
 971              	.LBB363:
  43:timer.h       **** 
 972              		.loc 2 43 0
 973 001c 4C8D75B0 		lea	r14, -80[rbp]	 # tmp207,
 974              	.LVL96:
 975              	.LBE363:
 976              	.LBE362:
 977              	.LBE361:
   6:RadixSort.cpp **** {
 978              		.loc 1 6 0
 979 0020 4989D4   		mov	r12, rdx	 # InData, InData
 980 0023 4D89C5   		mov	r13, r8	 # OutKey, OutKey
 981 0026 4D89CF   		mov	r15, r9	 # OutData, OutData
 982 0029 4889CE   		mov	rsi, rcx	 # InKey, InKey
 983              	.LBB398:
 984              	.LBB374:
 985              	.LBB372:
  43:timer.h       **** 
 986              		.loc 2 43 0
 987 002c 498D4E10 		lea	rcx, 16[r14]	 # tmp140,
 988              	.LVL97:
 989 0030 FF150000 		call	[QWORD PTR __imp_QueryPerformanceFrequency[rip]]	 #
 989      0000
 990              	.LVL98:
 991              	.LBB364:
 992              	.LBB365:
 993              	.LBB366:
 994              	.LBB367:
  25:timer.h       ****     }
 995              		.loc 2 25 0
 996 0036 488B0500 		mov	rax, QWORD PTR __imp_QueryPerformanceCounter[rip]	 # tmp206,
 996      000000
 997 003d 4C89F1   		mov	rcx, r14	 #, tmp207
 998 0040 4889C3   		mov	rbx, rax	 # tmp206, tmp206
 999 0043 488945A8 		mov	QWORD PTR -88[rbp], rax	 # %sfp, tmp206
 1000 0047 FFD0     		call	rax	 # tmp206
 1001              	.LVL99:
 1002              	.LBE367:
 1003              	.LBE366:
 1004              	.LBB368:
 1005              	.LBB369:
  30:timer.h       ****     }
 1006              		.loc 2 30 0
 1007 0049 498D4E08 		lea	rcx, 8[r14]	 # tmp145,
 1008 004d 4889D8   		mov	rax, rbx	 # tmp206, tmp206
 1009 0050 FFD0     		call	rax	 # tmp206
 1010              	.LVL100:
 1011              	.LBE369:
 1012              	.LBE368:
 1013              		.loc 2 56 0
 1014 0052 488B45B8 		mov	rax, QWORD PTR -72[rbp]	 # t.m_stop.QuadPart, t.m_stop.QuadPart
 1015              	.LBE365:
 1016              	.LBE364:
 1017              	.LBE372:
 1018              	.LBE374:
 1019              	.LBB375:
 1020              	.LBB376:
  25:timer.h       ****     }
 1021              		.loc 2 25 0
 1022 0056 4C89F1   		mov	rcx, r14	 #, tmp207
 1023              	.LBE376:
 1024              	.LBE375:
 1025              	.LBB378:
 1026              	.LBB373:
 1027              	.LBB371:
 1028              	.LBB370:
 1029              		.loc 2 56 0
 1030 0059 482B45B0 		sub	rax, QWORD PTR -80[rbp]	 # D.77442, t.m_start.QuadPart
 1031              	.LBE370:
 1032              	.LBE371:
  46:timer.h       ****     }
 1033              		.loc 2 46 0
 1034 005d 488945C8 		mov	QWORD PTR -56[rbp], rax	 # t.m_overhead, D.77442
 1035              	.LVL101:
 1036              	.LBE373:
 1037              	.LBE378:
 1038              	.LBB379:
 1039              	.LBB377:
  25:timer.h       ****     }
 1040              		.loc 2 25 0
 1041 0061 4889D8   		mov	rax, rbx	 # tmp206, tmp206
 1042 0064 FFD0     		call	rax	 # tmp206
 1043              	.LVL102:
 1044              	.LBE377:
 1045              	.LBE379:
  14:RadixSort.cpp ****     for (size_t i=0; i<size; i++)
 1046              		.loc 1 14 0
 1047 0066 4881EC10 		sub	rsp, 2064	 #,
 1047      080000
 1048 006d 31D2     		xor	edx, edx	 #
 1049 006f 41B8F807 		mov	r8d, 2040	 #,
 1049      0000
 1050 0075 488D4424 		lea	rax, 39[rsp]	 # tmp154,
 1050      27
 1051 007a 48C1E803 		shr	rax, 3	 # tmp155,
 1052 007e 488D1CC5 		lea	rbx, 0[0+rax*8]	 # tmp156,
 1052      00000000 
 1053              	.LVL103:
 1054 0086 48C704C5 		mov	QWORD PTR 0[0+rax*8], 0	 # MEM[(size_t *)cnt.12_18],
 1054      00000000 
 1054      00000000 
 1055 0092 488D4B08 		lea	rcx, 8[rbx]	 # D.77434,
 1056 0096 E8000000 		call	memset	 #
 1056      00
 1057              	.LVL104:
 1058 009b 488D0CBE 		lea	rcx, [rsi+rdi*4]	 # D.77435,
 1059              	.LBB380:
  15:RadixSort.cpp ****         cnt[key(InKey[i])]++;
 1060              		.loc 1 15 0
 1061 009f 4885FF   		test	rdi, rdi	 # size
 1062 00a2 4889F0   		mov	rax, rsi	 # ivtmp.108, InKey
 1063 00a5 741A     		je	.L36	 #,
 1064              	.LVL105:
 1065 00a7 660F1F84 		.p2align 4,,10
 1065      00000000 
 1065      00
 1066              	.L41:
 1067              	.LBB381:
 1068              	.LBB382:
  10:RadixSort.cpp **** 
 1069              		.loc 1 10 0 discriminator 3
 1070 00b0 0FB610   		movzx	edx, BYTE PTR [rax]	 # D.77433, MEM[base: _14, offset: 0B]
 1071 00b3 4883C004 		add	rax, 4	 # ivtmp.108,
 1072              	.LVL106:
 1073              	.LBE382:
 1074              	.LBE381:
  16:RadixSort.cpp ****     t.Stop();  double speed = size/(t.Elapsed()/1000);
 1075              		.loc 1 16 0 discriminator 3
 1076 00b7 488304D3 		add	QWORD PTR [rbx+rdx*8], 1	 # MEM[(size_t[0:D.76984] *)_26],
 1076      01
  15:RadixSort.cpp ****         cnt[key(InKey[i])]++;
 1077              		.loc 1 15 0 discriminator 3
 1078 00bc 4839C8   		cmp	rax, rcx	 # ivtmp.108, D.77435
 1079 00bf 75EF     		jne	.L41	 #,
 1080              	.LVL107:
 1081              	.L36:
 1082              	.LBE380:
 1083              	.LBB383:
 1084              	.LBB384:
  30:timer.h       ****     }
 1085              		.loc 2 30 0
 1086 00c1 498D4E08 		lea	rcx, 8[r14]	 # tmp163,
 1087 00c5 488B45A8 		mov	rax, QWORD PTR -88[rbp]	 # tmp206, %sfp
 1088 00c9 FFD0     		call	rax	 # tmp206
 1089              	.LVL108:
 1090              	.LBE384:
 1091              	.LBE383:
 1092              	.LBB385:
 1093              	.LBB386:
  36:timer.h       ****                                           * 1000.0 / m_freq.QuadPart;
 1094              		.loc 2 36 0
 1095 00cb 488B45B8 		mov	rax, QWORD PTR -72[rbp]	 # t.m_stop.QuadPart, t.m_stop.QuadPart
  37:timer.h       ****     }
 1096              		.loc 2 37 0
 1097 00cf 660FEFC0 		pxor	xmm0, xmm0	 # D.77438
 1098 00d3 660FEFC9 		pxor	xmm1, xmm1	 # D.77438
 1099 00d7 F2480F2A 		cvtsi2sdq	xmm1, QWORD PTR -64[rbp]	 # D.77438, t.m_freq.QuadPart
 1099      4DC0
  36:timer.h       ****                                           * 1000.0 / m_freq.QuadPart;
 1100              		.loc 2 36 0
 1101 00dd 482B45B0 		sub	rax, QWORD PTR -80[rbp]	 # D.77437, t.m_start.QuadPart
 1102 00e1 482B45C8 		sub	rax, QWORD PTR -56[rbp]	 # D.77437, t.m_overhead
 1103              	.LBE386:
 1104              	.LBE385:
  17:RadixSort.cpp ****     printf("Counting: %.3lf milliseconds = %.3lf MB/s = %.3lf MiB/s\n", t.Elapsed(), speed/1e6, spe
 1105              		.loc 1 17 0
 1106 00e5 4885FF   		test	rdi, rdi	 # size
 1107              	.LBB388:
 1108              	.LBB387:
  37:timer.h       ****     }
 1109              		.loc 2 37 0
 1110 00e8 F20F1015 		movsd	xmm2, QWORD PTR .LC0[rip]	 # tmp208,
 1110      80000000 
 1111 00f0 F2480F2A 		cvtsi2sdq	xmm0, rax	 # D.77438, D.77437
 1111      C0
 1112 00f5 F20F59C2 		mulsd	xmm0, xmm2	 # D.77438, tmp208
 1113 00f9 F20F5EC1 		divsd	xmm0, xmm1	 # D.77438, D.77438
 1114              	.LBE387:
 1115              	.LBE388:
  17:RadixSort.cpp ****     printf("Counting: %.3lf milliseconds = %.3lf MB/s = %.3lf MiB/s\n", t.Elapsed(), speed/1e6, spe
 1116              		.loc 1 17 0
 1117 00fd 0F88BA00 		js	.L32	 #,
 1117      0000
 1118 0103 660FEFC9 		pxor	xmm1, xmm1	 # D.77438
 1119 0107 F2480F2A 		cvtsi2sdq	xmm1, rdi	 # D.77438, size
 1119      CF
 1120              	.L33:
 1121 010c 660F28E0 		movapd	xmm4, xmm0	 # D.77438, D.77438
  18:RadixSort.cpp ****     
 1122              		.loc 1 18 0
 1123 0110 66480F7E 		movq	rdx, xmm0	 #, D.77438
 1123      C2
 1124 0115 488D0D00 		lea	rcx, .LC3[rip]	 #,
 1124      000000
  17:RadixSort.cpp ****     printf("Counting: %.3lf milliseconds = %.3lf MB/s = %.3lf MiB/s\n", t.Elapsed(), speed/1e6, spe
 1125              		.loc 1 17 0
 1126 011c F20F5EE2 		divsd	xmm4, xmm2	 # D.77438, tmp208
  18:RadixSort.cpp ****     
 1127              		.loc 1 18 0
 1128 0120 F20F1015 		movsd	xmm2, QWORD PTR .LC1[rip]	 # D.77438,
 1128      88000000 
  17:RadixSort.cpp ****     printf("Counting: %.3lf milliseconds = %.3lf MB/s = %.3lf MiB/s\n", t.Elapsed(), speed/1e6, spe
 1129              		.loc 1 17 0
 1130 0128 F20F5ECC 		divsd	xmm1, xmm4	 # speed, D.77438
 1131              	.LVL109:
  18:RadixSort.cpp ****     
 1132              		.loc 1 18 0
 1133 012c F20F59D1 		mulsd	xmm2, xmm1	 # D.77438, speed
 1134 0130 F20F5E0D 		divsd	xmm1, QWORD PTR .LC2[rip]	 # D.77438,
 1134      90000000 
 1135              	.LVL110:
 1136 0138 66490F7E 		movq	r8, xmm1	 #, D.77438
 1136      C8
 1137 013d 660F28DA 		movapd	xmm3, xmm2	 #, D.77438
 1138 0141 66490F7E 		movq	r9, xmm2	 #, D.77438
 1138      D1
 1139 0146 660F28D1 		movapd	xmm2, xmm1	 #, D.77438
 1140 014a 660F28C8 		movapd	xmm1, xmm0	 #, D.77438
 1141 014e E8000000 		call	printf	 #
 1141      00
 1142              	.LVL111:
 1143 0153 4889D8   		mov	rax, rbx	 # ivtmp.103, tmp156
 1144 0156 31D2     		xor	edx, edx	 # sum
 1145 0158 4C8D8300 		lea	r8, 2048[rbx]	 # D.77435,
 1145      080000
 1146              	.LVL112:
 1147 015f 90       		.p2align 4,,10
 1148              	.L34:
 1149              	.LBB389:
 1150              	.LBB390:
  23:RadixSort.cpp ****         cnt[i] = sum;
 1151              		.loc 1 23 0 discriminator 3
 1152 0160 4889D1   		mov	rcx, rdx	 # sum, sum
 1153 0163 480308   		add	rcx, QWORD PTR [rax]	 # sum, MEM[base: _98, offset: 0B]
 1154              	.LVL113:
  24:RadixSort.cpp ****         sum = tmp;
 1155              		.loc 1 24 0 discriminator 3
 1156 0166 488910   		mov	QWORD PTR [rax], rdx	 # MEM[base: _98, offset: 0B], sum
 1157              	.LVL114:
 1158 0169 4883C008 		add	rax, 8	 # ivtmp.103,
 1159              	.LBE390:
  21:RadixSort.cpp ****     {
 1160              		.loc 1 21 0 discriminator 3
 1161 016d 4C39C0   		cmp	rax, r8	 # ivtmp.103, D.77435
 1162              	.LBB391:
  25:RadixSort.cpp ****     }
 1163              		.loc 1 25 0 discriminator 3
 1164 0170 4889CA   		mov	rdx, rcx	 # sum, sum
 1165              	.LBE391:
  21:RadixSort.cpp ****     {
 1166              		.loc 1 21 0 discriminator 3
 1167 0173 75EB     		jne	.L34	 #,
 1168              	.LVL115:
 1169              	.LBE389:
 1170              	.LBB392:
  29:RadixSort.cpp ****     {
 1171              		.loc 1 29 0 discriminator 1
 1172 0175 31C0     		xor	eax, eax	 # i
 1173 0177 4885FF   		test	rdi, rdi	 # size
 1174 017a 7430     		je	.L30	 #,
 1175              	.LVL116:
 1176 017c 0F1F4000 		.p2align 4,,10
 1177              	.L40:
 1178              	.LBB393:
 1179              	.LBB394:
 1180              	.LBB395:
  10:RadixSort.cpp **** 
 1181              		.loc 1 10 0 discriminator 3
 1182 0180 0FB61486 		movzx	edx, BYTE PTR [rsi+rax*4]	 # D.77433, MEM[base: InKey_24(D), index: i_7, step: 4, offset: 0B
 1183              	.LBE395:
 1184              	.LBE394:
  32:RadixSort.cpp ****         OutData[cnt[bin]] = InData[i];
 1185              		.loc 1 32 0 discriminator 3
 1186 0184 448B0486 		mov	r8d, DWORD PTR [rsi+rax*4]	 # D.77440, MEM[base: InKey_24(D), index: i_7, step: 4, offset: 0B]
 1187 0188 488D0CD3 		lea	rcx, [rbx+rdx*8]	 # D.77434,
 1188 018c 488B11   		mov	rdx, QWORD PTR [rcx]	 # D.77433, MEM[(size_t[0:D.76984] *)_104]
 1189 018f 45894495 		mov	DWORD PTR 0[r13+rdx*4], r8d	 # *_49, D.77440
 1189      00
  33:RadixSort.cpp ****         cnt[bin]++;
 1190              		.loc 1 33 0 discriminator 3
 1191 0194 458B0484 		mov	r8d, DWORD PTR [r12+rax*4]	 # D.77440, MEM[base: InData_55(D), index: i_7, step: 4, offset: 0B
 1192              	.LBE393:
  29:RadixSort.cpp ****     {
 1193              		.loc 1 29 0 discriminator 3
 1194 0198 4883C001 		add	rax, 1	 # i,
 1195              	.LVL117:
 1196              	.LBB396:
  33:RadixSort.cpp ****         cnt[bin]++;
 1197              		.loc 1 33 0 discriminator 3
 1198 019c 45890497 		mov	DWORD PTR [r15+rdx*4], r8d	 # *_53, D.77440
  34:RadixSort.cpp ****     }
 1199              		.loc 1 34 0 discriminator 3
 1200 01a0 4883C201 		add	rdx, 1	 # tmp205,
 1201              	.LBE396:
  29:RadixSort.cpp ****     {
 1202              		.loc 1 29 0 discriminator 3
 1203 01a4 4839F8   		cmp	rax, rdi	 # i, size
 1204              	.LBB397:
  34:RadixSort.cpp ****     }
 1205              		.loc 1 34 0 discriminator 3
 1206 01a7 488911   		mov	QWORD PTR [rcx], rdx	 # MEM[(size_t[0:D.76984] *)_104], tmp205
 1207              	.LBE397:
  29:RadixSort.cpp ****     {
 1208              		.loc 1 29 0 discriminator 3
 1209 01aa 75D4     		jne	.L40	 #,
 1210              	.LVL118:
 1211              	.L30:
 1212              	.LBE392:
 1213              	.LBE398:
 1214              		.loc 1 36 0
 1215 01ac 488D65D8 		lea	rsp, -40[rbp]	 #,
 1216 01b0 5B       		pop	rbx	 #
 1217              		.cfi_remember_state
 1218              		.cfi_restore 3
 1219              	.LVL119:
 1220 01b1 5E       		pop	rsi	 #
 1221              		.cfi_restore 4
 1222              	.LVL120:
 1223 01b2 5F       		pop	rdi	 #
 1224              		.cfi_restore 5
 1225 01b3 415C     		pop	r12	 #
 1226              		.cfi_restore 12
 1227              	.LVL121:
 1228 01b5 415D     		pop	r13	 #
 1229              		.cfi_restore 13
 1230              	.LVL122:
 1231 01b7 415E     		pop	r14	 #
 1232              		.cfi_restore 14
 1233              	.LVL123:
 1234 01b9 415F     		pop	r15	 #
 1235              		.cfi_restore 15
 1236              	.LVL124:
 1237 01bb 5D       		pop	rbp	 #
 1238              		.cfi_restore 6
 1239              		.cfi_def_cfa 7, -24
 1240              	.LVL125:
 1241 01bc C3       		ret
 1242              	.LVL126:
 1243              	.L32:
 1244              		.cfi_restore_state
 1245              	.LBB399:
  17:RadixSort.cpp ****     printf("Counting: %.3lf milliseconds = %.3lf MB/s = %.3lf MiB/s\n", t.Elapsed(), speed/1e6, spe
 1246              		.loc 1 17 0
 1247 01bd 4889F8   		mov	rax, rdi	 # tmp174, size
 1248 01c0 4889FA   		mov	rdx, rdi	 # tmp175, size
 1249 01c3 660FEFC9 		pxor	xmm1, xmm1	 # tmp173
 1250 01c7 48D1E8   		shr	rax	 # tmp174
 1251 01ca 83E201   		and	edx, 1	 # tmp175,
 1252 01cd 4809D0   		or	rax, rdx	 # tmp174, tmp175
 1253 01d0 F2480F2A 		cvtsi2sdq	xmm1, rax	 # tmp173, tmp174
 1253      C8
 1254 01d5 F20F58C9 		addsd	xmm1, xmm1	 # D.77438, tmp173
 1255 01d9 E92EFFFF 		jmp	.L33	 #
 1255      FF
 1256              	.LBE399:
 1257              		.cfi_endproc
 1258              	.LFE3011:
 1259              		.seh_endproc
 1260 01de 9090     		.section	.text$_Z13RadixSortPassIjjLi0ELi12EEvPKT_PKT0_PS0_PS3_y,"x"
 1261              		.linkonce discard
 1262              		.p2align 4,,15
 1263              		.globl	_Z13RadixSortPassIjjLi0ELi12EEvPKT_PKT0_PS0_PS3_y
 1265              		.seh_proc	_Z13RadixSortPassIjjLi0ELi12EEvPKT_PKT0_PS0_PS3_y
 1266              	_Z13RadixSortPassIjjLi0ELi12EEvPKT_PKT0_PS0_PS3_y:
 1267              	.LFB3013:
   6:RadixSort.cpp **** {
 1268              		.loc 1 6 0
 1269              		.cfi_startproc
 1270              	.LVL127:
 1271 0000 55       		push	rbp	 #
 1272              		.seh_pushreg	rbp
 1273              		.cfi_def_cfa_offset 16
 1274              		.cfi_offset 6, -16
 1275 0001 4157     		push	r15	 #
 1276              		.seh_pushreg	r15
 1277              		.cfi_def_cfa_offset 24
 1278              		.cfi_offset 15, -24
 1279 0003 4156     		push	r14	 #
 1280              		.seh_pushreg	r14
 1281              		.cfi_def_cfa_offset 32
 1282              		.cfi_offset 14, -32
 1283 0005 4155     		push	r13	 #
 1284              		.seh_pushreg	r13
 1285              		.cfi_def_cfa_offset 40
 1286              		.cfi_offset 13, -40
 1287 0007 4154     		push	r12	 #
 1288              		.seh_pushreg	r12
 1289              		.cfi_def_cfa_offset 48
 1290              		.cfi_offset 12, -48
 1291 0009 57       		push	rdi	 #
 1292              		.seh_pushreg	rdi
 1293              		.cfi_def_cfa_offset 56
 1294              		.cfi_offset 5, -56
 1295 000a 56       		push	rsi	 #
 1296              		.seh_pushreg	rsi
 1297              		.cfi_def_cfa_offset 64
 1298              		.cfi_offset 4, -64
 1299 000b 53       		push	rbx	 #
 1300              		.seh_pushreg	rbx
 1301              		.cfi_def_cfa_offset 72
 1302              		.cfi_offset 3, -72
 1303 000c 4883EC58 		sub	rsp, 88	 #,
 1304              		.seh_stackalloc	88
 1305              		.cfi_def_cfa_offset 160
 1306 0010 488DAC24 		lea	rbp, 128[rsp]	 #,
 1306      80000000 
 1307              		.seh_setframe	rbp, 128
 1308              		.cfi_def_cfa 6, 32
 1309              		.seh_endprologue
 1310              	.LVL128:
   6:RadixSort.cpp **** {
 1311              		.loc 1 6 0
 1312 0018 488B7D40 		mov	rdi, QWORD PTR 64[rbp]	 # size, size
 1313              	.LBB425:
 1314              	.LBB426:
 1315              	.LBB427:
  43:timer.h       **** 
 1316              		.loc 2 43 0
 1317 001c 4C8D75B0 		lea	r14, -80[rbp]	 # tmp208,
 1318              	.LVL129:
 1319              	.LBE427:
 1320              	.LBE426:
 1321              	.LBE425:
   6:RadixSort.cpp **** {
 1322              		.loc 1 6 0
 1323 0020 4989D4   		mov	r12, rdx	 # InData, InData
 1324 0023 4D89C5   		mov	r13, r8	 # OutKey, OutKey
 1325 0026 4D89CF   		mov	r15, r9	 # OutData, OutData
 1326 0029 4889CE   		mov	rsi, rcx	 # InKey, InKey
 1327              	.LBB464:
 1328              	.LBB438:
 1329              	.LBB436:
  43:timer.h       **** 
 1330              		.loc 2 43 0
 1331 002c 498D4E10 		lea	rcx, 16[r14]	 # tmp140,
 1332              	.LVL130:
 1333 0030 FF150000 		call	[QWORD PTR __imp_QueryPerformanceFrequency[rip]]	 #
 1333      0000
 1334              	.LVL131:
 1335              	.LBB428:
 1336              	.LBB429:
 1337              	.LBB430:
 1338              	.LBB431:
  25:timer.h       ****     }
 1339              		.loc 2 25 0
 1340 0036 488B0500 		mov	rax, QWORD PTR __imp_QueryPerformanceCounter[rip]	 # tmp207,
 1340      000000
 1341 003d 4C89F1   		mov	rcx, r14	 #, tmp208
 1342 0040 4889C3   		mov	rbx, rax	 # tmp207, tmp207
 1343 0043 488945A8 		mov	QWORD PTR -88[rbp], rax	 # %sfp, tmp207
 1344 0047 FFD0     		call	rax	 # tmp207
 1345              	.LVL132:
 1346              	.LBE431:
 1347              	.LBE430:
 1348              	.LBB432:
 1349              	.LBB433:
  30:timer.h       ****     }
 1350              		.loc 2 30 0
 1351 0049 498D4E08 		lea	rcx, 8[r14]	 # tmp145,
 1352 004d 4889D8   		mov	rax, rbx	 # tmp207, tmp207
 1353 0050 FFD0     		call	rax	 # tmp207
 1354              	.LVL133:
 1355              	.LBE433:
 1356              	.LBE432:
 1357              		.loc 2 56 0
 1358 0052 488B45B8 		mov	rax, QWORD PTR -72[rbp]	 # t.m_stop.QuadPart, t.m_stop.QuadPart
 1359              	.LBE429:
 1360              	.LBE428:
 1361              	.LBE436:
 1362              	.LBE438:
 1363              	.LBB439:
 1364              	.LBB440:
  25:timer.h       ****     }
 1365              		.loc 2 25 0
 1366 0056 4C89F1   		mov	rcx, r14	 #, tmp208
 1367              	.LBE440:
 1368              	.LBE439:
 1369              	.LBB442:
 1370              	.LBB437:
 1371              	.LBB435:
 1372              	.LBB434:
 1373              		.loc 2 56 0
 1374 0059 482B45B0 		sub	rax, QWORD PTR -80[rbp]	 # D.77483, t.m_start.QuadPart
 1375              	.LBE434:
 1376              	.LBE435:
  46:timer.h       ****     }
 1377              		.loc 2 46 0
 1378 005d 488945C8 		mov	QWORD PTR -56[rbp], rax	 # t.m_overhead, D.77483
 1379              	.LVL134:
 1380              	.LBE437:
 1381              	.LBE442:
 1382              	.LBB443:
 1383              	.LBB441:
  25:timer.h       ****     }
 1384              		.loc 2 25 0
 1385 0061 4889D8   		mov	rax, rbx	 # tmp207, tmp207
 1386 0064 FFD0     		call	rax	 # tmp207
 1387              	.LVL135:
 1388              	.LBE441:
 1389              	.LBE443:
  14:RadixSort.cpp ****     for (size_t i=0; i<size; i++)
 1390              		.loc 1 14 0
 1391 0066 B8108000 		mov	eax, 32784	 # tmp154,
 1391      00
 1392 006b E8000000 		call	___chkstk_ms
 1392      00
 1393 0070 31D2     		xor	edx, edx	 #
 1394 0072 41B8F87F 		mov	r8d, 32760	 #,
 1394      0000
 1395 0078 4829C4   		sub	rsp, rax	 #, tmp154
 1396 007b 488D4424 		lea	rax, 39[rsp]	 # tmp155,
 1396      27
 1397 0080 48C1E803 		shr	rax, 3	 # tmp156,
 1398 0084 488D1CC5 		lea	rbx, 0[0+rax*8]	 # tmp157,
 1398      00000000 
 1399              	.LVL136:
 1400 008c 48C704C5 		mov	QWORD PTR 0[0+rax*8], 0	 # MEM[(size_t *)cnt.17_18],
 1400      00000000 
 1400      00000000 
 1401 0098 488D4B08 		lea	rcx, 8[rbx]	 # D.77475,
 1402 009c E8000000 		call	memset	 #
 1402      00
 1403              	.LVL137:
 1404 00a1 488D0CBE 		lea	rcx, [rsi+rdi*4]	 # D.77476,
 1405              	.LBB444:
  15:RadixSort.cpp ****         cnt[key(InKey[i])]++;
 1406              		.loc 1 15 0
 1407 00a5 4885FF   		test	rdi, rdi	 # size
 1408 00a8 4889F2   		mov	rdx, rsi	 # ivtmp.129, InKey
 1409 00ab 7419     		je	.L51	 #,
 1410              	.LVL138:
 1411 00ad 0F1F00   		.p2align 4,,10
 1412              	.L56:
 1413              	.LBB445:
 1414              	.LBB446:
  10:RadixSort.cpp **** 
 1415              		.loc 1 10 0 discriminator 3
 1416 00b0 488B02   		mov	rax, QWORD PTR [rdx]	 # D.77474, MEM[base: _14, offset: 0B]
 1417 00b3 4883C204 		add	rdx, 4	 # ivtmp.129,
 1418              	.LVL139:
 1419 00b7 25FF0F00 		and	eax, 4095	 # D.77474,
 1419      00
 1420              	.LBE446:
 1421              	.LBE445:
  16:RadixSort.cpp ****     t.Stop();  double speed = size/(t.Elapsed()/1000);
 1422              		.loc 1 16 0 discriminator 3
 1423 00bc 488304C3 		add	QWORD PTR [rbx+rax*8], 1	 # MEM[(size_t[0:D.77025] *)_26],
 1423      01
  15:RadixSort.cpp ****         cnt[key(InKey[i])]++;
 1424              		.loc 1 15 0 discriminator 3
 1425 00c1 4839CA   		cmp	rdx, rcx	 # ivtmp.129, D.77476
 1426 00c4 75EA     		jne	.L56	 #,
 1427              	.LVL140:
 1428              	.L51:
 1429              	.LBE444:
 1430              	.LBB447:
 1431              	.LBB448:
  30:timer.h       ****     }
 1432              		.loc 2 30 0
 1433 00c6 498D4E08 		lea	rcx, 8[r14]	 # tmp164,
 1434 00ca 488B45A8 		mov	rax, QWORD PTR -88[rbp]	 # tmp207, %sfp
 1435 00ce FFD0     		call	rax	 # tmp207
 1436              	.LVL141:
 1437              	.LBE448:
 1438              	.LBE447:
 1439              	.LBB449:
 1440              	.LBB450:
  36:timer.h       ****                                           * 1000.0 / m_freq.QuadPart;
 1441              		.loc 2 36 0
 1442 00d0 488B45B8 		mov	rax, QWORD PTR -72[rbp]	 # t.m_stop.QuadPart, t.m_stop.QuadPart
  37:timer.h       ****     }
 1443              		.loc 2 37 0
 1444 00d4 660FEFC0 		pxor	xmm0, xmm0	 # D.77479
 1445 00d8 660FEFC9 		pxor	xmm1, xmm1	 # D.77479
 1446 00dc F2480F2A 		cvtsi2sdq	xmm1, QWORD PTR -64[rbp]	 # D.77479, t.m_freq.QuadPart
 1446      4DC0
  36:timer.h       ****                                           * 1000.0 / m_freq.QuadPart;
 1447              		.loc 2 36 0
 1448 00e2 482B45B0 		sub	rax, QWORD PTR -80[rbp]	 # D.77478, t.m_start.QuadPart
 1449 00e6 482B45C8 		sub	rax, QWORD PTR -56[rbp]	 # D.77478, t.m_overhead
 1450              	.LBE450:
 1451              	.LBE449:
  17:RadixSort.cpp ****     printf("Counting: %.3lf milliseconds = %.3lf MB/s = %.3lf MiB/s\n", t.Elapsed(), speed/1e6, spe
 1452              		.loc 1 17 0
 1453 00ea 4885FF   		test	rdi, rdi	 # size
 1454              	.LBB452:
 1455              	.LBB451:
  37:timer.h       ****     }
 1456              		.loc 2 37 0
 1457 00ed F20F1015 		movsd	xmm2, QWORD PTR .LC0[rip]	 # tmp209,
 1457      80000000 
 1458 00f5 F2480F2A 		cvtsi2sdq	xmm0, rax	 # D.77479, D.77478
 1458      C0
 1459 00fa F20F59C2 		mulsd	xmm0, xmm2	 # D.77479, tmp209
 1460 00fe F20F5EC1 		divsd	xmm0, xmm1	 # D.77479, D.77479
 1461              	.LBE451:
 1462              	.LBE452:
  17:RadixSort.cpp ****     printf("Counting: %.3lf milliseconds = %.3lf MB/s = %.3lf MiB/s\n", t.Elapsed(), speed/1e6, spe
 1463              		.loc 1 17 0
 1464 0102 0F88BB00 		js	.L47	 #,
 1464      0000
 1465 0108 660FEFC9 		pxor	xmm1, xmm1	 # D.77479
 1466 010c F2480F2A 		cvtsi2sdq	xmm1, rdi	 # D.77479, size
 1466      CF
 1467              	.L48:
 1468 0111 660F28E0 		movapd	xmm4, xmm0	 # D.77479, D.77479
  18:RadixSort.cpp ****     
 1469              		.loc 1 18 0
 1470 0115 66480F7E 		movq	rdx, xmm0	 #, D.77479
 1470      C2
 1471 011a 488D0D00 		lea	rcx, .LC3[rip]	 #,
 1471      000000
  17:RadixSort.cpp ****     printf("Counting: %.3lf milliseconds = %.3lf MB/s = %.3lf MiB/s\n", t.Elapsed(), speed/1e6, spe
 1472              		.loc 1 17 0
 1473 0121 F20F5EE2 		divsd	xmm4, xmm2	 # D.77479, tmp209
  18:RadixSort.cpp ****     
 1474              		.loc 1 18 0
 1475 0125 F20F1015 		movsd	xmm2, QWORD PTR .LC1[rip]	 # D.77479,
 1475      88000000 
  17:RadixSort.cpp ****     printf("Counting: %.3lf milliseconds = %.3lf MB/s = %.3lf MiB/s\n", t.Elapsed(), speed/1e6, spe
 1476              		.loc 1 17 0
 1477 012d F20F5ECC 		divsd	xmm1, xmm4	 # speed, D.77479
 1478              	.LVL142:
  18:RadixSort.cpp ****     
 1479              		.loc 1 18 0
 1480 0131 F20F59D1 		mulsd	xmm2, xmm1	 # D.77479, speed
 1481 0135 F20F5E0D 		divsd	xmm1, QWORD PTR .LC2[rip]	 # D.77479,
 1481      90000000 
 1482              	.LVL143:
 1483 013d 66490F7E 		movq	r8, xmm1	 #, D.77479
 1483      C8
 1484 0142 660F28DA 		movapd	xmm3, xmm2	 #, D.77479
 1485 0146 66490F7E 		movq	r9, xmm2	 #, D.77479
 1485      D1
 1486 014b 660F28D1 		movapd	xmm2, xmm1	 #, D.77479
 1487 014f 660F28C8 		movapd	xmm1, xmm0	 #, D.77479
 1488 0153 E8000000 		call	printf	 #
 1488      00
 1489              	.LVL144:
 1490 0158 4889D8   		mov	rax, rbx	 # ivtmp.124, tmp157
 1491 015b 31D2     		xor	edx, edx	 # sum
 1492 015d 4C8D8300 		lea	r8, 32768[rbx]	 # D.77476,
 1492      800000
 1493              	.LVL145:
 1494              		.p2align 4,,10
 1495              	.L49:
 1496              	.LBB453:
 1497              	.LBB454:
  23:RadixSort.cpp ****         cnt[i] = sum;
 1498              		.loc 1 23 0 discriminator 3
 1499 0164 4889D1   		mov	rcx, rdx	 # sum, sum
 1500 0167 480308   		add	rcx, QWORD PTR [rax]	 # sum, MEM[base: _98, offset: 0B]
 1501              	.LVL146:
  24:RadixSort.cpp ****         sum = tmp;
 1502              		.loc 1 24 0 discriminator 3
 1503 016a 488910   		mov	QWORD PTR [rax], rdx	 # MEM[base: _98, offset: 0B], sum
 1504              	.LVL147:
 1505 016d 4883C008 		add	rax, 8	 # ivtmp.124,
 1506              	.LBE454:
  21:RadixSort.cpp ****     {
 1507              		.loc 1 21 0 discriminator 3
 1508 0171 4C39C0   		cmp	rax, r8	 # ivtmp.124, D.77476
 1509              	.LBB455:
  25:RadixSort.cpp ****     }
 1510              		.loc 1 25 0 discriminator 3
 1511 0174 4889CA   		mov	rdx, rcx	 # sum, sum
 1512              	.LBE455:
  21:RadixSort.cpp ****     {
 1513              		.loc 1 21 0 discriminator 3
 1514 0177 75EB     		jne	.L49	 #,
 1515              	.LVL148:
 1516              	.LBE453:
 1517              	.LBB456:
  29:RadixSort.cpp ****     {
 1518              		.loc 1 29 0 discriminator 1
 1519 0179 31C0     		xor	eax, eax	 # i
 1520 017b 4885FF   		test	rdi, rdi	 # size
 1521 017e 7432     		je	.L45	 #,
 1522              	.LVL149:
 1523              		.p2align 4,,10
 1524              	.L55:
 1525              	.LBB457:
 1526              	.LBB458:
 1527              	.LBB459:
  10:RadixSort.cpp **** 
 1528              		.loc 1 10 0 discriminator 3
 1529 0180 488B1486 		mov	rdx, QWORD PTR [rsi+rax*4]	 # D.77474, MEM[base: InKey_24(D), index: i_7, step: 4, offset: 0B]
 1530              	.LBE459:
 1531              	.LBE458:
  32:RadixSort.cpp ****         OutData[cnt[bin]] = InData[i];
 1532              		.loc 1 32 0 discriminator 3
 1533 0184 448B0486 		mov	r8d, DWORD PTR [rsi+rax*4]	 # D.77481, MEM[base: InKey_24(D), index: i_7, step: 4, offset: 0B]
 1534              	.LBB461:
 1535              	.LBB460:
  10:RadixSort.cpp **** 
 1536              		.loc 1 10 0 discriminator 3
 1537 0188 81E2FF0F 		and	edx, 4095	 # D.77474,
 1537      0000
 1538 018e 488D0CD3 		lea	rcx, [rbx+rdx*8]	 # D.77475,
 1539              	.LBE460:
 1540              	.LBE461:
  32:RadixSort.cpp ****         OutData[cnt[bin]] = InData[i];
 1541              		.loc 1 32 0 discriminator 3
 1542 0192 488B11   		mov	rdx, QWORD PTR [rcx]	 # D.77474, MEM[(size_t[0:D.77025] *)_104]
 1543 0195 45894495 		mov	DWORD PTR 0[r13+rdx*4], r8d	 # *_49, D.77481
 1543      00
  33:RadixSort.cpp ****         cnt[bin]++;
 1544              		.loc 1 33 0 discriminator 3
 1545 019a 458B0484 		mov	r8d, DWORD PTR [r12+rax*4]	 # D.77481, MEM[base: InData_55(D), index: i_7, step: 4, offset: 0B
 1546              	.LBE457:
  29:RadixSort.cpp ****     {
 1547              		.loc 1 29 0 discriminator 3
 1548 019e 4883C001 		add	rax, 1	 # i,
 1549              	.LVL150:
 1550              	.LBB462:
  33:RadixSort.cpp ****         cnt[bin]++;
 1551              		.loc 1 33 0 discriminator 3
 1552 01a2 45890497 		mov	DWORD PTR [r15+rdx*4], r8d	 # *_53, D.77481
  34:RadixSort.cpp ****     }
 1553              		.loc 1 34 0 discriminator 3
 1554 01a6 4883C201 		add	rdx, 1	 # tmp206,
 1555              	.LBE462:
  29:RadixSort.cpp ****     {
 1556              		.loc 1 29 0 discriminator 3
 1557 01aa 4839F8   		cmp	rax, rdi	 # i, size
 1558              	.LBB463:
  34:RadixSort.cpp ****     }
 1559              		.loc 1 34 0 discriminator 3
 1560 01ad 488911   		mov	QWORD PTR [rcx], rdx	 # MEM[(size_t[0:D.77025] *)_104], tmp206
 1561              	.LBE463:
  29:RadixSort.cpp ****     {
 1562              		.loc 1 29 0 discriminator 3
 1563 01b0 75CE     		jne	.L55	 #,
 1564              	.LVL151:
 1565              	.L45:
 1566              	.LBE456:
 1567              	.LBE464:
 1568              		.loc 1 36 0
 1569 01b2 488D65D8 		lea	rsp, -40[rbp]	 #,
 1570 01b6 5B       		pop	rbx	 #
 1571              		.cfi_remember_state
 1572              		.cfi_restore 3
 1573              	.LVL152:
 1574 01b7 5E       		pop	rsi	 #
 1575              		.cfi_restore 4
 1576              	.LVL153:
 1577 01b8 5F       		pop	rdi	 #
 1578              		.cfi_restore 5
 1579 01b9 415C     		pop	r12	 #
 1580              		.cfi_restore 12
 1581              	.LVL154:
 1582 01bb 415D     		pop	r13	 #
 1583              		.cfi_restore 13
 1584              	.LVL155:
 1585 01bd 415E     		pop	r14	 #
 1586              		.cfi_restore 14
 1587              	.LVL156:
 1588 01bf 415F     		pop	r15	 #
 1589              		.cfi_restore 15
 1590              	.LVL157:
 1591 01c1 5D       		pop	rbp	 #
 1592              		.cfi_restore 6
 1593              		.cfi_def_cfa 7, -24
 1594 01c2 C3       		ret
 1595              	.LVL158:
 1596              	.L47:
 1597              		.cfi_restore_state
 1598              	.LBB465:
  17:RadixSort.cpp ****     printf("Counting: %.3lf milliseconds = %.3lf MB/s = %.3lf MiB/s\n", t.Elapsed(), speed/1e6, spe
 1599              		.loc 1 17 0
 1600 01c3 4889F8   		mov	rax, rdi	 # tmp175, size
 1601 01c6 4889FA   		mov	rdx, rdi	 # tmp176, size
 1602 01c9 660FEFC9 		pxor	xmm1, xmm1	 # tmp174
 1603 01cd 48D1E8   		shr	rax	 # tmp175
 1604 01d0 83E201   		and	edx, 1	 # tmp176,
 1605 01d3 4809D0   		or	rax, rdx	 # tmp175, tmp176
 1606 01d6 F2480F2A 		cvtsi2sdq	xmm1, rax	 # tmp174, tmp175
 1606      C8
 1607 01db F20F58C9 		addsd	xmm1, xmm1	 # D.77479, tmp174
 1608 01df E92DFFFF 		jmp	.L48	 #
 1608      FF
 1609              	.LBE465:
 1610              		.cfi_endproc
 1611              	.LFE3013:
 1612              		.seh_endproc
 1613 01e4 90909090 		.section	.text$_Z13RadixSortPassIjjLi0ELi16EEvPKT_PKT0_PS0_PS3_y,"x"
 1613      90909090 
 1613      90909090 
 1614              		.linkonce discard
 1615              		.p2align 4,,15
 1616              		.globl	_Z13RadixSortPassIjjLi0ELi16EEvPKT_PKT0_PS0_PS3_y
 1618              		.seh_proc	_Z13RadixSortPassIjjLi0ELi16EEvPKT_PKT0_PS0_PS3_y
 1619              	_Z13RadixSortPassIjjLi0ELi16EEvPKT_PKT0_PS0_PS3_y:
 1620              	.LFB3015:
   6:RadixSort.cpp **** {
 1621              		.loc 1 6 0
 1622              		.cfi_startproc
 1623              	.LVL159:
 1624 0000 55       		push	rbp	 #
 1625              		.seh_pushreg	rbp
 1626              		.cfi_def_cfa_offset 16
 1627              		.cfi_offset 6, -16
 1628 0001 4157     		push	r15	 #
 1629              		.seh_pushreg	r15
 1630              		.cfi_def_cfa_offset 24
 1631              		.cfi_offset 15, -24
 1632 0003 4156     		push	r14	 #
 1633              		.seh_pushreg	r14
 1634              		.cfi_def_cfa_offset 32
 1635              		.cfi_offset 14, -32
 1636 0005 4155     		push	r13	 #
 1637              		.seh_pushreg	r13
 1638              		.cfi_def_cfa_offset 40
 1639              		.cfi_offset 13, -40
 1640 0007 4154     		push	r12	 #
 1641              		.seh_pushreg	r12
 1642              		.cfi_def_cfa_offset 48
 1643              		.cfi_offset 12, -48
 1644 0009 57       		push	rdi	 #
 1645              		.seh_pushreg	rdi
 1646              		.cfi_def_cfa_offset 56
 1647              		.cfi_offset 5, -56
 1648 000a 56       		push	rsi	 #
 1649              		.seh_pushreg	rsi
 1650              		.cfi_def_cfa_offset 64
 1651              		.cfi_offset 4, -64
 1652 000b 53       		push	rbx	 #
 1653              		.seh_pushreg	rbx
 1654              		.cfi_def_cfa_offset 72
 1655              		.cfi_offset 3, -72
 1656 000c 4883EC58 		sub	rsp, 88	 #,
 1657              		.seh_stackalloc	88
 1658              		.cfi_def_cfa_offset 160
 1659 0010 488DAC24 		lea	rbp, 128[rsp]	 #,
 1659      80000000 
 1660              		.seh_setframe	rbp, 128
 1661              		.cfi_def_cfa 6, 32
 1662              		.seh_endprologue
 1663              	.LVL160:
   6:RadixSort.cpp **** {
 1664              		.loc 1 6 0
 1665 0018 488B7D40 		mov	rdi, QWORD PTR 64[rbp]	 # size, size
 1666              	.LBB491:
 1667              	.LBB492:
 1668              	.LBB493:
  43:timer.h       **** 
 1669              		.loc 2 43 0
 1670 001c 4C8D75B0 		lea	r14, -80[rbp]	 # tmp208,
 1671              	.LVL161:
 1672              	.LBE493:
 1673              	.LBE492:
 1674              	.LBE491:
   6:RadixSort.cpp **** {
 1675              		.loc 1 6 0
 1676 0020 4989D4   		mov	r12, rdx	 # InData, InData
 1677 0023 4D89C5   		mov	r13, r8	 # OutKey, OutKey
 1678 0026 4D89CF   		mov	r15, r9	 # OutData, OutData
 1679 0029 4889CE   		mov	rsi, rcx	 # InKey, InKey
 1680              	.LBB528:
 1681              	.LBB504:
 1682              	.LBB502:
  43:timer.h       **** 
 1683              		.loc 2 43 0
 1684 002c 498D4E10 		lea	rcx, 16[r14]	 # tmp140,
 1685              	.LVL162:
 1686 0030 FF150000 		call	[QWORD PTR __imp_QueryPerformanceFrequency[rip]]	 #
 1686      0000
 1687              	.LVL163:
 1688              	.LBB494:
 1689              	.LBB495:
 1690              	.LBB496:
 1691              	.LBB497:
  25:timer.h       ****     }
 1692              		.loc 2 25 0
 1693 0036 488B0500 		mov	rax, QWORD PTR __imp_QueryPerformanceCounter[rip]	 # tmp207,
 1693      000000
 1694 003d 4C89F1   		mov	rcx, r14	 #, tmp208
 1695 0040 4889C3   		mov	rbx, rax	 # tmp207, tmp207
 1696 0043 488945A8 		mov	QWORD PTR -88[rbp], rax	 # %sfp, tmp207
 1697 0047 FFD0     		call	rax	 # tmp207
 1698              	.LVL164:
 1699              	.LBE497:
 1700              	.LBE496:
 1701              	.LBB498:
 1702              	.LBB499:
  30:timer.h       ****     }
 1703              		.loc 2 30 0
 1704 0049 498D4E08 		lea	rcx, 8[r14]	 # tmp145,
 1705 004d 4889D8   		mov	rax, rbx	 # tmp207, tmp207
 1706 0050 FFD0     		call	rax	 # tmp207
 1707              	.LVL165:
 1708              	.LBE499:
 1709              	.LBE498:
 1710              		.loc 2 56 0
 1711 0052 488B45B8 		mov	rax, QWORD PTR -72[rbp]	 # t.m_stop.QuadPart, t.m_stop.QuadPart
 1712              	.LBE495:
 1713              	.LBE494:
 1714              	.LBE502:
 1715              	.LBE504:
 1716              	.LBB505:
 1717              	.LBB506:
  25:timer.h       ****     }
 1718              		.loc 2 25 0
 1719 0056 4C89F1   		mov	rcx, r14	 #, tmp208
 1720              	.LBE506:
 1721              	.LBE505:
 1722              	.LBB508:
 1723              	.LBB503:
 1724              	.LBB501:
 1725              	.LBB500:
 1726              		.loc 2 56 0
 1727 0059 482B45B0 		sub	rax, QWORD PTR -80[rbp]	 # D.77523, t.m_start.QuadPart
 1728              	.LBE500:
 1729              	.LBE501:
  46:timer.h       ****     }
 1730              		.loc 2 46 0
 1731 005d 488945C8 		mov	QWORD PTR -56[rbp], rax	 # t.m_overhead, D.77523
 1732              	.LVL166:
 1733              	.LBE503:
 1734              	.LBE508:
 1735              	.LBB509:
 1736              	.LBB507:
  25:timer.h       ****     }
 1737              		.loc 2 25 0
 1738 0061 4889D8   		mov	rax, rbx	 # tmp207, tmp207
 1739 0064 FFD0     		call	rax	 # tmp207
 1740              	.LVL167:
 1741              	.LBE507:
 1742              	.LBE509:
  14:RadixSort.cpp ****     for (size_t i=0; i<size; i++)
 1743              		.loc 1 14 0
 1744 0066 B8100008 		mov	eax, 524304	 # tmp154,
 1744      00
 1745 006b E8000000 		call	___chkstk_ms
 1745      00
 1746 0070 31D2     		xor	edx, edx	 #
 1747 0072 41B8F8FF 		mov	r8d, 524280	 #,
 1747      0700
 1748 0078 4829C4   		sub	rsp, rax	 #, tmp154
 1749 007b 488D4424 		lea	rax, 39[rsp]	 # tmp155,
 1749      27
 1750 0080 48C1E803 		shr	rax, 3	 # tmp156,
 1751 0084 488D1CC5 		lea	rbx, 0[0+rax*8]	 # tmp157,
 1751      00000000 
 1752              	.LVL168:
 1753 008c 48C704C5 		mov	QWORD PTR 0[0+rax*8], 0	 # MEM[(size_t *)cnt.22_18],
 1753      00000000 
 1753      00000000 
 1754 0098 488D4B08 		lea	rcx, 8[rbx]	 # D.77515,
 1755 009c E8000000 		call	memset	 #
 1755      00
 1756              	.LVL169:
 1757 00a1 488D0CBE 		lea	rcx, [rsi+rdi*4]	 # D.77516,
 1758              	.LBB510:
  15:RadixSort.cpp ****         cnt[key(InKey[i])]++;
 1759              		.loc 1 15 0
 1760 00a5 4885FF   		test	rdi, rdi	 # size
 1761 00a8 4889F0   		mov	rax, rsi	 # ivtmp.150, InKey
 1762 00ab 7414     		je	.L66	 #,
 1763              	.LVL170:
 1764 00ad 0F1F00   		.p2align 4,,10
 1765              	.L71:
 1766              	.LBB511:
 1767              	.LBB512:
  10:RadixSort.cpp **** 
 1768              		.loc 1 10 0 discriminator 3
 1769 00b0 0FB710   		movzx	edx, WORD PTR [rax]	 # D.77514, MEM[base: _14, offset: 0B]
 1770 00b3 4883C004 		add	rax, 4	 # ivtmp.150,
 1771              	.LVL171:
 1772              	.LBE512:
 1773              	.LBE511:
  16:RadixSort.cpp ****     t.Stop();  double speed = size/(t.Elapsed()/1000);
 1774              		.loc 1 16 0 discriminator 3
 1775 00b7 488304D3 		add	QWORD PTR [rbx+rdx*8], 1	 # MEM[(size_t[0:D.77066] *)_26],
 1775      01
  15:RadixSort.cpp ****         cnt[key(InKey[i])]++;
 1776              		.loc 1 15 0 discriminator 3
 1777 00bc 4839C8   		cmp	rax, rcx	 # ivtmp.150, D.77516
 1778 00bf 75EF     		jne	.L71	 #,
 1779              	.LVL172:
 1780              	.L66:
 1781              	.LBE510:
 1782              	.LBB513:
 1783              	.LBB514:
  30:timer.h       ****     }
 1784              		.loc 2 30 0
 1785 00c1 498D4E08 		lea	rcx, 8[r14]	 # tmp164,
 1786 00c5 488B45A8 		mov	rax, QWORD PTR -88[rbp]	 # tmp207, %sfp
 1787 00c9 FFD0     		call	rax	 # tmp207
 1788              	.LVL173:
 1789              	.LBE514:
 1790              	.LBE513:
 1791              	.LBB515:
 1792              	.LBB516:
  36:timer.h       ****                                           * 1000.0 / m_freq.QuadPart;
 1793              		.loc 2 36 0
 1794 00cb 488B45B8 		mov	rax, QWORD PTR -72[rbp]	 # t.m_stop.QuadPart, t.m_stop.QuadPart
  37:timer.h       ****     }
 1795              		.loc 2 37 0
 1796 00cf 660FEFC0 		pxor	xmm0, xmm0	 # D.77519
 1797 00d3 660FEFC9 		pxor	xmm1, xmm1	 # D.77519
 1798 00d7 F2480F2A 		cvtsi2sdq	xmm1, QWORD PTR -64[rbp]	 # D.77519, t.m_freq.QuadPart
 1798      4DC0
  36:timer.h       ****                                           * 1000.0 / m_freq.QuadPart;
 1799              		.loc 2 36 0
 1800 00dd 482B45B0 		sub	rax, QWORD PTR -80[rbp]	 # D.77518, t.m_start.QuadPart
 1801 00e1 482B45C8 		sub	rax, QWORD PTR -56[rbp]	 # D.77518, t.m_overhead
 1802              	.LBE516:
 1803              	.LBE515:
  17:RadixSort.cpp ****     printf("Counting: %.3lf milliseconds = %.3lf MB/s = %.3lf MiB/s\n", t.Elapsed(), speed/1e6, spe
 1804              		.loc 1 17 0
 1805 00e5 4885FF   		test	rdi, rdi	 # size
 1806              	.LBB518:
 1807              	.LBB517:
  37:timer.h       ****     }
 1808              		.loc 2 37 0
 1809 00e8 F20F1015 		movsd	xmm2, QWORD PTR .LC0[rip]	 # tmp209,
 1809      80000000 
 1810 00f0 F2480F2A 		cvtsi2sdq	xmm0, rax	 # D.77519, D.77518
 1810      C0
 1811 00f5 F20F59C2 		mulsd	xmm0, xmm2	 # D.77519, tmp209
 1812 00f9 F20F5EC1 		divsd	xmm0, xmm1	 # D.77519, D.77519
 1813              	.LBE517:
 1814              	.LBE518:
  17:RadixSort.cpp ****     printf("Counting: %.3lf milliseconds = %.3lf MB/s = %.3lf MiB/s\n", t.Elapsed(), speed/1e6, spe
 1815              		.loc 1 17 0
 1816 00fd 0F88BA00 		js	.L62	 #,
 1816      0000
 1817 0103 660FEFC9 		pxor	xmm1, xmm1	 # D.77519
 1818 0107 F2480F2A 		cvtsi2sdq	xmm1, rdi	 # D.77519, size
 1818      CF
 1819              	.L63:
 1820 010c 660F28E0 		movapd	xmm4, xmm0	 # D.77519, D.77519
  18:RadixSort.cpp ****     
 1821              		.loc 1 18 0
 1822 0110 66480F7E 		movq	rdx, xmm0	 #, D.77519
 1822      C2
 1823 0115 488D0D00 		lea	rcx, .LC3[rip]	 #,
 1823      000000
  17:RadixSort.cpp ****     printf("Counting: %.3lf milliseconds = %.3lf MB/s = %.3lf MiB/s\n", t.Elapsed(), speed/1e6, spe
 1824              		.loc 1 17 0
 1825 011c F20F5EE2 		divsd	xmm4, xmm2	 # D.77519, tmp209
  18:RadixSort.cpp ****     
 1826              		.loc 1 18 0
 1827 0120 F20F1015 		movsd	xmm2, QWORD PTR .LC1[rip]	 # D.77519,
 1827      88000000 
  17:RadixSort.cpp ****     printf("Counting: %.3lf milliseconds = %.3lf MB/s = %.3lf MiB/s\n", t.Elapsed(), speed/1e6, spe
 1828              		.loc 1 17 0
 1829 0128 F20F5ECC 		divsd	xmm1, xmm4	 # speed, D.77519
 1830              	.LVL174:
  18:RadixSort.cpp ****     
 1831              		.loc 1 18 0
 1832 012c F20F59D1 		mulsd	xmm2, xmm1	 # D.77519, speed
 1833 0130 F20F5E0D 		divsd	xmm1, QWORD PTR .LC2[rip]	 # D.77519,
 1833      90000000 
 1834              	.LVL175:
 1835 0138 66490F7E 		movq	r8, xmm1	 #, D.77519
 1835      C8
 1836 013d 660F28DA 		movapd	xmm3, xmm2	 #, D.77519
 1837 0141 66490F7E 		movq	r9, xmm2	 #, D.77519
 1837      D1
 1838 0146 660F28D1 		movapd	xmm2, xmm1	 #, D.77519
 1839 014a 660F28C8 		movapd	xmm1, xmm0	 #, D.77519
 1840 014e E8000000 		call	printf	 #
 1840      00
 1841              	.LVL176:
 1842 0153 4889D8   		mov	rax, rbx	 # ivtmp.145, tmp157
 1843 0156 31D2     		xor	edx, edx	 # sum
 1844 0158 4C8D8300 		lea	r8, 524288[rbx]	 # D.77516,
 1844      000800
 1845              	.LVL177:
 1846 015f 90       		.p2align 4,,10
 1847              	.L64:
 1848              	.LBB519:
 1849              	.LBB520:
  23:RadixSort.cpp ****         cnt[i] = sum;
 1850              		.loc 1 23 0 discriminator 3
 1851 0160 4889D1   		mov	rcx, rdx	 # sum, sum
 1852 0163 480308   		add	rcx, QWORD PTR [rax]	 # sum, MEM[base: _98, offset: 0B]
 1853              	.LVL178:
  24:RadixSort.cpp ****         sum = tmp;
 1854              		.loc 1 24 0 discriminator 3
 1855 0166 488910   		mov	QWORD PTR [rax], rdx	 # MEM[base: _98, offset: 0B], sum
 1856              	.LVL179:
 1857 0169 4883C008 		add	rax, 8	 # ivtmp.145,
 1858              	.LBE520:
  21:RadixSort.cpp ****     {
 1859              		.loc 1 21 0 discriminator 3
 1860 016d 4C39C0   		cmp	rax, r8	 # ivtmp.145, D.77516
 1861              	.LBB521:
  25:RadixSort.cpp ****     }
 1862              		.loc 1 25 0 discriminator 3
 1863 0170 4889CA   		mov	rdx, rcx	 # sum, sum
 1864              	.LBE521:
  21:RadixSort.cpp ****     {
 1865              		.loc 1 21 0 discriminator 3
 1866 0173 75EB     		jne	.L64	 #,
 1867              	.LVL180:
 1868              	.LBE519:
 1869              	.LBB522:
  29:RadixSort.cpp ****     {
 1870              		.loc 1 29 0 discriminator 1
 1871 0175 31C0     		xor	eax, eax	 # i
 1872 0177 4885FF   		test	rdi, rdi	 # size
 1873 017a 7430     		je	.L60	 #,
 1874              	.LVL181:
 1875 017c 0F1F4000 		.p2align 4,,10
 1876              	.L70:
 1877              	.LBB523:
 1878              	.LBB524:
 1879              	.LBB525:
  10:RadixSort.cpp **** 
 1880              		.loc 1 10 0 discriminator 3
 1881 0180 0FB71486 		movzx	edx, WORD PTR [rsi+rax*4]	 # D.77514, MEM[base: InKey_24(D), index: i_7, step: 4, offset: 0B
 1882              	.LBE525:
 1883              	.LBE524:
  32:RadixSort.cpp ****         OutData[cnt[bin]] = InData[i];
 1884              		.loc 1 32 0 discriminator 3
 1885 0184 448B0486 		mov	r8d, DWORD PTR [rsi+rax*4]	 # D.77521, MEM[base: InKey_24(D), index: i_7, step: 4, offset: 0B]
 1886 0188 488D0CD3 		lea	rcx, [rbx+rdx*8]	 # D.77515,
 1887 018c 488B11   		mov	rdx, QWORD PTR [rcx]	 # D.77514, MEM[(size_t[0:D.77066] *)_104]
 1888 018f 45894495 		mov	DWORD PTR 0[r13+rdx*4], r8d	 # *_49, D.77521
 1888      00
  33:RadixSort.cpp ****         cnt[bin]++;
 1889              		.loc 1 33 0 discriminator 3
 1890 0194 458B0484 		mov	r8d, DWORD PTR [r12+rax*4]	 # D.77521, MEM[base: InData_55(D), index: i_7, step: 4, offset: 0B
 1891              	.LBE523:
  29:RadixSort.cpp ****     {
 1892              		.loc 1 29 0 discriminator 3
 1893 0198 4883C001 		add	rax, 1	 # i,
 1894              	.LVL182:
 1895              	.LBB526:
  33:RadixSort.cpp ****         cnt[bin]++;
 1896              		.loc 1 33 0 discriminator 3
 1897 019c 45890497 		mov	DWORD PTR [r15+rdx*4], r8d	 # *_53, D.77521
  34:RadixSort.cpp ****     }
 1898              		.loc 1 34 0 discriminator 3
 1899 01a0 4883C201 		add	rdx, 1	 # tmp206,
 1900              	.LBE526:
  29:RadixSort.cpp ****     {
 1901              		.loc 1 29 0 discriminator 3
 1902 01a4 4839F8   		cmp	rax, rdi	 # i, size
 1903              	.LBB527:
  34:RadixSort.cpp ****     }
 1904              		.loc 1 34 0 discriminator 3
 1905 01a7 488911   		mov	QWORD PTR [rcx], rdx	 # MEM[(size_t[0:D.77066] *)_104], tmp206
 1906              	.LBE527:
  29:RadixSort.cpp ****     {
 1907              		.loc 1 29 0 discriminator 3
 1908 01aa 75D4     		jne	.L70	 #,
 1909              	.LVL183:
 1910              	.L60:
 1911              	.LBE522:
 1912              	.LBE528:
 1913              		.loc 1 36 0
 1914 01ac 488D65D8 		lea	rsp, -40[rbp]	 #,
 1915 01b0 5B       		pop	rbx	 #
 1916              		.cfi_remember_state
 1917              		.cfi_restore 3
 1918              	.LVL184:
 1919 01b1 5E       		pop	rsi	 #
 1920              		.cfi_restore 4
 1921              	.LVL185:
 1922 01b2 5F       		pop	rdi	 #
 1923              		.cfi_restore 5
 1924 01b3 415C     		pop	r12	 #
 1925              		.cfi_restore 12
 1926              	.LVL186:
 1927 01b5 415D     		pop	r13	 #
 1928              		.cfi_restore 13
 1929              	.LVL187:
 1930 01b7 415E     		pop	r14	 #
 1931              		.cfi_restore 14
 1932              	.LVL188:
 1933 01b9 415F     		pop	r15	 #
 1934              		.cfi_restore 15
 1935              	.LVL189:
 1936 01bb 5D       		pop	rbp	 #
 1937              		.cfi_restore 6
 1938              		.cfi_def_cfa 7, -24
 1939 01bc C3       		ret
 1940              	.LVL190:
 1941              	.L62:
 1942              		.cfi_restore_state
 1943              	.LBB529:
  17:RadixSort.cpp ****     printf("Counting: %.3lf milliseconds = %.3lf MB/s = %.3lf MiB/s\n", t.Elapsed(), speed/1e6, spe
 1944              		.loc 1 17 0
 1945 01bd 4889F8   		mov	rax, rdi	 # tmp175, size
 1946 01c0 4889FA   		mov	rdx, rdi	 # tmp176, size
 1947 01c3 660FEFC9 		pxor	xmm1, xmm1	 # tmp174
 1948 01c7 48D1E8   		shr	rax	 # tmp175
 1949 01ca 83E201   		and	edx, 1	 # tmp176,
 1950 01cd 4809D0   		or	rax, rdx	 # tmp175, tmp176
 1951 01d0 F2480F2A 		cvtsi2sdq	xmm1, rax	 # tmp174, tmp175
 1951      C8
 1952 01d5 F20F58C9 		addsd	xmm1, xmm1	 # D.77519, tmp174
 1953 01d9 E92EFFFF 		jmp	.L63	 #
 1953      FF
 1954              	.LBE529:
 1955              		.cfi_endproc
 1956              	.LFE3015:
 1957              		.seh_endproc
 1958 01de 9090     		.section	.text$_Z13RadixSortPassIjjLi0ELi20EEvPKT_PKT0_PS0_PS3_y,"x"
 1959              		.linkonce discard
 1960              		.p2align 4,,15
 1961              		.globl	_Z13RadixSortPassIjjLi0ELi20EEvPKT_PKT0_PS0_PS3_y
 1963              		.seh_proc	_Z13RadixSortPassIjjLi0ELi20EEvPKT_PKT0_PS0_PS3_y
 1964              	_Z13RadixSortPassIjjLi0ELi20EEvPKT_PKT0_PS0_PS3_y:
 1965              	.LFB3017:
   6:RadixSort.cpp **** {
 1966              		.loc 1 6 0
 1967              		.cfi_startproc
 1968              	.LVL191:
 1969 0000 55       		push	rbp	 #
 1970              		.seh_pushreg	rbp
 1971              		.cfi_def_cfa_offset 16
 1972              		.cfi_offset 6, -16
 1973 0001 4157     		push	r15	 #
 1974              		.seh_pushreg	r15
 1975              		.cfi_def_cfa_offset 24
 1976              		.cfi_offset 15, -24
 1977 0003 4156     		push	r14	 #
 1978              		.seh_pushreg	r14
 1979              		.cfi_def_cfa_offset 32
 1980              		.cfi_offset 14, -32
 1981 0005 4155     		push	r13	 #
 1982              		.seh_pushreg	r13
 1983              		.cfi_def_cfa_offset 40
 1984              		.cfi_offset 13, -40
 1985 0007 4154     		push	r12	 #
 1986              		.seh_pushreg	r12
 1987              		.cfi_def_cfa_offset 48
 1988              		.cfi_offset 12, -48
 1989 0009 57       		push	rdi	 #
 1990              		.seh_pushreg	rdi
 1991              		.cfi_def_cfa_offset 56
 1992              		.cfi_offset 5, -56
 1993 000a 56       		push	rsi	 #
 1994              		.seh_pushreg	rsi
 1995              		.cfi_def_cfa_offset 64
 1996              		.cfi_offset 4, -64
 1997 000b 53       		push	rbx	 #
 1998              		.seh_pushreg	rbx
 1999              		.cfi_def_cfa_offset 72
 2000              		.cfi_offset 3, -72
 2001 000c 4883EC58 		sub	rsp, 88	 #,
 2002              		.seh_stackalloc	88
 2003              		.cfi_def_cfa_offset 160
 2004 0010 488DAC24 		lea	rbp, 128[rsp]	 #,
 2004      80000000 
 2005              		.seh_setframe	rbp, 128
 2006              		.cfi_def_cfa 6, 32
 2007              		.seh_endprologue
 2008              	.LVL192:
   6:RadixSort.cpp **** {
 2009              		.loc 1 6 0
 2010 0018 488B7D40 		mov	rdi, QWORD PTR 64[rbp]	 # size, size
 2011              	.LBB555:
 2012              	.LBB556:
 2013              	.LBB557:
  43:timer.h       **** 
 2014              		.loc 2 43 0
 2015 001c 4C8D75B0 		lea	r14, -80[rbp]	 # tmp208,
 2016              	.LVL193:
 2017              	.LBE557:
 2018              	.LBE556:
 2019              	.LBE555:
   6:RadixSort.cpp **** {
 2020              		.loc 1 6 0
 2021 0020 4989D4   		mov	r12, rdx	 # InData, InData
 2022 0023 4D89C5   		mov	r13, r8	 # OutKey, OutKey
 2023 0026 4D89CF   		mov	r15, r9	 # OutData, OutData
 2024 0029 4889CE   		mov	rsi, rcx	 # InKey, InKey
 2025              	.LBB594:
 2026              	.LBB568:
 2027              	.LBB566:
  43:timer.h       **** 
 2028              		.loc 2 43 0
 2029 002c 498D4E10 		lea	rcx, 16[r14]	 # tmp140,
 2030              	.LVL194:
 2031 0030 FF150000 		call	[QWORD PTR __imp_QueryPerformanceFrequency[rip]]	 #
 2031      0000
 2032              	.LVL195:
 2033              	.LBB558:
 2034              	.LBB559:
 2035              	.LBB560:
 2036              	.LBB561:
  25:timer.h       ****     }
 2037              		.loc 2 25 0
 2038 0036 488B0500 		mov	rax, QWORD PTR __imp_QueryPerformanceCounter[rip]	 # tmp207,
 2038      000000
 2039 003d 4C89F1   		mov	rcx, r14	 #, tmp208
 2040 0040 4889C3   		mov	rbx, rax	 # tmp207, tmp207
 2041 0043 488945A8 		mov	QWORD PTR -88[rbp], rax	 # %sfp, tmp207
 2042 0047 FFD0     		call	rax	 # tmp207
 2043              	.LVL196:
 2044              	.LBE561:
 2045              	.LBE560:
 2046              	.LBB562:
 2047              	.LBB563:
  30:timer.h       ****     }
 2048              		.loc 2 30 0
 2049 0049 498D4E08 		lea	rcx, 8[r14]	 # tmp145,
 2050 004d 4889D8   		mov	rax, rbx	 # tmp207, tmp207
 2051 0050 FFD0     		call	rax	 # tmp207
 2052              	.LVL197:
 2053              	.LBE563:
 2054              	.LBE562:
 2055              		.loc 2 56 0
 2056 0052 488B45B8 		mov	rax, QWORD PTR -72[rbp]	 # t.m_stop.QuadPart, t.m_stop.QuadPart
 2057              	.LBE559:
 2058              	.LBE558:
 2059              	.LBE566:
 2060              	.LBE568:
 2061              	.LBB569:
 2062              	.LBB570:
  25:timer.h       ****     }
 2063              		.loc 2 25 0
 2064 0056 4C89F1   		mov	rcx, r14	 #, tmp208
 2065              	.LBE570:
 2066              	.LBE569:
 2067              	.LBB572:
 2068              	.LBB567:
 2069              	.LBB565:
 2070              	.LBB564:
 2071              		.loc 2 56 0
 2072 0059 482B45B0 		sub	rax, QWORD PTR -80[rbp]	 # D.77563, t.m_start.QuadPart
 2073              	.LBE564:
 2074              	.LBE565:
  46:timer.h       ****     }
 2075              		.loc 2 46 0
 2076 005d 488945C8 		mov	QWORD PTR -56[rbp], rax	 # t.m_overhead, D.77563
 2077              	.LVL198:
 2078              	.LBE567:
 2079              	.LBE572:
 2080              	.LBB573:
 2081              	.LBB571:
  25:timer.h       ****     }
 2082              		.loc 2 25 0
 2083 0061 4889D8   		mov	rax, rbx	 # tmp207, tmp207
 2084 0064 FFD0     		call	rax	 # tmp207
 2085              	.LVL199:
 2086              	.LBE571:
 2087              	.LBE573:
  14:RadixSort.cpp ****     for (size_t i=0; i<size; i++)
 2088              		.loc 1 14 0
 2089 0066 B8100080 		mov	eax, 8388624	 # tmp154,
 2089      00
 2090 006b E8000000 		call	___chkstk_ms
 2090      00
 2091 0070 31D2     		xor	edx, edx	 #
 2092 0072 41B8F8FF 		mov	r8d, 8388600	 #,
 2092      7F00
 2093 0078 4829C4   		sub	rsp, rax	 #, tmp154
 2094 007b 488D4424 		lea	rax, 39[rsp]	 # tmp155,
 2094      27
 2095 0080 48C1E803 		shr	rax, 3	 # tmp156,
 2096 0084 488D1CC5 		lea	rbx, 0[0+rax*8]	 # tmp157,
 2096      00000000 
 2097              	.LVL200:
 2098 008c 48C704C5 		mov	QWORD PTR 0[0+rax*8], 0	 # MEM[(size_t *)cnt.27_18],
 2098      00000000 
 2098      00000000 
 2099 0098 488D4B08 		lea	rcx, 8[rbx]	 # D.77555,
 2100 009c E8000000 		call	memset	 #
 2100      00
 2101              	.LVL201:
 2102 00a1 488D0CBE 		lea	rcx, [rsi+rdi*4]	 # D.77556,
 2103              	.LBB574:
  15:RadixSort.cpp ****         cnt[key(InKey[i])]++;
 2104              		.loc 1 15 0
 2105 00a5 4885FF   		test	rdi, rdi	 # size
 2106 00a8 4889F2   		mov	rdx, rsi	 # ivtmp.171, InKey
 2107 00ab 7419     		je	.L81	 #,
 2108              	.LVL202:
 2109 00ad 0F1F00   		.p2align 4,,10
 2110              	.L86:
 2111              	.LBB575:
 2112              	.LBB576:
  10:RadixSort.cpp **** 
 2113              		.loc 1 10 0 discriminator 3
 2114 00b0 488B02   		mov	rax, QWORD PTR [rdx]	 # D.77554, MEM[base: _14, offset: 0B]
 2115 00b3 4883C204 		add	rdx, 4	 # ivtmp.171,
 2116              	.LVL203:
 2117 00b7 25FFFF0F 		and	eax, 1048575	 # D.77554,
 2117      00
 2118              	.LBE576:
 2119              	.LBE575:
  16:RadixSort.cpp ****     t.Stop();  double speed = size/(t.Elapsed()/1000);
 2120              		.loc 1 16 0 discriminator 3
 2121 00bc 488304C3 		add	QWORD PTR [rbx+rax*8], 1	 # MEM[(size_t[0:D.77108] *)_26],
 2121      01
  15:RadixSort.cpp ****         cnt[key(InKey[i])]++;
 2122              		.loc 1 15 0 discriminator 3
 2123 00c1 4839CA   		cmp	rdx, rcx	 # ivtmp.171, D.77556
 2124 00c4 75EA     		jne	.L86	 #,
 2125              	.LVL204:
 2126              	.L81:
 2127              	.LBE574:
 2128              	.LBB577:
 2129              	.LBB578:
  30:timer.h       ****     }
 2130              		.loc 2 30 0
 2131 00c6 498D4E08 		lea	rcx, 8[r14]	 # tmp164,
 2132 00ca 488B45A8 		mov	rax, QWORD PTR -88[rbp]	 # tmp207, %sfp
 2133 00ce FFD0     		call	rax	 # tmp207
 2134              	.LVL205:
 2135              	.LBE578:
 2136              	.LBE577:
 2137              	.LBB579:
 2138              	.LBB580:
  36:timer.h       ****                                           * 1000.0 / m_freq.QuadPart;
 2139              		.loc 2 36 0
 2140 00d0 488B45B8 		mov	rax, QWORD PTR -72[rbp]	 # t.m_stop.QuadPart, t.m_stop.QuadPart
  37:timer.h       ****     }
 2141              		.loc 2 37 0
 2142 00d4 660FEFC0 		pxor	xmm0, xmm0	 # D.77559
 2143 00d8 660FEFC9 		pxor	xmm1, xmm1	 # D.77559
 2144 00dc F2480F2A 		cvtsi2sdq	xmm1, QWORD PTR -64[rbp]	 # D.77559, t.m_freq.QuadPart
 2144      4DC0
  36:timer.h       ****                                           * 1000.0 / m_freq.QuadPart;
 2145              		.loc 2 36 0
 2146 00e2 482B45B0 		sub	rax, QWORD PTR -80[rbp]	 # D.77558, t.m_start.QuadPart
 2147 00e6 482B45C8 		sub	rax, QWORD PTR -56[rbp]	 # D.77558, t.m_overhead
 2148              	.LBE580:
 2149              	.LBE579:
  17:RadixSort.cpp ****     printf("Counting: %.3lf milliseconds = %.3lf MB/s = %.3lf MiB/s\n", t.Elapsed(), speed/1e6, spe
 2150              		.loc 1 17 0
 2151 00ea 4885FF   		test	rdi, rdi	 # size
 2152              	.LBB582:
 2153              	.LBB581:
  37:timer.h       ****     }
 2154              		.loc 2 37 0
 2155 00ed F20F1015 		movsd	xmm2, QWORD PTR .LC0[rip]	 # tmp209,
 2155      80000000 
 2156 00f5 F2480F2A 		cvtsi2sdq	xmm0, rax	 # D.77559, D.77558
 2156      C0
 2157 00fa F20F59C2 		mulsd	xmm0, xmm2	 # D.77559, tmp209
 2158 00fe F20F5EC1 		divsd	xmm0, xmm1	 # D.77559, D.77559
 2159              	.LBE581:
 2160              	.LBE582:
  17:RadixSort.cpp ****     printf("Counting: %.3lf milliseconds = %.3lf MB/s = %.3lf MiB/s\n", t.Elapsed(), speed/1e6, spe
 2161              		.loc 1 17 0
 2162 0102 0F88BB00 		js	.L77	 #,
 2162      0000
 2163 0108 660FEFC9 		pxor	xmm1, xmm1	 # D.77559
 2164 010c F2480F2A 		cvtsi2sdq	xmm1, rdi	 # D.77559, size
 2164      CF
 2165              	.L78:
 2166 0111 660F28E0 		movapd	xmm4, xmm0	 # D.77559, D.77559
  18:RadixSort.cpp ****     
 2167              		.loc 1 18 0
 2168 0115 66480F7E 		movq	rdx, xmm0	 #, D.77559
 2168      C2
 2169 011a 488D0D00 		lea	rcx, .LC3[rip]	 #,
 2169      000000
  17:RadixSort.cpp ****     printf("Counting: %.3lf milliseconds = %.3lf MB/s = %.3lf MiB/s\n", t.Elapsed(), speed/1e6, spe
 2170              		.loc 1 17 0
 2171 0121 F20F5EE2 		divsd	xmm4, xmm2	 # D.77559, tmp209
  18:RadixSort.cpp ****     
 2172              		.loc 1 18 0
 2173 0125 F20F1015 		movsd	xmm2, QWORD PTR .LC1[rip]	 # D.77559,
 2173      88000000 
  17:RadixSort.cpp ****     printf("Counting: %.3lf milliseconds = %.3lf MB/s = %.3lf MiB/s\n", t.Elapsed(), speed/1e6, spe
 2174              		.loc 1 17 0
 2175 012d F20F5ECC 		divsd	xmm1, xmm4	 # speed, D.77559
 2176              	.LVL206:
  18:RadixSort.cpp ****     
 2177              		.loc 1 18 0
 2178 0131 F20F59D1 		mulsd	xmm2, xmm1	 # D.77559, speed
 2179 0135 F20F5E0D 		divsd	xmm1, QWORD PTR .LC2[rip]	 # D.77559,
 2179      90000000 
 2180              	.LVL207:
 2181 013d 66490F7E 		movq	r8, xmm1	 #, D.77559
 2181      C8
 2182 0142 660F28DA 		movapd	xmm3, xmm2	 #, D.77559
 2183 0146 66490F7E 		movq	r9, xmm2	 #, D.77559
 2183      D1
 2184 014b 660F28D1 		movapd	xmm2, xmm1	 #, D.77559
 2185 014f 660F28C8 		movapd	xmm1, xmm0	 #, D.77559
 2186 0153 E8000000 		call	printf	 #
 2186      00
 2187              	.LVL208:
 2188 0158 4889D8   		mov	rax, rbx	 # ivtmp.166, tmp157
 2189 015b 31D2     		xor	edx, edx	 # sum
 2190 015d 4C8D8300 		lea	r8, 8388608[rbx]	 # D.77556,
 2190      008000
 2191              	.LVL209:
 2192              		.p2align 4,,10
 2193              	.L79:
 2194              	.LBB583:
 2195              	.LBB584:
  23:RadixSort.cpp ****         cnt[i] = sum;
 2196              		.loc 1 23 0 discriminator 3
 2197 0164 4889D1   		mov	rcx, rdx	 # sum, sum
 2198 0167 480308   		add	rcx, QWORD PTR [rax]	 # sum, MEM[base: _98, offset: 0B]
 2199              	.LVL210:
  24:RadixSort.cpp ****         sum = tmp;
 2200              		.loc 1 24 0 discriminator 3
 2201 016a 488910   		mov	QWORD PTR [rax], rdx	 # MEM[base: _98, offset: 0B], sum
 2202              	.LVL211:
 2203 016d 4883C008 		add	rax, 8	 # ivtmp.166,
 2204              	.LBE584:
  21:RadixSort.cpp ****     {
 2205              		.loc 1 21 0 discriminator 3
 2206 0171 4C39C0   		cmp	rax, r8	 # ivtmp.166, D.77556
 2207              	.LBB585:
  25:RadixSort.cpp ****     }
 2208              		.loc 1 25 0 discriminator 3
 2209 0174 4889CA   		mov	rdx, rcx	 # sum, sum
 2210              	.LBE585:
  21:RadixSort.cpp ****     {
 2211              		.loc 1 21 0 discriminator 3
 2212 0177 75EB     		jne	.L79	 #,
 2213              	.LVL212:
 2214              	.LBE583:
 2215              	.LBB586:
  29:RadixSort.cpp ****     {
 2216              		.loc 1 29 0 discriminator 1
 2217 0179 31C0     		xor	eax, eax	 # i
 2218 017b 4885FF   		test	rdi, rdi	 # size
 2219 017e 7432     		je	.L75	 #,
 2220              	.LVL213:
 2221              		.p2align 4,,10
 2222              	.L85:
 2223              	.LBB587:
 2224              	.LBB588:
 2225              	.LBB589:
  10:RadixSort.cpp **** 
 2226              		.loc 1 10 0 discriminator 3
 2227 0180 488B1486 		mov	rdx, QWORD PTR [rsi+rax*4]	 # D.77554, MEM[base: InKey_24(D), index: i_7, step: 4, offset: 0B]
 2228              	.LBE589:
 2229              	.LBE588:
  32:RadixSort.cpp ****         OutData[cnt[bin]] = InData[i];
 2230              		.loc 1 32 0 discriminator 3
 2231 0184 448B0486 		mov	r8d, DWORD PTR [rsi+rax*4]	 # D.77561, MEM[base: InKey_24(D), index: i_7, step: 4, offset: 0B]
 2232              	.LBB591:
 2233              	.LBB590:
  10:RadixSort.cpp **** 
 2234              		.loc 1 10 0 discriminator 3
 2235 0188 81E2FFFF 		and	edx, 1048575	 # D.77554,
 2235      0F00
 2236 018e 488D0CD3 		lea	rcx, [rbx+rdx*8]	 # D.77555,
 2237              	.LBE590:
 2238              	.LBE591:
  32:RadixSort.cpp ****         OutData[cnt[bin]] = InData[i];
 2239              		.loc 1 32 0 discriminator 3
 2240 0192 488B11   		mov	rdx, QWORD PTR [rcx]	 # D.77554, MEM[(size_t[0:D.77108] *)_104]
 2241 0195 45894495 		mov	DWORD PTR 0[r13+rdx*4], r8d	 # *_49, D.77561
 2241      00
  33:RadixSort.cpp ****         cnt[bin]++;
 2242              		.loc 1 33 0 discriminator 3
 2243 019a 458B0484 		mov	r8d, DWORD PTR [r12+rax*4]	 # D.77561, MEM[base: InData_55(D), index: i_7, step: 4, offset: 0B
 2244              	.LBE587:
  29:RadixSort.cpp ****     {
 2245              		.loc 1 29 0 discriminator 3
 2246 019e 4883C001 		add	rax, 1	 # i,
 2247              	.LVL214:
 2248              	.LBB592:
  33:RadixSort.cpp ****         cnt[bin]++;
 2249              		.loc 1 33 0 discriminator 3
 2250 01a2 45890497 		mov	DWORD PTR [r15+rdx*4], r8d	 # *_53, D.77561
  34:RadixSort.cpp ****     }
 2251              		.loc 1 34 0 discriminator 3
 2252 01a6 4883C201 		add	rdx, 1	 # tmp206,
 2253              	.LBE592:
  29:RadixSort.cpp ****     {
 2254              		.loc 1 29 0 discriminator 3
 2255 01aa 4839F8   		cmp	rax, rdi	 # i, size
 2256              	.LBB593:
  34:RadixSort.cpp ****     }
 2257              		.loc 1 34 0 discriminator 3
 2258 01ad 488911   		mov	QWORD PTR [rcx], rdx	 # MEM[(size_t[0:D.77108] *)_104], tmp206
 2259              	.LBE593:
  29:RadixSort.cpp ****     {
 2260              		.loc 1 29 0 discriminator 3
 2261 01b0 75CE     		jne	.L85	 #,
 2262              	.LVL215:
 2263              	.L75:
 2264              	.LBE586:
 2265              	.LBE594:
 2266              		.loc 1 36 0
 2267 01b2 488D65D8 		lea	rsp, -40[rbp]	 #,
 2268 01b6 5B       		pop	rbx	 #
 2269              		.cfi_remember_state
 2270              		.cfi_restore 3
 2271              	.LVL216:
 2272 01b7 5E       		pop	rsi	 #
 2273              		.cfi_restore 4
 2274              	.LVL217:
 2275 01b8 5F       		pop	rdi	 #
 2276              		.cfi_restore 5
 2277 01b9 415C     		pop	r12	 #
 2278              		.cfi_restore 12
 2279              	.LVL218:
 2280 01bb 415D     		pop	r13	 #
 2281              		.cfi_restore 13
 2282              	.LVL219:
 2283 01bd 415E     		pop	r14	 #
 2284              		.cfi_restore 14
 2285              	.LVL220:
 2286 01bf 415F     		pop	r15	 #
 2287              		.cfi_restore 15
 2288              	.LVL221:
 2289 01c1 5D       		pop	rbp	 #
 2290              		.cfi_restore 6
 2291              		.cfi_def_cfa 7, -24
 2292 01c2 C3       		ret
 2293              	.LVL222:
 2294              	.L77:
 2295              		.cfi_restore_state
 2296              	.LBB595:
  17:RadixSort.cpp ****     printf("Counting: %.3lf milliseconds = %.3lf MB/s = %.3lf MiB/s\n", t.Elapsed(), speed/1e6, spe
 2297              		.loc 1 17 0
 2298 01c3 4889F8   		mov	rax, rdi	 # tmp175, size
 2299 01c6 4889FA   		mov	rdx, rdi	 # tmp176, size
 2300 01c9 660FEFC9 		pxor	xmm1, xmm1	 # tmp174
 2301 01cd 48D1E8   		shr	rax	 # tmp175
 2302 01d0 83E201   		and	edx, 1	 # tmp176,
 2303 01d3 4809D0   		or	rax, rdx	 # tmp175, tmp176
 2304 01d6 F2480F2A 		cvtsi2sdq	xmm1, rax	 # tmp174, tmp175
 2304      C8
 2305 01db F20F58C9 		addsd	xmm1, xmm1	 # D.77559, tmp174
 2306 01df E92DFFFF 		jmp	.L78	 #
 2306      FF
 2307              	.LBE595:
 2308              		.cfi_endproc
 2309              	.LFE3017:
 2310              		.seh_endproc
 2312 01e4 90909090 		.section .rdata,"dr"
 2312      90909090 
 2312      90909090 
 2313              	.LC8:
 2314 0039 536F7274 		.ascii "Sorting %d MiB\0"
 2314      696E6720 
 2314      2564204D 
 2314      694200
 2315              		.align 8
 2316              	.LC9:
 2317 0048 3A20252E 		.ascii ": %.3lf milliseconds = %.3lf MB/s = %.3lf MiB/s\12\12\0"
 2317      336C6620 
 2317      6D696C6C 
 2317      69736563 
 2317      6F6E6473 
 2318              		.section	.text.startup,"x"
 2319              		.p2align 4,,15
 2320              		.globl	main
 2322              		.seh_proc	main
 2323              	main:
 2324              	.LFB3006:
 2325              		.file 3 "TestRadixSort.cpp"
   1:TestRadixSort.cpp **** #include <stdio.h>
   2:TestRadixSort.cpp **** #include <stdint.h>
   3:TestRadixSort.cpp **** #include <memory.h>
   4:TestRadixSort.cpp **** #include "timer.h"
   5:TestRadixSort.cpp **** #include "RadixSort.cpp"
   6:TestRadixSort.cpp **** 
   7:TestRadixSort.cpp **** int main()
   8:TestRadixSort.cpp **** {
 2326              		.loc 3 8 0
 2327              		.cfi_startproc
 2328 0000 4157     		push	r15	 #
 2329              		.seh_pushreg	r15
 2330              		.cfi_def_cfa_offset 16
 2331              		.cfi_offset 15, -16
 2332 0002 4156     		push	r14	 #
 2333              		.seh_pushreg	r14
 2334              		.cfi_def_cfa_offset 24
 2335              		.cfi_offset 14, -24
 2336 0004 4155     		push	r13	 #
 2337              		.seh_pushreg	r13
 2338              		.cfi_def_cfa_offset 32
 2339              		.cfi_offset 13, -32
 2340 0006 4154     		push	r12	 #
 2341              		.seh_pushreg	r12
 2342              		.cfi_def_cfa_offset 40
 2343              		.cfi_offset 12, -40
 2344 0008 55       		push	rbp	 #
 2345              		.seh_pushreg	rbp
 2346              		.cfi_def_cfa_offset 48
 2347              		.cfi_offset 6, -48
 2348 0009 57       		push	rdi	 #
 2349              		.seh_pushreg	rdi
 2350              		.cfi_def_cfa_offset 56
 2351              		.cfi_offset 5, -56
 2352 000a 56       		push	rsi	 #
 2353              		.seh_pushreg	rsi
 2354              		.cfi_def_cfa_offset 64
 2355              		.cfi_offset 4, -64
 2356 000b 53       		push	rbx	 #
 2357              		.seh_pushreg	rbx
 2358              		.cfi_def_cfa_offset 72
 2359              		.cfi_offset 3, -72
 2360 000c 4881ECD8 		sub	rsp, 216	 #,
 2360      000000
 2361              		.seh_stackalloc	216
 2362              		.cfi_def_cfa_offset 288
 2363 0013 0F297424 		movaps	XMMWORD PTR 80[rsp], xmm6	 #,
 2363      50
 2364              		.seh_savexmm	xmm6, 80
 2365 0018 0F297C24 		movaps	XMMWORD PTR 96[rsp], xmm7	 #,
 2365      60
 2366              		.seh_savexmm	xmm7, 96
 2367 001d 440F2944 		movaps	XMMWORD PTR 112[rsp], xmm8	 #,
 2367      2470
 2368              		.seh_savexmm	xmm8, 112
 2369 0023 440F298C 		movaps	XMMWORD PTR 128[rsp], xmm9	 #,
 2369      24800000 
 2369      00
 2370              		.seh_savexmm	xmm9, 128
 2371 002c 440F2994 		movaps	XMMWORD PTR 144[rsp], xmm10	 #,
 2371      24900000 
 2371      00
 2372              		.seh_savexmm	xmm10, 144
 2373 0035 440F299C 		movaps	XMMWORD PTR 160[rsp], xmm11	 #,
 2373      24A00000 
 2373      00
 2374              		.seh_savexmm	xmm11, 160
 2375 003e 440F29A4 		movaps	XMMWORD PTR 176[rsp], xmm12	 #,
 2375      24B00000 
 2375      00
 2376              		.seh_savexmm	xmm12, 176
 2377 0047 440F29AC 		movaps	XMMWORD PTR 192[rsp], xmm13	 #,
 2377      24C00000 
 2377      00
 2378              		.seh_savexmm	xmm13, 192
 2379              		.cfi_offset 23, -208
 2380              		.cfi_offset 24, -192
 2381              		.cfi_offset 25, -176
 2382              		.cfi_offset 26, -160
 2383              		.cfi_offset 27, -144
 2384              		.cfi_offset 28, -128
 2385              		.cfi_offset 29, -112
 2386              		.cfi_offset 30, -96
 2387              		.seh_endprologue
 2388              		.loc 3 8 0
 2389 0050 E8000000 		call	__main	 #
 2389      00
 2390              	.LVL223:
 2391              	.LBB660:
 2392              	.LBB661:
 2393              	.LBB662:
  43:timer.h       **** 
 2394              		.loc 2 43 0
 2395 0055 488D5C24 		lea	rbx, 48[rsp]	 # tmp862,
 2395      30
 2396              	.LBE662:
 2397              	.LBE661:
   9:TestRadixSort.cpp ****     // BENCHMARK
  10:TestRadixSort.cpp ****     const uint64_t DATASET = uint64_t(100)<<20;
  11:TestRadixSort.cpp ****     using Key = uint32_t;  using Data = uint32_t;
  12:TestRadixSort.cpp ****     auto keys = new Key [DATASET],  outkeys = new Key [DATASET];
 2398              		.loc 3 12 0
 2399 005a B9000000 		mov	ecx, 419430400	 #,
 2399      19
 2400 005f E8000000 		call	_Znay	 #
 2400      00
 2401              	.LVL224:
 2402 0064 B9000000 		mov	ecx, 419430400	 #,
 2402      19
 2403 0069 4989C5   		mov	r13, rax	 # keys,
 2404              	.LVL225:
 2405 006c E8000000 		call	_Znay	 #
 2405      00
 2406              	.LVL226:
  13:TestRadixSort.cpp ****     auto data = new Data[DATASET],  outdata = new Data[DATASET];
 2407              		.loc 3 13 0
 2408 0071 B9000000 		mov	ecx, 419430400	 #,
 2408      19
 2409 0076 4D89EE   		mov	r14, r13	 # D.77731, keys
  12:TestRadixSort.cpp ****     auto data = new Data[DATASET],  outdata = new Data[DATASET];
 2410              		.loc 3 12 0
 2411 0079 4889C5   		mov	rbp, rax	 # outkeys,
 2412              	.LVL227:
 2413 007c 4183E60F 		and	r14d, 15	 # D.77731,
 2414              		.loc 3 13 0
 2415 0080 E8000000 		call	_Znay	 #
 2415      00
 2416              	.LVL228:
 2417 0085 B9000000 		mov	ecx, 419430400	 #,
 2417      19
 2418 008a 49C1EE02 		shr	r14, 2	 # D.77731,
 2419 008e 4889C7   		mov	rdi, rax	 # data,
 2420              	.LVL229:
 2421 0091 49F7DE   		neg	r14	 # D.77731
 2422 0094 E8000000 		call	_Znay	 #
 2422      00
 2423              	.LVL230:
 2424              	.LBB673:
 2425              	.LBB669:
  43:timer.h       **** 
 2426              		.loc 2 43 0
 2427 0099 488D4B10 		lea	rcx, 16[rbx]	 # tmp467,
 2428              	.LBE669:
 2429              	.LBE673:
 2430              		.loc 3 13 0
 2431 009d 4989C4   		mov	r12, rax	 # outdata,
 2432              	.LVL231:
 2433              	.LBB674:
 2434              	.LBB670:
  43:timer.h       **** 
 2435              		.loc 2 43 0
 2436 00a0 FF150000 		call	[QWORD PTR __imp_QueryPerformanceFrequency[rip]]	 #
 2436      0000
 2437              	.LVL232:
 2438              	.LBB663:
 2439              	.LBB664:
 2440              	.LBB665:
 2441              	.LBB666:
  25:timer.h       ****     }
 2442              		.loc 2 25 0
 2443 00a6 4889D9   		mov	rcx, rbx	 #, tmp862
 2444 00a9 488B3500 		mov	rsi, QWORD PTR __imp_QueryPerformanceCounter[rip]	 # tmp861,
 2444      000000
 2445 00b0 FFD6     		call	rsi	 # tmp861
 2446              	.LVL233:
 2447              	.LBE666:
 2448              	.LBE665:
 2449              	.LBB667:
 2450              	.LBB668:
  30:timer.h       ****     }
 2451              		.loc 2 30 0
 2452 00b2 488D4B08 		lea	rcx, 8[rbx]	 # tmp472,
 2453 00b6 FFD6     		call	rsi	 # tmp861
 2454              	.LVL234:
 2455              	.LBE668:
 2456              	.LBE667:
 2457              		.loc 2 56 0
 2458 00b8 488B4424 		mov	rax, QWORD PTR 56[rsp]	 # t.m_stop.QuadPart, t.m_stop.QuadPart
 2458      38
 2459 00bd 482B4424 		sub	rax, QWORD PTR 48[rsp]	 # D.77729, t.m_start.QuadPart
 2459      30
 2460 00c2 4183E603 		and	r14d, 3	 # prolog_loop_niters.271,
 2461              	.LBE664:
 2462              	.LBE663:
  46:timer.h       ****     }
 2463              		.loc 2 46 0
 2464 00c6 48894424 		mov	QWORD PTR 72[rsp], rax	 # t.m_overhead, D.77729
 2464      48
 2465              	.LVL235:
 2466 00cb 0F847B0B 		je	.L127	 #,
 2466      0000
 2467 00d1 4983FE01 		cmp	r14, 1	 # prolog_loop_niters.271,
 2468              	.LBE670:
 2469              	.LBE674:
 2470              	.LBB675:
  14:TestRadixSort.cpp ****     Timer t;  double speed;
  15:TestRadixSort.cpp **** 
  16:TestRadixSort.cpp ****     for (size_t i=0; i<DATASET; i++)
  17:TestRadixSort.cpp ****         keys[i] = i*123456791;
 2471              		.loc 3 17 0
 2472 00d5 41C74500 		mov	DWORD PTR 0[r13], 0	 # *keys_15,
 2472      00000000 
 2473              	.LVL236:
 2474 00dd 0F84750C 		je	.L128	 #,
 2474      0000
 2475 00e3 4983FE03 		cmp	r14, 3	 # prolog_loop_niters.271,
 2476 00e7 41C74504 		mov	DWORD PTR 4[r13], 123456791	 # MEM[(unsigned int *)keys_15 + 4B],
 2476      17CD5B07 
 2477              	.LVL237:
 2478 00ef 0F85740C 		jne	.L129	 #,
 2478      0000
 2479 00f5 41C74508 		mov	DWORD PTR 8[r13], 246913582	 # MEM[(unsigned int *)keys_15 + 8B],
 2479      2E9AB70E 
 2480              	.LVL238:
 2481 00fd 41B8FDFF 		mov	r8d, 104857597	 # D.77728,
 2481      3F06
  16:TestRadixSort.cpp ****         keys[i] = i*123456791;
 2482              		.loc 3 16 0
 2483 0103 41BF0300 		mov	r15d, 3	 # i,
 2483      0000
 2484              	.LVL239:
 2485              	.L92:
 2486 0109 41B90000 		mov	r9d, 104857600	 # tmp481,
 2486      4006
 2487 010f 41BBFCFF 		mov	r11d, 104857596	 # ratio_mult_vf.274,
 2487      3F06
 2488 0115 B9FFFF8F 		mov	ecx, 26214399	 # bnd.273,
 2488      01
 2489 011a 4D29F1   		sub	r9, r14	 # niters.272, prolog_loop_niters.271
 2490              	.L91:
 2491 011d 66440F6F 		movdqa	xmm12, XMMWORD PTR .LC4[rip]	 # vect_cst_.184,
 2491      25A00000 
 2491      00
 2492 0126 4D8D5701 		lea	r10, 1[r15]	 # stmp_var_.277,
 2493 012a 66490F6E 		movq	xmm2, r15	 # vect_vec_iv_.280, i
 2493      D7
 2494              	.LBE675:
 2495              	.LBB676:
 2496              	.LBB671:
  46:timer.h       ****     }
 2497              		.loc 2 46 0
 2498 012f 31C0     		xor	eax, eax	 # ivtmp.320
 2499 0131 66440F6F 		movdqa	xmm11, XMMWORD PTR .LC5[rip]	 # tmp858,
 2499      1DB00000 
 2499      00
 2500 013a 4B8D54B5 		lea	rdx, 0[r13+r14*4]	 # ivtmp.321,
 2500      00
 2501 013f 66490F6E 		movq	xmm7, r10	 # stmp_var_.277, stmp_var_.277
 2501      FA
 2502 0144 660F6F35 		movdqa	xmm6, XMMWORD PTR .LC6[rip]	 # tmp859,
 2502      C0000000 
 2503 014c 66410F6F 		movdqa	xmm3, xmm12	 # vect_cst_.279, vect_cst_.184
 2503      DC
 2504 0151 660F6CD7 		punpcklqdq	xmm2, xmm7	 # vect_vec_iv_.280, stmp_var_.277
 2505              		.p2align 4,,10
 2506              	.L93:
 2507 0155 660F6FC2 		movdqa	xmm0, xmm2	 # vect_vec_iv_.280, vect_vec_iv_.280
 2508              	.LBE671:
 2509              	.LBE676:
 2510              	.LBB677:
 2511              		.loc 3 17 0 discriminator 3
 2512 0159 660F6FE2 		movdqa	xmm4, xmm2	 # vect__25.282, vect_vec_iv_.280
 2513 015d 4883C001 		add	rax, 1	 # ivtmp.320,
 2514 0161 66410FD4 		paddq	xmm0, xmm11	 # vect_vec_iv_.280, tmp858
 2514      C3
 2515 0166 4883C210 		add	rdx, 16	 # ivtmp.321,
 2516 016a 660FD4D3 		paddq	xmm2, xmm3	 # vect_vec_iv_.280, vect_cst_.279
 2517 016e 0FC6E088 		shufps	xmm4, xmm0, 136	 # vect__25.282, vect_vec_iv_.280,
 2518 0172 660F6FC4 		movdqa	xmm0, xmm4	 # vect__25.282, vect__25.282
 2519 0176 660F6FCC 		movdqa	xmm1, xmm4	 # tmp491, vect__25.282
 2520 017a 660F73D0 		psrlq	xmm0, 32	 # tmp495,
 2520      20
 2521 017f 660FF4CE 		pmuludq	xmm1, xmm6	 # tmp491, tmp859
 2522 0183 660FF4C6 		pmuludq	xmm0, xmm6	 # tmp492, tmp859
 2523 0187 660F70C9 		pshufd	xmm1, xmm1, 8	 # tmp489, tmp491,
 2523      08
 2524 018c 660F70C0 		pshufd	xmm0, xmm0, 8	 # tmp490, tmp492,
 2524      08
 2525 0191 660F62C8 		punpckldq	xmm1, xmm0	 # vect__26.283, tmp490
 2526 0195 0F294AF0 		movaps	XMMWORD PTR -16[rdx], xmm1	 # MEM[base: _82, offset: 0B], vect__26.283
 2527 0199 4839C8   		cmp	rax, rcx	 # ivtmp.320, bnd.273
 2528 019c 72B7     		jb	.L93	 #,
 2529 019e 4B8D041F 		lea	rax, [r15+r11]	 # i,
 2530 01a2 4D29D8   		sub	r8, r11	 # D.77728, ratio_mult_vf.274
 2531 01a5 4D39D9   		cmp	r9, r11	 # niters.272, ratio_mult_vf.274
 2532 01a8 7435     		je	.L95	 #,
 2533              	.LVL240:
 2534              		.loc 3 17 0 is_stmt 0
 2535 01aa 69D017CD 		imul	edx, eax, 123456791	 # D.77723, i,
 2535      5B07
  16:TestRadixSort.cpp ****         keys[i] = i*123456791;
 2536              		.loc 3 16 0 is_stmt 1
 2537 01b0 4983F801 		cmp	r8, 1	 # D.77728,
 2538              		.loc 3 17 0
 2539 01b4 41895485 		mov	DWORD PTR 0[r13+rax*4], edx	 # *_824, D.77723
 2539      00
  16:TestRadixSort.cpp ****         keys[i] = i*123456791;
 2540              		.loc 3 16 0
 2541 01b9 488D5001 		lea	rdx, 1[rax]	 # i,
 2542              	.LVL241:
 2543 01bd 7420     		je	.L95	 #,
 2544              		.loc 3 17 0
 2545 01bf 69CA17CD 		imul	ecx, edx, 123456791	 # D.77723, i,
 2545      5B07
  16:TestRadixSort.cpp ****         keys[i] = i*123456791;
 2546              		.loc 3 16 0
 2547 01c5 4883C002 		add	rax, 2	 # i,
 2548 01c9 4983F802 		cmp	r8, 2	 # D.77728,
 2549              		.loc 3 17 0
 2550 01cd 41894C95 		mov	DWORD PTR 0[r13+rdx*4], ecx	 # *_834, D.77723
 2550      00
 2551              	.LVL242:
  16:TestRadixSort.cpp ****         keys[i] = i*123456791;
 2552              		.loc 3 16 0
 2553 01d2 740B     		je	.L95	 #,
 2554              		.loc 3 17 0
 2555 01d4 69D017CD 		imul	edx, eax, 123456791	 # D.77723, i,
 2555      5B07
 2556 01da 41895485 		mov	DWORD PTR 0[r13+rax*4], edx	 # *_653, D.77723
 2556      00
 2557              	.L95:
 2558              	.LVL243:
 2559              	.LBE677:
 2560              	.LBB678:
 2561              	.LBB679:
  25:timer.h       ****     }
 2562              		.loc 2 25 0
 2563 01df 4889D9   		mov	rcx, rbx	 #, tmp862
 2564 01e2 FFD6     		call	rsi	 # tmp861
 2565              	.LVL244:
 2566              	.LBE679:
 2567              	.LBE678:
  18:TestRadixSort.cpp ****     t.Start();
  19:TestRadixSort.cpp ****     RadixSortPass<Key,Data,0,4> (keys, data, outkeys, outdata, DATASET);
 2568              		.loc 3 19 0
 2569 01e4 4D89E1   		mov	r9, r12	 #, outdata
 2570 01e7 4989E8   		mov	r8, rbp	 #, outkeys
 2571 01ea 4889FA   		mov	rdx, rdi	 #, data
 2572 01ed 48C74424 		mov	QWORD PTR 32[rsp], 104857600	 #,
 2572      20000040 
 2572      06
 2573 01f6 4C89E9   		mov	rcx, r13	 #, keys
 2574 01f9 E8000000 		call	_Z13RadixSortPassIjjLi0ELi4EEvPKT_PKT0_PS0_PS3_y	 #
 2574      00
 2575              	.LVL245:
 2576              	.LBB680:
 2577              	.LBB681:
  30:timer.h       ****     }
 2578              		.loc 2 30 0
 2579 01fe 488D4B08 		lea	rcx, 8[rbx]	 # tmp503,
 2580 0202 FFD6     		call	rsi	 # tmp861
 2581              	.LVL246:
 2582              	.LBE681:
 2583              	.LBE680:
 2584              	.LBB682:
 2585              	.LBB683:
  36:timer.h       ****                                           * 1000.0 / m_freq.QuadPart;
 2586              		.loc 2 36 0
 2587 0204 488B4424 		mov	rax, QWORD PTR 56[rsp]	 # t.m_stop.QuadPart, t.m_stop.QuadPart
 2587      38
  37:timer.h       ****     }
 2588              		.loc 2 37 0
 2589 0209 660FEFC0 		pxor	xmm0, xmm0	 # D.77726
 2590 020d 660FEFC9 		pxor	xmm1, xmm1	 # D.77726
  36:timer.h       ****                                           * 1000.0 / m_freq.QuadPart;
 2591              		.loc 2 36 0
 2592 0211 482B4424 		sub	rax, QWORD PTR 48[rsp]	 # D.77725, t.m_start.QuadPart
 2592      30
 2593              	.LBE683:
 2594              	.LBE682:
  20:TestRadixSort.cpp ****     t.Stop();  speed = DATASET/(t.Elapsed()/1000);
  21:TestRadixSort.cpp ****     printf("Sorting %d MiB", int(DATASET>>20));
 2595              		.loc 3 21 0
 2596 0216 BA640000 		mov	edx, 100	 #,
 2596      00
 2597              	.LBB687:
 2598              	.LBB684:
  36:timer.h       ****                                           * 1000.0 / m_freq.QuadPart;
 2599              		.loc 2 36 0
 2600 021b 482B4424 		sub	rax, QWORD PTR 72[rsp]	 # D.77725, t.m_overhead
 2600      48
  37:timer.h       ****     }
 2601              		.loc 2 37 0
 2602 0220 F20F103D 		movsd	xmm7, QWORD PTR .LC0[rip]	 # tmp854,
 2602      80000000 
 2603 0228 F2480F2A 		cvtsi2sdq	xmm1, QWORD PTR 64[rsp]	 # D.77726, t.m_freq.QuadPart
 2603      4C2440
 2604              	.LBE684:
 2605              	.LBE687:
  20:TestRadixSort.cpp ****     t.Stop();  speed = DATASET/(t.Elapsed()/1000);
 2606              		.loc 3 20 0
 2607 022f F2440F10 		movsd	xmm8, QWORD PTR .LC7[rip]	 # tmp860,
 2607      05D00000 
 2607      00
 2608              		.loc 3 21 0
 2609 0238 488D0D39 		lea	rcx, .LC8[rip]	 #,
 2609      000000
 2610              	.LBB688:
 2611              	.LBB685:
  37:timer.h       ****     }
 2612              		.loc 2 37 0
 2613 023f F2480F2A 		cvtsi2sdq	xmm0, rax	 # D.77726, D.77725
 2613      C0
 2614              	.LBE685:
 2615              	.LBE688:
  20:TestRadixSort.cpp ****     t.Stop();  speed = DATASET/(t.Elapsed()/1000);
 2616              		.loc 3 20 0
 2617 0244 66450F28 		movapd	xmm13, xmm8	 # speed, tmp860
 2617      E8
 2618              	.LBB689:
 2619              	.LBB686:
  37:timer.h       ****     }
 2620              		.loc 2 37 0
 2621 0249 F20F59C7 		mulsd	xmm0, xmm7	 # D.77726, tmp854
 2622 024d F20F5EC1 		divsd	xmm0, xmm1	 # D.77726, D.77726
 2623              	.LBE686:
 2624              	.LBE689:
  20:TestRadixSort.cpp ****     t.Stop();  speed = DATASET/(t.Elapsed()/1000);
 2625              		.loc 3 20 0
 2626 0251 F20F5EC7 		divsd	xmm0, xmm7	 # D.77726, tmp854
 2627 0255 F2440F5E 		divsd	xmm13, xmm0	 # speed, D.77726
 2627      E8
 2628              	.LVL247:
 2629              		.loc 3 21 0
 2630 025a E8000000 		call	printf	 #
 2630      00
 2631              	.LVL248:
 2632              	.LBB690:
 2633              	.LBB691:
  36:timer.h       ****                                           * 1000.0 / m_freq.QuadPart;
 2634              		.loc 2 36 0
 2635 025f 488B4424 		mov	rax, QWORD PTR 56[rsp]	 # t.m_stop.QuadPart, t.m_stop.QuadPart
 2635      38
  37:timer.h       ****     }
 2636              		.loc 2 37 0
 2637 0264 660FEFC0 		pxor	xmm0, xmm0	 # D.77726
 2638 0268 660FEFD2 		pxor	xmm2, xmm2	 # D.77726
  36:timer.h       ****                                           * 1000.0 / m_freq.QuadPart;
 2639              		.loc 2 36 0
 2640 026c 482B4424 		sub	rax, QWORD PTR 48[rsp]	 # D.77725, t.m_start.QuadPart
 2640      30
 2641              	.LBE691:
 2642              	.LBE690:
  22:TestRadixSort.cpp ****     printf(": %.3lf milliseconds = %.3lf MB/s = %.3lf MiB/s\n\n", t.Elapsed(), speed/1e6, speed/(1<
 2643              		.loc 3 22 0
 2644 0271 488D0D48 		lea	rcx, .LC9[rip]	 #,
 2644      000000
 2645              	.LBB695:
 2646              	.LBB692:
  36:timer.h       ****                                           * 1000.0 / m_freq.QuadPart;
 2647              		.loc 2 36 0
 2648 0278 482B4424 		sub	rax, QWORD PTR 72[rsp]	 # D.77725, t.m_overhead
 2648      48
 2649              	.LBE692:
 2650              	.LBE695:
 2651              		.loc 3 22 0
 2652 027d F2440F10 		movsd	xmm10, QWORD PTR .LC2[rip]	 # tmp856,
 2652      15900000 
 2652      00
 2653              	.LBB696:
 2654              	.LBB693:
  37:timer.h       ****     }
 2655              		.loc 2 37 0
 2656 0286 F2480F2A 		cvtsi2sdq	xmm2, QWORD PTR 64[rsp]	 # D.77726, t.m_freq.QuadPart
 2656      542440
 2657              	.LBE693:
 2658              	.LBE696:
 2659              		.loc 3 22 0
 2660 028d F2440F10 		movsd	xmm9, QWORD PTR .LC1[rip]	 # tmp855,
 2660      0D880000 
 2660      00
 2661              	.LBB697:
 2662              	.LBB694:
  37:timer.h       ****     }
 2663              		.loc 2 37 0
 2664 0296 F2480F2A 		cvtsi2sdq	xmm0, rax	 # D.77726, D.77725
 2664      C0
 2665 029b F20F59C7 		mulsd	xmm0, xmm7	 # D.77726, tmp854
 2666 029f F20F5EC2 		divsd	xmm0, xmm2	 # D.77726, D.77726
 2667              	.LBE694:
 2668              	.LBE697:
 2669              		.loc 3 22 0
 2670 02a3 66410F28 		movapd	xmm1, xmm13	 # D.77726, speed
 2670      CD
 2671 02a8 F2410F59 		mulsd	xmm1, xmm9	 # D.77726, tmp855
 2671      C9
 2672 02ad 660F28D9 		movapd	xmm3, xmm1	 #, D.77726
 2673 02b1 66490F7E 		movq	r9, xmm1	 #, D.77726
 2673      C9
 2674 02b6 F2450F5E 		divsd	xmm13, xmm10	 # D.77726, tmp856
 2674      EA
 2675              	.LVL249:
 2676 02bb 660F28C8 		movapd	xmm1, xmm0	 #, D.77726
 2677 02bf 66480F7E 		movq	rdx, xmm0	 #, D.77726
 2677      C2
 2678 02c4 66410F28 		movapd	xmm2, xmm13	 #, D.77726
 2678      D5
 2679 02c9 664D0F7E 		movq	r8, xmm13	 #, D.77726
 2679      E8
 2680 02ce E8000000 		call	printf	 #
 2680      00
 2681              	.LVL250:
 2682 02d3 4D85F6   		test	r14, r14	 # prolog_loop_niters.271
 2683 02d6 0F84090A 		je	.L130	 #,
 2683      0000
 2684 02dc 4983FE01 		cmp	r14, 1	 # prolog_loop_niters.271,
 2685              	.LBB698:
  23:TestRadixSort.cpp **** 
  24:TestRadixSort.cpp ****     for (size_t i=0; i<DATASET; i++)
  25:TestRadixSort.cpp ****         keys[i] = i*123456791;
 2686              		.loc 3 25 0
 2687 02e0 41C74500 		mov	DWORD PTR 0[r13], 0	 # *keys_15,
 2687      00000000 
 2688              	.LVL251:
 2689 02e8 0F848C0A 		je	.L131	 #,
 2689      0000
 2690 02ee 4983FE03 		cmp	r14, 3	 # prolog_loop_niters.271,
 2691 02f2 41C74504 		mov	DWORD PTR 4[r13], 123456791	 # MEM[(unsigned int *)keys_15 + 4B],
 2691      17CD5B07 
 2692              	.LVL252:
 2693 02fa 0F858B0A 		jne	.L132	 #,
 2693      0000
 2694 0300 41C74508 		mov	DWORD PTR 8[r13], 246913582	 # MEM[(unsigned int *)keys_15 + 8B],
 2694      2E9AB70E 
 2695              	.LVL253:
 2696 0308 41BBFDFF 		mov	r11d, 104857597	 # D.77728,
 2696      3F06
  24:TestRadixSort.cpp ****         keys[i] = i*123456791;
 2697              		.loc 3 24 0
 2698 030e 41B80300 		mov	r8d, 3	 # i,
 2698      0000
 2699              	.LVL254:
 2700              	.L98:
 2701 0314 41B90000 		mov	r9d, 104857600	 # tmp543,
 2701      4006
 2702 031a 41BAFCFF 		mov	r10d, 104857596	 # ratio_mult_vf.255,
 2702      3F06
 2703 0320 B9FFFF8F 		mov	ecx, 26214399	 # bnd.254,
 2703      01
 2704 0325 4D29F1   		sub	r9, r14	 # niters.253, prolog_loop_niters.271
 2705              	.L97:
 2706 0328 498D4001 		lea	rax, 1[r8]	 # stmp_var_.258,
 2707 032c 66490F6E 		movq	xmm2, r8	 # vect_vec_iv_.261, i
 2707      D0
 2708 0331 66410F6F 		movdqa	xmm3, xmm12	 # vect_cst_.260, vect_cst_.184
 2708      DC
 2709 0336 4B8D54B5 		lea	rdx, 0[r13+r14*4]	 # ivtmp.315,
 2709      00
 2710 033b 66480F6E 		movq	xmm5, rax	 # stmp_var_.258, stmp_var_.258
 2710      E8
 2711              	.LBE698:
  22:TestRadixSort.cpp **** 
 2712              		.loc 3 22 0
 2713 0340 31C0     		xor	eax, eax	 # ivtmp.314
 2714 0342 660F6CD5 		punpcklqdq	xmm2, xmm5	 # vect_vec_iv_.261, stmp_var_.258
 2715 0346 662E0F1F 		.p2align 4,,10
 2715      84000000 
 2715      0000
 2716              	.L99:
 2717 0350 660F6FC2 		movdqa	xmm0, xmm2	 # vect_vec_iv_.261, vect_vec_iv_.261
 2718              	.LBB699:
 2719              		.loc 3 25 0 discriminator 3
 2720 0354 660F6FEA 		movdqa	xmm5, xmm2	 # vect__39.263, vect_vec_iv_.261
 2721 0358 4883C001 		add	rax, 1	 # ivtmp.314,
 2722 035c 66410FD4 		paddq	xmm0, xmm11	 # vect_vec_iv_.261, tmp858
 2722      C3
 2723 0361 4883C210 		add	rdx, 16	 # ivtmp.315,
 2724 0365 660FD4D3 		paddq	xmm2, xmm3	 # vect_vec_iv_.261, vect_cst_.260
 2725 0369 0FC6E888 		shufps	xmm5, xmm0, 136	 # vect__39.263, vect_vec_iv_.261,
 2726 036d 660F6FC5 		movdqa	xmm0, xmm5	 # vect__39.263, vect__39.263
 2727 0371 660F6FCD 		movdqa	xmm1, xmm5	 # tmp553, vect__39.263
 2728 0375 660F73D0 		psrlq	xmm0, 32	 # tmp557,
 2728      20
 2729 037a 660FF4CE 		pmuludq	xmm1, xmm6	 # tmp553, tmp859
 2730 037e 660FF4C6 		pmuludq	xmm0, xmm6	 # tmp554, tmp859
 2731 0382 660F70C9 		pshufd	xmm1, xmm1, 8	 # tmp551, tmp553,
 2731      08
 2732 0387 660F70C0 		pshufd	xmm0, xmm0, 8	 # tmp552, tmp554,
 2732      08
 2733 038c 660F62C8 		punpckldq	xmm1, xmm0	 # vect__40.264, tmp552
 2734 0390 0F294AF0 		movaps	XMMWORD PTR -16[rdx], xmm1	 # MEM[base: _614, offset: 0B], vect__40.264
 2735 0394 4839C8   		cmp	rax, rcx	 # ivtmp.314, bnd.254
 2736 0397 72B7     		jb	.L99	 #,
 2737 0399 4B8D0410 		lea	rax, [r8+r10]	 # i,
 2738 039d 4C89DA   		mov	rdx, r11	 # D.77728, D.77728
 2739 03a0 4C29D2   		sub	rdx, r10	 # D.77728, ratio_mult_vf.255
 2740 03a3 4D39D1   		cmp	r9, r10	 # niters.253, ratio_mult_vf.255
 2741 03a6 7436     		je	.L101	 #,
 2742              	.LVL255:
 2743              		.loc 3 25 0 is_stmt 0
 2744 03a8 69C817CD 		imul	ecx, eax, 123456791	 # D.77723, i,
 2744      5B07
  24:TestRadixSort.cpp ****         keys[i] = i*123456791;
 2745              		.loc 3 24 0 is_stmt 1
 2746 03ae 4883FA01 		cmp	rdx, 1	 # D.77728,
 2747              		.loc 3 25 0
 2748 03b2 41894C85 		mov	DWORD PTR 0[r13+rax*4], ecx	 # *_780, D.77723
 2748      00
  24:TestRadixSort.cpp ****         keys[i] = i*123456791;
 2749              		.loc 3 24 0
 2750 03b7 488D4801 		lea	rcx, 1[rax]	 # i,
 2751              	.LVL256:
 2752 03bb 7421     		je	.L101	 #,
 2753              		.loc 3 25 0
 2754 03bd 4469C117 		imul	r8d, ecx, 123456791	 # D.77723, i,
 2754      CD5B07
  24:TestRadixSort.cpp ****         keys[i] = i*123456791;
 2755              		.loc 3 24 0
 2756 03c4 4883C002 		add	rax, 2	 # i,
 2757 03c8 4883FA02 		cmp	rdx, 2	 # D.77728,
 2758              		.loc 3 25 0
 2759 03cc 4589448D 		mov	DWORD PTR 0[r13+rcx*4], r8d	 # *_790, D.77723
 2759      00
 2760              	.LVL257:
  24:TestRadixSort.cpp ****         keys[i] = i*123456791;
 2761              		.loc 3 24 0
 2762 03d1 740B     		je	.L101	 #,
 2763              		.loc 3 25 0
 2764 03d3 69D017CD 		imul	edx, eax, 123456791	 # D.77723, i,
 2764      5B07
 2765 03d9 41895485 		mov	DWORD PTR 0[r13+rax*4], edx	 # *_580, D.77723
 2765      00
 2766              	.L101:
 2767              	.LVL258:
 2768              	.LBE699:
 2769              	.LBB700:
 2770              	.LBB701:
  25:timer.h       ****     }
 2771              		.loc 2 25 0
 2772 03de 4889D9   		mov	rcx, rbx	 #, tmp862
 2773              	.LBE701:
 2774              	.LBE700:
  26:TestRadixSort.cpp ****     t.Start();
  27:TestRadixSort.cpp ****     RadixSortPass<Key,Data,0,6> (keys, data, outkeys, outdata, DATASET);
  28:TestRadixSort.cpp ****     t.Stop();  speed = DATASET/(t.Elapsed()/1000);
 2775              		.loc 3 28 0
 2776 03e1 66450F28 		movapd	xmm13, xmm8	 # speed, tmp860
 2776      E8
 2777              	.LBB703:
 2778              	.LBB702:
  25:timer.h       ****     }
 2779              		.loc 2 25 0
 2780 03e6 FFD6     		call	rsi	 # tmp861
 2781              	.LVL259:
 2782              	.LBE702:
 2783              	.LBE703:
  27:TestRadixSort.cpp ****     t.Stop();  speed = DATASET/(t.Elapsed()/1000);
 2784              		.loc 3 27 0
 2785 03e8 4D89E1   		mov	r9, r12	 #, outdata
 2786 03eb 4989E8   		mov	r8, rbp	 #, outkeys
 2787 03ee 4889FA   		mov	rdx, rdi	 #, data
 2788 03f1 48C74424 		mov	QWORD PTR 32[rsp], 104857600	 #,
 2788      20000040 
 2788      06
 2789 03fa 4C89E9   		mov	rcx, r13	 #, keys
 2790 03fd E8000000 		call	_Z13RadixSortPassIjjLi0ELi6EEvPKT_PKT0_PS0_PS3_y	 #
 2790      00
 2791              	.LVL260:
 2792              	.LBB704:
 2793              	.LBB705:
  30:timer.h       ****     }
 2794              		.loc 2 30 0
 2795 0402 488D4B08 		lea	rcx, 8[rbx]	 # tmp565,
 2796 0406 FFD6     		call	rsi	 # tmp861
 2797              	.LVL261:
 2798              	.LBE705:
 2799              	.LBE704:
 2800              	.LBB706:
 2801              	.LBB707:
  36:timer.h       ****                                           * 1000.0 / m_freq.QuadPart;
 2802              		.loc 2 36 0
 2803 0408 488B4424 		mov	rax, QWORD PTR 56[rsp]	 # t.m_stop.QuadPart, t.m_stop.QuadPart
 2803      38
  37:timer.h       ****     }
 2804              		.loc 2 37 0
 2805 040d 660FEFC0 		pxor	xmm0, xmm0	 # D.77726
 2806 0411 660FEFC9 		pxor	xmm1, xmm1	 # D.77726
  36:timer.h       ****                                           * 1000.0 / m_freq.QuadPart;
 2807              		.loc 2 36 0
 2808 0415 482B4424 		sub	rax, QWORD PTR 48[rsp]	 # D.77725, t.m_start.QuadPart
 2808      30
 2809              	.LBE707:
 2810              	.LBE706:
  29:TestRadixSort.cpp ****     printf("Sorting %d MiB", int(DATASET>>20));
 2811              		.loc 3 29 0
 2812 041a BA640000 		mov	edx, 100	 #,
 2812      00
 2813              	.LBB710:
 2814              	.LBB708:
  36:timer.h       ****                                           * 1000.0 / m_freq.QuadPart;
 2815              		.loc 2 36 0
 2816 041f 482B4424 		sub	rax, QWORD PTR 72[rsp]	 # D.77725, t.m_overhead
 2816      48
  37:timer.h       ****     }
 2817              		.loc 2 37 0
 2818 0424 F2480F2A 		cvtsi2sdq	xmm1, QWORD PTR 64[rsp]	 # D.77726, t.m_freq.QuadPart
 2818      4C2440
 2819              	.LBE708:
 2820              	.LBE710:
 2821              		.loc 3 29 0
 2822 042b 488D0D39 		lea	rcx, .LC8[rip]	 #,
 2822      000000
 2823              	.LBB711:
 2824              	.LBB709:
  37:timer.h       ****     }
 2825              		.loc 2 37 0
 2826 0432 F2480F2A 		cvtsi2sdq	xmm0, rax	 # D.77726, D.77725
 2826      C0
 2827 0437 F20F59C7 		mulsd	xmm0, xmm7	 # D.77726, tmp854
 2828 043b F20F5EC1 		divsd	xmm0, xmm1	 # D.77726, D.77726
 2829              	.LBE709:
 2830              	.LBE711:
  28:TestRadixSort.cpp ****     printf("Sorting %d MiB", int(DATASET>>20));
 2831              		.loc 3 28 0
 2832 043f F20F5EC7 		divsd	xmm0, xmm7	 # D.77726, tmp854
 2833 0443 F2440F5E 		divsd	xmm13, xmm0	 # speed, D.77726
 2833      E8
 2834              	.LVL262:
 2835              		.loc 3 29 0
 2836 0448 E8000000 		call	printf	 #
 2836      00
 2837              	.LVL263:
 2838              	.LBB712:
 2839              	.LBB713:
  36:timer.h       ****                                           * 1000.0 / m_freq.QuadPart;
 2840              		.loc 2 36 0
 2841 044d 488B4424 		mov	rax, QWORD PTR 56[rsp]	 # t.m_stop.QuadPart, t.m_stop.QuadPart
 2841      38
  37:timer.h       ****     }
 2842              		.loc 2 37 0
 2843 0452 660FEFC0 		pxor	xmm0, xmm0	 # D.77726
 2844 0456 660FEFD2 		pxor	xmm2, xmm2	 # D.77726
  36:timer.h       ****                                           * 1000.0 / m_freq.QuadPart;
 2845              		.loc 2 36 0
 2846 045a 482B4424 		sub	rax, QWORD PTR 48[rsp]	 # D.77725, t.m_start.QuadPart
 2846      30
 2847              	.LBE713:
 2848              	.LBE712:
  30:TestRadixSort.cpp ****     printf(": %.3lf milliseconds = %.3lf MB/s = %.3lf MiB/s\n\n", t.Elapsed(), speed/1e6, speed/(1<
 2849              		.loc 3 30 0
 2850 045f 488D0D48 		lea	rcx, .LC9[rip]	 #,
 2850      000000
 2851              	.LBB715:
 2852              	.LBB714:
  36:timer.h       ****                                           * 1000.0 / m_freq.QuadPart;
 2853              		.loc 2 36 0
 2854 0466 482B4424 		sub	rax, QWORD PTR 72[rsp]	 # D.77725, t.m_overhead
 2854      48
  37:timer.h       ****     }
 2855              		.loc 2 37 0
 2856 046b F2480F2A 		cvtsi2sdq	xmm2, QWORD PTR 64[rsp]	 # D.77726, t.m_freq.QuadPart
 2856      542440
 2857 0472 F2480F2A 		cvtsi2sdq	xmm0, rax	 # D.77726, D.77725
 2857      C0
 2858 0477 F20F59C7 		mulsd	xmm0, xmm7	 # D.77726, tmp854
 2859 047b F20F5EC2 		divsd	xmm0, xmm2	 # D.77726, D.77726
 2860              	.LBE714:
 2861              	.LBE715:
 2862              		.loc 3 30 0
 2863 047f 66410F28 		movapd	xmm1, xmm13	 # D.77726, speed
 2863      CD
 2864 0484 F2410F59 		mulsd	xmm1, xmm9	 # D.77726, tmp855
 2864      C9
 2865 0489 660F28D9 		movapd	xmm3, xmm1	 #, D.77726
 2866 048d 66490F7E 		movq	r9, xmm1	 #, D.77726
 2866      C9
 2867 0492 F2450F5E 		divsd	xmm13, xmm10	 # D.77726, tmp856
 2867      EA
 2868              	.LVL264:
 2869 0497 660F28C8 		movapd	xmm1, xmm0	 #, D.77726
 2870 049b 66480F7E 		movq	rdx, xmm0	 #, D.77726
 2870      C2
 2871 04a0 66410F28 		movapd	xmm2, xmm13	 #, D.77726
 2871      D5
 2872 04a5 664D0F7E 		movq	r8, xmm13	 #, D.77726
 2872      E8
 2873 04aa E8000000 		call	printf	 #
 2873      00
 2874              	.LVL265:
 2875 04af 4D85F6   		test	r14, r14	 # prolog_loop_niters.271
 2876 04b2 0F840E08 		je	.L133	 #,
 2876      0000
 2877 04b8 4983FE01 		cmp	r14, 1	 # prolog_loop_niters.271,
 2878              	.LBB716:
  31:TestRadixSort.cpp **** 
  32:TestRadixSort.cpp ****     for (size_t i=0; i<DATASET; i++)
  33:TestRadixSort.cpp ****         keys[i] = i*123456791;
 2879              		.loc 3 33 0
 2880 04bc 41C74500 		mov	DWORD PTR 0[r13], 0	 # *keys_15,
 2880      00000000 
 2881              	.LVL266:
 2882 04c4 0F844A08 		je	.L134	 #,
 2882      0000
 2883 04ca 4983FE03 		cmp	r14, 3	 # prolog_loop_niters.271,
 2884 04ce 41C74504 		mov	DWORD PTR 4[r13], 123456791	 # MEM[(unsigned int *)keys_15 + 4B],
 2884      17CD5B07 
 2885              	.LVL267:
 2886 04d6 0F854908 		jne	.L135	 #,
 2886      0000
 2887 04dc 41C74508 		mov	DWORD PTR 8[r13], 246913582	 # MEM[(unsigned int *)keys_15 + 8B],
 2887      2E9AB70E 
 2888              	.LVL268:
 2889 04e4 41BBFDFF 		mov	r11d, 104857597	 # D.77728,
 2889      3F06
  32:TestRadixSort.cpp ****         keys[i] = i*123456791;
 2890              		.loc 3 32 0
 2891 04ea 41B80300 		mov	r8d, 3	 # i,
 2891      0000
 2892              	.LVL269:
 2893              	.L104:
 2894 04f0 41B90000 		mov	r9d, 104857600	 # tmp605,
 2894      4006
 2895 04f6 41BAFCFF 		mov	r10d, 104857596	 # ratio_mult_vf.236,
 2895      3F06
 2896 04fc B9FFFF8F 		mov	ecx, 26214399	 # bnd.235,
 2896      01
 2897 0501 4D29F1   		sub	r9, r14	 # niters.234, prolog_loop_niters.271
 2898              	.L103:
 2899 0504 498D4001 		lea	rax, 1[r8]	 # stmp_var_.239,
 2900 0508 66490F6E 		movq	xmm2, r8	 # vect_vec_iv_.242, i
 2900      D0
 2901 050d 66410F6F 		movdqa	xmm3, xmm12	 # vect_cst_.241, vect_cst_.184
 2901      DC
 2902 0512 4B8D54B5 		lea	rdx, 0[r13+r14*4]	 # ivtmp.309,
 2902      00
 2903 0517 66480F6E 		movq	xmm5, rax	 # stmp_var_.239, stmp_var_.239
 2903      E8
 2904              	.LBE716:
  30:TestRadixSort.cpp ****     printf(": %.3lf milliseconds = %.3lf MB/s = %.3lf MiB/s\n\n", t.Elapsed(), speed/1e6, speed/(1<
 2905              		.loc 3 30 0
 2906 051c 31C0     		xor	eax, eax	 # ivtmp.308
 2907 051e 660F6CD5 		punpcklqdq	xmm2, xmm5	 # vect_vec_iv_.242, stmp_var_.239
 2908              		.p2align 4,,10
 2909              	.L105:
 2910 0522 660F6FC2 		movdqa	xmm0, xmm2	 # vect_vec_iv_.242, vect_vec_iv_.242
 2911              	.LBB717:
 2912              		.loc 3 33 0 discriminator 3
 2913 0526 660F6FE2 		movdqa	xmm4, xmm2	 # vect__53.244, vect_vec_iv_.242
 2914 052a 4883C001 		add	rax, 1	 # ivtmp.308,
 2915 052e 66410FD4 		paddq	xmm0, xmm11	 # vect_vec_iv_.242, tmp858
 2915      C3
 2916 0533 4883C210 		add	rdx, 16	 # ivtmp.309,
 2917 0537 660FD4D3 		paddq	xmm2, xmm3	 # vect_vec_iv_.242, vect_cst_.241
 2918 053b 0FC6E088 		shufps	xmm4, xmm0, 136	 # vect__53.244, vect_vec_iv_.242,
 2919 053f 660F6FC4 		movdqa	xmm0, xmm4	 # vect__53.244, vect__53.244
 2920 0543 660F6FCC 		movdqa	xmm1, xmm4	 # tmp615, vect__53.244
 2921 0547 660F73D0 		psrlq	xmm0, 32	 # tmp619,
 2921      20
 2922 054c 660FF4CE 		pmuludq	xmm1, xmm6	 # tmp615, tmp859
 2923 0550 660FF4C6 		pmuludq	xmm0, xmm6	 # tmp616, tmp859
 2924 0554 660F70C9 		pshufd	xmm1, xmm1, 8	 # tmp613, tmp615,
 2924      08
 2925 0559 660F70C0 		pshufd	xmm0, xmm0, 8	 # tmp614, tmp616,
 2925      08
 2926 055e 660F62C8 		punpckldq	xmm1, xmm0	 # vect__54.245, tmp614
 2927 0562 0F294AF0 		movaps	XMMWORD PTR -16[rdx], xmm1	 # MEM[base: _248, offset: 0B], vect__54.245
 2928 0566 4839C8   		cmp	rax, rcx	 # ivtmp.308, bnd.235
 2929 0569 72B7     		jb	.L105	 #,
 2930 056b 4B8D0410 		lea	rax, [r8+r10]	 # i,
 2931 056f 4C89DA   		mov	rdx, r11	 # D.77728, D.77728
 2932 0572 4C29D2   		sub	rdx, r10	 # D.77728, ratio_mult_vf.236
 2933 0575 4D39D1   		cmp	r9, r10	 # niters.234, ratio_mult_vf.236
 2934 0578 7436     		je	.L107	 #,
 2935              	.LVL270:
 2936              		.loc 3 33 0 is_stmt 0
 2937 057a 69C817CD 		imul	ecx, eax, 123456791	 # D.77723, i,
 2937      5B07
  32:TestRadixSort.cpp ****         keys[i] = i*123456791;
 2938              		.loc 3 32 0 is_stmt 1
 2939 0580 4883FA01 		cmp	rdx, 1	 # D.77728,
 2940              		.loc 3 33 0
 2941 0584 41894C85 		mov	DWORD PTR 0[r13+rax*4], ecx	 # *_736, D.77723
 2941      00
  32:TestRadixSort.cpp ****         keys[i] = i*123456791;
 2942              		.loc 3 32 0
 2943 0589 488D4801 		lea	rcx, 1[rax]	 # i,
 2944              	.LVL271:
 2945 058d 7421     		je	.L107	 #,
 2946              		.loc 3 33 0
 2947 058f 4469C117 		imul	r8d, ecx, 123456791	 # D.77723, i,
 2947      CD5B07
  32:TestRadixSort.cpp ****         keys[i] = i*123456791;
 2948              		.loc 3 32 0
 2949 0596 4883C002 		add	rax, 2	 # i,
 2950 059a 4883FA02 		cmp	rdx, 2	 # D.77728,
 2951              		.loc 3 33 0
 2952 059e 4589448D 		mov	DWORD PTR 0[r13+rcx*4], r8d	 # *_746, D.77723
 2952      00
 2953              	.LVL272:
  32:TestRadixSort.cpp ****         keys[i] = i*123456791;
 2954              		.loc 3 32 0
 2955 05a3 740B     		je	.L107	 #,
 2956              		.loc 3 33 0
 2957 05a5 69D017CD 		imul	edx, eax, 123456791	 # D.77723, i,
 2957      5B07
 2958 05ab 41895485 		mov	DWORD PTR 0[r13+rax*4], edx	 # *_507, D.77723
 2958      00
 2959              	.L107:
 2960              	.LVL273:
 2961              	.LBE717:
 2962              	.LBB718:
 2963              	.LBB719:
  25:timer.h       ****     }
 2964              		.loc 2 25 0
 2965 05b0 4889D9   		mov	rcx, rbx	 #, tmp862
 2966              	.LBE719:
 2967              	.LBE718:
  34:TestRadixSort.cpp ****     t.Start();
  35:TestRadixSort.cpp ****     RadixSortPass<Key,Data,0,8> (keys, data, outkeys, outdata, DATASET);
  36:TestRadixSort.cpp ****     t.Stop();  speed = DATASET/(t.Elapsed()/1000);
 2968              		.loc 3 36 0
 2969 05b3 66450F28 		movapd	xmm13, xmm8	 # speed, tmp860
 2969      E8
 2970              	.LBB721:
 2971              	.LBB720:
  25:timer.h       ****     }
 2972              		.loc 2 25 0
 2973 05b8 FFD6     		call	rsi	 # tmp861
 2974              	.LVL274:
 2975              	.LBE720:
 2976              	.LBE721:
  35:TestRadixSort.cpp ****     t.Stop();  speed = DATASET/(t.Elapsed()/1000);
 2977              		.loc 3 35 0
 2978 05ba 4D89E1   		mov	r9, r12	 #, outdata
 2979 05bd 4989E8   		mov	r8, rbp	 #, outkeys
 2980 05c0 4889FA   		mov	rdx, rdi	 #, data
 2981 05c3 48C74424 		mov	QWORD PTR 32[rsp], 104857600	 #,
 2981      20000040 
 2981      06
 2982 05cc 4C89E9   		mov	rcx, r13	 #, keys
 2983 05cf E8000000 		call	_Z13RadixSortPassIjjLi0ELi8EEvPKT_PKT0_PS0_PS3_y	 #
 2983      00
 2984              	.LVL275:
 2985              	.LBB722:
 2986              	.LBB723:
  30:timer.h       ****     }
 2987              		.loc 2 30 0
 2988 05d4 488D4B08 		lea	rcx, 8[rbx]	 # tmp627,
 2989 05d8 FFD6     		call	rsi	 # tmp861
 2990              	.LVL276:
 2991              	.LBE723:
 2992              	.LBE722:
 2993              	.LBB724:
 2994              	.LBB725:
  36:timer.h       ****                                           * 1000.0 / m_freq.QuadPart;
 2995              		.loc 2 36 0
 2996 05da 488B4424 		mov	rax, QWORD PTR 56[rsp]	 # t.m_stop.QuadPart, t.m_stop.QuadPart
 2996      38
  37:timer.h       ****     }
 2997              		.loc 2 37 0
 2998 05df 660FEFC0 		pxor	xmm0, xmm0	 # D.77726
 2999 05e3 660FEFC9 		pxor	xmm1, xmm1	 # D.77726
  36:timer.h       ****                                           * 1000.0 / m_freq.QuadPart;
 3000              		.loc 2 36 0
 3001 05e7 482B4424 		sub	rax, QWORD PTR 48[rsp]	 # D.77725, t.m_start.QuadPart
 3001      30
 3002              	.LBE725:
 3003              	.LBE724:
  37:TestRadixSort.cpp ****     printf("Sorting %d MiB", int(DATASET>>20));
 3004              		.loc 3 37 0
 3005 05ec BA640000 		mov	edx, 100	 #,
 3005      00
 3006              	.LBB728:
 3007              	.LBB726:
  36:timer.h       ****                                           * 1000.0 / m_freq.QuadPart;
 3008              		.loc 2 36 0
 3009 05f1 482B4424 		sub	rax, QWORD PTR 72[rsp]	 # D.77725, t.m_overhead
 3009      48
  37:timer.h       ****     }
 3010              		.loc 2 37 0
 3011 05f6 F2480F2A 		cvtsi2sdq	xmm1, QWORD PTR 64[rsp]	 # D.77726, t.m_freq.QuadPart
 3011      4C2440
 3012              	.LBE726:
 3013              	.LBE728:
 3014              		.loc 3 37 0
 3015 05fd 488D0D39 		lea	rcx, .LC8[rip]	 #,
 3015      000000
 3016              	.LBB729:
 3017              	.LBB727:
  37:timer.h       ****     }
 3018              		.loc 2 37 0
 3019 0604 F2480F2A 		cvtsi2sdq	xmm0, rax	 # D.77726, D.77725
 3019      C0
 3020 0609 F20F59C7 		mulsd	xmm0, xmm7	 # D.77726, tmp854
 3021 060d F20F5EC1 		divsd	xmm0, xmm1	 # D.77726, D.77726
 3022              	.LBE727:
 3023              	.LBE729:
  36:TestRadixSort.cpp ****     printf("Sorting %d MiB", int(DATASET>>20));
 3024              		.loc 3 36 0
 3025 0611 F20F5EC7 		divsd	xmm0, xmm7	 # D.77726, tmp854
 3026 0615 F2440F5E 		divsd	xmm13, xmm0	 # speed, D.77726
 3026      E8
 3027              	.LVL277:
 3028              		.loc 3 37 0
 3029 061a E8000000 		call	printf	 #
 3029      00
 3030              	.LVL278:
 3031              	.LBB730:
 3032              	.LBB731:
  36:timer.h       ****                                           * 1000.0 / m_freq.QuadPart;
 3033              		.loc 2 36 0
 3034 061f 488B4424 		mov	rax, QWORD PTR 56[rsp]	 # t.m_stop.QuadPart, t.m_stop.QuadPart
 3034      38
  37:timer.h       ****     }
 3035              		.loc 2 37 0
 3036 0624 660FEFC0 		pxor	xmm0, xmm0	 # D.77726
 3037 0628 660FEFD2 		pxor	xmm2, xmm2	 # D.77726
  36:timer.h       ****                                           * 1000.0 / m_freq.QuadPart;
 3038              		.loc 2 36 0
 3039 062c 482B4424 		sub	rax, QWORD PTR 48[rsp]	 # D.77725, t.m_start.QuadPart
 3039      30
 3040              	.LBE731:
 3041              	.LBE730:
  38:TestRadixSort.cpp ****     printf(": %.3lf milliseconds = %.3lf MB/s = %.3lf MiB/s\n\n", t.Elapsed(), speed/1e6, speed/(1<
 3042              		.loc 3 38 0
 3043 0631 488D0D48 		lea	rcx, .LC9[rip]	 #,
 3043      000000
 3044              	.LBB733:
 3045              	.LBB732:
  36:timer.h       ****                                           * 1000.0 / m_freq.QuadPart;
 3046              		.loc 2 36 0
 3047 0638 482B4424 		sub	rax, QWORD PTR 72[rsp]	 # D.77725, t.m_overhead
 3047      48
  37:timer.h       ****     }
 3048              		.loc 2 37 0
 3049 063d F2480F2A 		cvtsi2sdq	xmm2, QWORD PTR 64[rsp]	 # D.77726, t.m_freq.QuadPart
 3049      542440
 3050 0644 F2480F2A 		cvtsi2sdq	xmm0, rax	 # D.77726, D.77725
 3050      C0
 3051 0649 F20F59C7 		mulsd	xmm0, xmm7	 # D.77726, tmp854
 3052 064d F20F5EC2 		divsd	xmm0, xmm2	 # D.77726, D.77726
 3053              	.LBE732:
 3054              	.LBE733:
 3055              		.loc 3 38 0
 3056 0651 66410F28 		movapd	xmm1, xmm13	 # D.77726, speed
 3056      CD
 3057 0656 F2410F59 		mulsd	xmm1, xmm9	 # D.77726, tmp855
 3057      C9
 3058 065b 660F28D9 		movapd	xmm3, xmm1	 #, D.77726
 3059 065f 66490F7E 		movq	r9, xmm1	 #, D.77726
 3059      C9
 3060 0664 F2450F5E 		divsd	xmm13, xmm10	 # D.77726, tmp856
 3060      EA
 3061              	.LVL279:
 3062 0669 660F28C8 		movapd	xmm1, xmm0	 #, D.77726
 3063 066d 66480F7E 		movq	rdx, xmm0	 #, D.77726
 3063      C2
 3064 0672 66410F28 		movapd	xmm2, xmm13	 #, D.77726
 3064      D5
 3065 0677 664D0F7E 		movq	r8, xmm13	 #, D.77726
 3065      E8
 3066 067c E8000000 		call	printf	 #
 3066      00
 3067              	.LVL280:
 3068 0681 4D85F6   		test	r14, r14	 # prolog_loop_niters.271
 3069 0684 0F841D06 		je	.L136	 #,
 3069      0000
 3070 068a 4983FE01 		cmp	r14, 1	 # prolog_loop_niters.271,
 3071              	.LBB734:
  39:TestRadixSort.cpp **** 
  40:TestRadixSort.cpp ****     for (size_t i=0; i<DATASET; i++)
  41:TestRadixSort.cpp ****         keys[i] = i*123456791;
 3072              		.loc 3 41 0
 3073 068e 41C74500 		mov	DWORD PTR 0[r13], 0	 # *keys_15,
 3073      00000000 
 3074              	.LVL281:
 3075 0696 0F849A06 		je	.L137	 #,
 3075      0000
 3076 069c 4983FE03 		cmp	r14, 3	 # prolog_loop_niters.271,
 3077 06a0 41C74504 		mov	DWORD PTR 4[r13], 123456791	 # MEM[(unsigned int *)keys_15 + 4B],
 3077      17CD5B07 
 3078              	.LVL282:
 3079 06a8 0F859906 		jne	.L138	 #,
 3079      0000
 3080 06ae 41C74508 		mov	DWORD PTR 8[r13], 246913582	 # MEM[(unsigned int *)keys_15 + 8B],
 3080      2E9AB70E 
 3081              	.LVL283:
 3082 06b6 41BBFDFF 		mov	r11d, 104857597	 # D.77728,
 3082      3F06
  40:TestRadixSort.cpp ****         keys[i] = i*123456791;
 3083              		.loc 3 40 0
 3084 06bc 41B80300 		mov	r8d, 3	 # i,
 3084      0000
 3085              	.LVL284:
 3086              	.L110:
 3087 06c2 41B90000 		mov	r9d, 104857600	 # tmp667,
 3087      4006
 3088 06c8 41BAFCFF 		mov	r10d, 104857596	 # ratio_mult_vf.217,
 3088      3F06
 3089 06ce B9FFFF8F 		mov	ecx, 26214399	 # bnd.216,
 3089      01
 3090 06d3 4D29F1   		sub	r9, r14	 # niters.215, prolog_loop_niters.271
 3091              	.L109:
 3092 06d6 498D4001 		lea	rax, 1[r8]	 # stmp_var_.220,
 3093 06da 66490F6E 		movq	xmm2, r8	 # vect_vec_iv_.223, i
 3093      D0
 3094 06df 66410F6F 		movdqa	xmm3, xmm12	 # vect_cst_.222, vect_cst_.184
 3094      DC
 3095 06e4 4B8D54B5 		lea	rdx, 0[r13+r14*4]	 # ivtmp.303,
 3095      00
 3096 06e9 66480F6E 		movq	xmm5, rax	 # stmp_var_.220, stmp_var_.220
 3096      E8
 3097              	.LBE734:
  38:TestRadixSort.cpp ****     printf(": %.3lf milliseconds = %.3lf MB/s = %.3lf MiB/s\n\n", t.Elapsed(), speed/1e6, speed/(1<
 3098              		.loc 3 38 0
 3099 06ee 31C0     		xor	eax, eax	 # ivtmp.302
 3100 06f0 660F6CD5 		punpcklqdq	xmm2, xmm5	 # vect_vec_iv_.223, stmp_var_.220
 3101              		.p2align 4,,10
 3102              	.L111:
 3103 06f4 660F6FC2 		movdqa	xmm0, xmm2	 # vect_vec_iv_.223, vect_vec_iv_.223
 3104              	.LBB735:
 3105              		.loc 3 41 0 discriminator 3
 3106 06f8 660F6FEA 		movdqa	xmm5, xmm2	 # vect__67.225, vect_vec_iv_.223
 3107 06fc 4883C001 		add	rax, 1	 # ivtmp.302,
 3108 0700 66410FD4 		paddq	xmm0, xmm11	 # vect_vec_iv_.223, tmp858
 3108      C3
 3109 0705 4883C210 		add	rdx, 16	 # ivtmp.303,
 3110 0709 660FD4D3 		paddq	xmm2, xmm3	 # vect_vec_iv_.223, vect_cst_.222
 3111 070d 0FC6E888 		shufps	xmm5, xmm0, 136	 # vect__67.225, vect_vec_iv_.223,
 3112 0711 660F6FC5 		movdqa	xmm0, xmm5	 # vect__67.225, vect__67.225
 3113 0715 660F6FCD 		movdqa	xmm1, xmm5	 # tmp677, vect__67.225
 3114 0719 660F73D0 		psrlq	xmm0, 32	 # tmp681,
 3114      20
 3115 071e 660FF4CE 		pmuludq	xmm1, xmm6	 # tmp677, tmp859
 3116 0722 660FF4C6 		pmuludq	xmm0, xmm6	 # tmp678, tmp859
 3117 0726 660F70C9 		pshufd	xmm1, xmm1, 8	 # tmp675, tmp677,
 3117      08
 3118 072b 660F70C0 		pshufd	xmm0, xmm0, 8	 # tmp676, tmp678,
 3118      08
 3119 0730 660F62C8 		punpckldq	xmm1, xmm0	 # vect__68.226, tmp676
 3120 0734 0F294AF0 		movaps	XMMWORD PTR -16[rdx], xmm1	 # MEM[base: _246, offset: 0B], vect__68.226
 3121 0738 4839C8   		cmp	rax, rcx	 # ivtmp.302, bnd.216
 3122 073b 72B7     		jb	.L111	 #,
 3123 073d 4B8D0410 		lea	rax, [r8+r10]	 # i,
 3124 0741 4C89DA   		mov	rdx, r11	 # D.77728, D.77728
 3125 0744 4C29D2   		sub	rdx, r10	 # D.77728, ratio_mult_vf.217
 3126 0747 4D39D1   		cmp	r9, r10	 # niters.215, ratio_mult_vf.217
 3127 074a 7436     		je	.L113	 #,
 3128              	.LVL285:
 3129              		.loc 3 41 0 is_stmt 0
 3130 074c 69C817CD 		imul	ecx, eax, 123456791	 # D.77723, i,
 3130      5B07
  40:TestRadixSort.cpp ****         keys[i] = i*123456791;
 3131              		.loc 3 40 0 is_stmt 1
 3132 0752 4883FA01 		cmp	rdx, 1	 # D.77728,
 3133              		.loc 3 41 0
 3134 0756 41894C85 		mov	DWORD PTR 0[r13+rax*4], ecx	 # *_84, D.77723
 3134      00
  40:TestRadixSort.cpp ****         keys[i] = i*123456791;
 3135              		.loc 3 40 0
 3136 075b 488D4801 		lea	rcx, 1[rax]	 # i,
 3137              	.LVL286:
 3138 075f 7421     		je	.L113	 #,
 3139              		.loc 3 41 0
 3140 0761 4469C117 		imul	r8d, ecx, 123456791	 # D.77723, i,
 3140      CD5B07
  40:TestRadixSort.cpp ****         keys[i] = i*123456791;
 3141              		.loc 3 40 0
 3142 0768 4883C002 		add	rax, 2	 # i,
 3143 076c 4883FA02 		cmp	rdx, 2	 # D.77728,
 3144              		.loc 3 41 0
 3145 0770 4589448D 		mov	DWORD PTR 0[r13+rcx*4], r8d	 # *_702, D.77723
 3145      00
 3146              	.LVL287:
  40:TestRadixSort.cpp ****         keys[i] = i*123456791;
 3147              		.loc 3 40 0
 3148 0775 740B     		je	.L113	 #,
 3149              		.loc 3 41 0
 3150 0777 69D017CD 		imul	edx, eax, 123456791	 # D.77723, i,
 3150      5B07
 3151 077d 41895485 		mov	DWORD PTR 0[r13+rax*4], edx	 # *_434, D.77723
 3151      00
 3152              	.L113:
 3153              	.LVL288:
 3154              	.LBE735:
 3155              	.LBB736:
 3156              	.LBB737:
  25:timer.h       ****     }
 3157              		.loc 2 25 0
 3158 0782 4889D9   		mov	rcx, rbx	 #, tmp862
 3159              	.LBE737:
 3160              	.LBE736:
  42:TestRadixSort.cpp ****     t.Start();
  43:TestRadixSort.cpp ****     RadixSortPass<Key,Data,0,12> (keys, data, outkeys, outdata, DATASET);
  44:TestRadixSort.cpp ****     t.Stop();  speed = DATASET/(t.Elapsed()/1000);
 3161              		.loc 3 44 0
 3162 0785 66450F28 		movapd	xmm13, xmm8	 # speed, tmp860
 3162      E8
 3163              	.LBB739:
 3164              	.LBB738:
  25:timer.h       ****     }
 3165              		.loc 2 25 0
 3166 078a FFD6     		call	rsi	 # tmp861
 3167              	.LVL289:
 3168              	.LBE738:
 3169              	.LBE739:
  43:TestRadixSort.cpp ****     t.Stop();  speed = DATASET/(t.Elapsed()/1000);
 3170              		.loc 3 43 0
 3171 078c 4D89E1   		mov	r9, r12	 #, outdata
 3172 078f 4989E8   		mov	r8, rbp	 #, outkeys
 3173 0792 4889FA   		mov	rdx, rdi	 #, data
 3174 0795 48C74424 		mov	QWORD PTR 32[rsp], 104857600	 #,
 3174      20000040 
 3174      06
 3175 079e 4C89E9   		mov	rcx, r13	 #, keys
 3176 07a1 E8000000 		call	_Z13RadixSortPassIjjLi0ELi12EEvPKT_PKT0_PS0_PS3_y	 #
 3176      00
 3177              	.LVL290:
 3178              	.LBB740:
 3179              	.LBB741:
  30:timer.h       ****     }
 3180              		.loc 2 30 0
 3181 07a6 488D4B08 		lea	rcx, 8[rbx]	 # tmp689,
 3182 07aa FFD6     		call	rsi	 # tmp861
 3183              	.LVL291:
 3184              	.LBE741:
 3185              	.LBE740:
 3186              	.LBB742:
 3187              	.LBB743:
  36:timer.h       ****                                           * 1000.0 / m_freq.QuadPart;
 3188              		.loc 2 36 0
 3189 07ac 488B4424 		mov	rax, QWORD PTR 56[rsp]	 # t.m_stop.QuadPart, t.m_stop.QuadPart
 3189      38
  37:timer.h       ****     }
 3190              		.loc 2 37 0
 3191 07b1 660FEFC0 		pxor	xmm0, xmm0	 # D.77726
 3192 07b5 660FEFC9 		pxor	xmm1, xmm1	 # D.77726
  36:timer.h       ****                                           * 1000.0 / m_freq.QuadPart;
 3193              		.loc 2 36 0
 3194 07b9 482B4424 		sub	rax, QWORD PTR 48[rsp]	 # D.77725, t.m_start.QuadPart
 3194      30
 3195              	.LBE743:
 3196              	.LBE742:
  45:TestRadixSort.cpp ****     printf("Sorting %d MiB", int(DATASET>>20));
 3197              		.loc 3 45 0
 3198 07be BA640000 		mov	edx, 100	 #,
 3198      00
 3199              	.LBB746:
 3200              	.LBB744:
  36:timer.h       ****                                           * 1000.0 / m_freq.QuadPart;
 3201              		.loc 2 36 0
 3202 07c3 482B4424 		sub	rax, QWORD PTR 72[rsp]	 # D.77725, t.m_overhead
 3202      48
  37:timer.h       ****     }
 3203              		.loc 2 37 0
 3204 07c8 F2480F2A 		cvtsi2sdq	xmm1, QWORD PTR 64[rsp]	 # D.77726, t.m_freq.QuadPart
 3204      4C2440
 3205              	.LBE744:
 3206              	.LBE746:
 3207              		.loc 3 45 0
 3208 07cf 488D0D39 		lea	rcx, .LC8[rip]	 #,
 3208      000000
 3209              	.LBB747:
 3210              	.LBB745:
  37:timer.h       ****     }
 3211              		.loc 2 37 0
 3212 07d6 F2480F2A 		cvtsi2sdq	xmm0, rax	 # D.77726, D.77725
 3212      C0
 3213 07db F20F59C7 		mulsd	xmm0, xmm7	 # D.77726, tmp854
 3214 07df F20F5EC1 		divsd	xmm0, xmm1	 # D.77726, D.77726
 3215              	.LBE745:
 3216              	.LBE747:
  44:TestRadixSort.cpp ****     printf("Sorting %d MiB", int(DATASET>>20));
 3217              		.loc 3 44 0
 3218 07e3 F20F5EC7 		divsd	xmm0, xmm7	 # D.77726, tmp854
 3219 07e7 F2440F5E 		divsd	xmm13, xmm0	 # speed, D.77726
 3219      E8
 3220              	.LVL292:
 3221              		.loc 3 45 0
 3222 07ec E8000000 		call	printf	 #
 3222      00
 3223              	.LVL293:
 3224              	.LBB748:
 3225              	.LBB749:
  36:timer.h       ****                                           * 1000.0 / m_freq.QuadPart;
 3226              		.loc 2 36 0
 3227 07f1 488B4424 		mov	rax, QWORD PTR 56[rsp]	 # t.m_stop.QuadPart, t.m_stop.QuadPart
 3227      38
  37:timer.h       ****     }
 3228              		.loc 2 37 0
 3229 07f6 660FEFC0 		pxor	xmm0, xmm0	 # D.77726
 3230 07fa 660FEFD2 		pxor	xmm2, xmm2	 # D.77726
  36:timer.h       ****                                           * 1000.0 / m_freq.QuadPart;
 3231              		.loc 2 36 0
 3232 07fe 482B4424 		sub	rax, QWORD PTR 48[rsp]	 # D.77725, t.m_start.QuadPart
 3232      30
 3233              	.LBE749:
 3234              	.LBE748:
  46:TestRadixSort.cpp ****     printf(": %.3lf milliseconds = %.3lf MB/s = %.3lf MiB/s\n\n", t.Elapsed(), speed/1e6, speed/(1<
 3235              		.loc 3 46 0
 3236 0803 488D0D48 		lea	rcx, .LC9[rip]	 #,
 3236      000000
 3237              	.LBB751:
 3238              	.LBB750:
  36:timer.h       ****                                           * 1000.0 / m_freq.QuadPart;
 3239              		.loc 2 36 0
 3240 080a 482B4424 		sub	rax, QWORD PTR 72[rsp]	 # D.77725, t.m_overhead
 3240      48
  37:timer.h       ****     }
 3241              		.loc 2 37 0
 3242 080f F2480F2A 		cvtsi2sdq	xmm2, QWORD PTR 64[rsp]	 # D.77726, t.m_freq.QuadPart
 3242      542440
 3243 0816 F2480F2A 		cvtsi2sdq	xmm0, rax	 # D.77726, D.77725
 3243      C0
 3244 081b F20F59C7 		mulsd	xmm0, xmm7	 # D.77726, tmp854
 3245 081f F20F5EC2 		divsd	xmm0, xmm2	 # D.77726, D.77726
 3246              	.LBE750:
 3247              	.LBE751:
 3248              		.loc 3 46 0
 3249 0823 66410F28 		movapd	xmm1, xmm13	 # D.77726, speed
 3249      CD
 3250 0828 F2410F59 		mulsd	xmm1, xmm9	 # D.77726, tmp855
 3250      C9
 3251 082d 660F28D9 		movapd	xmm3, xmm1	 #, D.77726
 3252 0831 66490F7E 		movq	r9, xmm1	 #, D.77726
 3252      C9
 3253 0836 F2450F5E 		divsd	xmm13, xmm10	 # D.77726, tmp856
 3253      EA
 3254              	.LVL294:
 3255 083b 660F28C8 		movapd	xmm1, xmm0	 #, D.77726
 3256 083f 66480F7E 		movq	rdx, xmm0	 #, D.77726
 3256      C2
 3257 0844 66410F28 		movapd	xmm2, xmm13	 #, D.77726
 3257      D5
 3258 0849 664D0F7E 		movq	r8, xmm13	 #, D.77726
 3258      E8
 3259 084e E8000000 		call	printf	 #
 3259      00
 3260              	.LVL295:
 3261 0853 4D85F6   		test	r14, r14	 # prolog_loop_niters.271
 3262 0856 0F842C04 		je	.L139	 #,
 3262      0000
 3263 085c 4983FE01 		cmp	r14, 1	 # prolog_loop_niters.271,
 3264              	.LBB752:
  47:TestRadixSort.cpp **** 
  48:TestRadixSort.cpp ****     for (size_t i=0; i<DATASET; i++)
  49:TestRadixSort.cpp ****         keys[i] = i*123456791;
 3265              		.loc 3 49 0
 3266 0860 41C74500 		mov	DWORD PTR 0[r13], 0	 # *keys_15,
 3266      00000000 
 3267              	.LVL296:
 3268 0868 0F842E05 		je	.L140	 #,
 3268      0000
 3269 086e 4983FE03 		cmp	r14, 3	 # prolog_loop_niters.271,
 3270 0872 41C74504 		mov	DWORD PTR 4[r13], 123456791	 # MEM[(unsigned int *)keys_15 + 4B],
 3270      17CD5B07 
 3271              	.LVL297:
 3272 087a 0F852D05 		jne	.L141	 #,
 3272      0000
 3273 0880 41C74508 		mov	DWORD PTR 8[r13], 246913582	 # MEM[(unsigned int *)keys_15 + 8B],
 3273      2E9AB70E 
 3274              	.LVL298:
 3275 0888 41BBFDFF 		mov	r11d, 104857597	 # D.77728,
 3275      3F06
  48:TestRadixSort.cpp ****         keys[i] = i*123456791;
 3276              		.loc 3 48 0
 3277 088e 41B80300 		mov	r8d, 3	 # i,
 3277      0000
 3278              	.LVL299:
 3279              	.L116:
 3280 0894 41B90000 		mov	r9d, 104857600	 # tmp729,
 3280      4006
 3281 089a 41BAFCFF 		mov	r10d, 104857596	 # ratio_mult_vf.198,
 3281      3F06
 3282 08a0 B9FFFF8F 		mov	ecx, 26214399	 # bnd.197,
 3282      01
 3283 08a5 4D29F1   		sub	r9, r14	 # niters.196, prolog_loop_niters.271
 3284              	.L115:
 3285 08a8 498D4001 		lea	rax, 1[r8]	 # stmp_var_.201,
 3286 08ac 66490F6E 		movq	xmm2, r8	 # vect_vec_iv_.204, i
 3286      D0
 3287 08b1 66410F6F 		movdqa	xmm3, xmm12	 # vect_cst_.203, vect_cst_.184
 3287      DC
 3288 08b6 66480F6E 		movq	xmm5, rax	 # stmp_var_.201, stmp_var_.201
 3288      E8
 3289              	.LBE752:
  46:TestRadixSort.cpp ****     printf(": %.3lf milliseconds = %.3lf MB/s = %.3lf MiB/s\n\n", t.Elapsed(), speed/1e6, speed/(1<
 3290              		.loc 3 46 0
 3291 08bb 31D2     		xor	edx, edx	 # ivtmp.296
 3292 08bd 4B8D44B5 		lea	rax, 0[r13+r14*4]	 # ivtmp.297,
 3292      00
 3293 08c2 660F6CD5 		punpcklqdq	xmm2, xmm5	 # vect_vec_iv_.204, stmp_var_.201
 3294 08c6 662E0F1F 		.p2align 4,,10
 3294      84000000 
 3294      0000
 3295              	.L117:
 3296 08d0 660F6FC2 		movdqa	xmm0, xmm2	 # vect_vec_iv_.204, vect_vec_iv_.204
 3297              	.LBB753:
 3298              		.loc 3 49 0 discriminator 3
 3299 08d4 660F6FE2 		movdqa	xmm4, xmm2	 # vect__81.206, vect_vec_iv_.204
 3300 08d8 4883C201 		add	rdx, 1	 # ivtmp.296,
 3301 08dc 66410FD4 		paddq	xmm0, xmm11	 # vect_vec_iv_.204, tmp858
 3301      C3
 3302 08e1 4883C010 		add	rax, 16	 # ivtmp.297,
 3303 08e5 660FD4D3 		paddq	xmm2, xmm3	 # vect_vec_iv_.204, vect_cst_.203
 3304 08e9 0FC6E088 		shufps	xmm4, xmm0, 136	 # vect__81.206, vect_vec_iv_.204,
 3305 08ed 660F6FC4 		movdqa	xmm0, xmm4	 # vect__81.206, vect__81.206
 3306 08f1 660F6FCC 		movdqa	xmm1, xmm4	 # tmp739, vect__81.206
 3307 08f5 660F73D0 		psrlq	xmm0, 32	 # tmp743,
 3307      20
 3308 08fa 660FF4CE 		pmuludq	xmm1, xmm6	 # tmp739, tmp859
 3309 08fe 660FF4C6 		pmuludq	xmm0, xmm6	 # tmp740, tmp859
 3310 0902 660F70C9 		pshufd	xmm1, xmm1, 8	 # tmp737, tmp739,
 3310      08
 3311 0907 660F70C0 		pshufd	xmm0, xmm0, 8	 # tmp738, tmp740,
 3311      08
 3312 090c 660F62C8 		punpckldq	xmm1, xmm0	 # vect__82.207, tmp738
 3313 0910 0F2948F0 		movaps	XMMWORD PTR -16[rax], xmm1	 # MEM[base: _641, offset: 0B], vect__82.207
 3314 0914 4839CA   		cmp	rdx, rcx	 # ivtmp.296, bnd.197
 3315 0917 72B7     		jb	.L117	 #,
 3316 0919 4B8D0410 		lea	rax, [r8+r10]	 # i,
 3317 091d 4C89DA   		mov	rdx, r11	 # D.77728, D.77728
 3318 0920 4C29D2   		sub	rdx, r10	 # D.77728, ratio_mult_vf.198
 3319 0923 4D39D1   		cmp	r9, r10	 # niters.196, ratio_mult_vf.198
 3320 0926 7436     		je	.L119	 #,
 3321              	.LVL300:
 3322              		.loc 3 49 0 is_stmt 0
 3323 0928 69C817CD 		imul	ecx, eax, 123456791	 # D.77723, i,
 3323      5B07
  48:TestRadixSort.cpp ****         keys[i] = i*123456791;
 3324              		.loc 3 48 0 is_stmt 1
 3325 092e 4883FA01 		cmp	rdx, 1	 # D.77728,
 3326              		.loc 3 49 0
 3327 0932 41894C85 		mov	DWORD PTR 0[r13+rax*4], ecx	 # *_27, D.77723
 3327      00
  48:TestRadixSort.cpp ****         keys[i] = i*123456791;
 3328              		.loc 3 48 0
 3329 0937 488D4801 		lea	rcx, 1[rax]	 # i,
 3330              	.LVL301:
 3331 093b 7421     		je	.L119	 #,
 3332              		.loc 3 49 0
 3333 093d 4469C117 		imul	r8d, ecx, 123456791	 # D.77723, i,
 3333      CD5B07
  48:TestRadixSort.cpp ****         keys[i] = i*123456791;
 3334              		.loc 3 48 0
 3335 0944 4883C002 		add	rax, 2	 # i,
 3336 0948 4883FA02 		cmp	rdx, 2	 # D.77728,
 3337              		.loc 3 49 0
 3338 094c 4589448D 		mov	DWORD PTR 0[r13+rcx*4], r8d	 # *_55, D.77723
 3338      00
 3339              	.LVL302:
  48:TestRadixSort.cpp ****         keys[i] = i*123456791;
 3340              		.loc 3 48 0
 3341 0951 740B     		je	.L119	 #,
 3342              		.loc 3 49 0
 3343 0953 69D017CD 		imul	edx, eax, 123456791	 # D.77723, i,
 3343      5B07
 3344 0959 41895485 		mov	DWORD PTR 0[r13+rax*4], edx	 # *_361, D.77723
 3344      00
 3345              	.L119:
 3346              	.LVL303:
 3347              	.LBE753:
 3348              	.LBB754:
 3349              	.LBB755:
  25:timer.h       ****     }
 3350              		.loc 2 25 0
 3351 095e 4889D9   		mov	rcx, rbx	 #, tmp862
 3352              	.LBE755:
 3353              	.LBE754:
  50:TestRadixSort.cpp ****     t.Start();
  51:TestRadixSort.cpp ****     RadixSortPass<Key,Data,0,16> (keys, data, outkeys, outdata, DATASET);
  52:TestRadixSort.cpp ****     t.Stop();  speed = DATASET/(t.Elapsed()/1000);
 3354              		.loc 3 52 0
 3355 0961 66450F28 		movapd	xmm13, xmm8	 # speed, tmp860
 3355      E8
 3356              	.LBB757:
 3357              	.LBB756:
  25:timer.h       ****     }
 3358              		.loc 2 25 0
 3359 0966 FFD6     		call	rsi	 # tmp861
 3360              	.LVL304:
 3361              	.LBE756:
 3362              	.LBE757:
  51:TestRadixSort.cpp ****     t.Stop();  speed = DATASET/(t.Elapsed()/1000);
 3363              		.loc 3 51 0
 3364 0968 4D89E1   		mov	r9, r12	 #, outdata
 3365 096b 4989E8   		mov	r8, rbp	 #, outkeys
 3366 096e 4889FA   		mov	rdx, rdi	 #, data
 3367 0971 48C74424 		mov	QWORD PTR 32[rsp], 104857600	 #,
 3367      20000040 
 3367      06
 3368 097a 4C89E9   		mov	rcx, r13	 #, keys
 3369 097d E8000000 		call	_Z13RadixSortPassIjjLi0ELi16EEvPKT_PKT0_PS0_PS3_y	 #
 3369      00
 3370              	.LVL305:
 3371              	.LBB758:
 3372              	.LBB759:
  30:timer.h       ****     }
 3373              		.loc 2 30 0
 3374 0982 488D4B08 		lea	rcx, 8[rbx]	 # tmp751,
 3375 0986 FFD6     		call	rsi	 # tmp861
 3376              	.LVL306:
 3377              	.LBE759:
 3378              	.LBE758:
 3379              	.LBB760:
 3380              	.LBB761:
  36:timer.h       ****                                           * 1000.0 / m_freq.QuadPart;
 3381              		.loc 2 36 0
 3382 0988 488B4424 		mov	rax, QWORD PTR 56[rsp]	 # t.m_stop.QuadPart, t.m_stop.QuadPart
 3382      38
  37:timer.h       ****     }
 3383              		.loc 2 37 0
 3384 098d 660FEFC0 		pxor	xmm0, xmm0	 # D.77726
 3385 0991 660FEFC9 		pxor	xmm1, xmm1	 # D.77726
  36:timer.h       ****                                           * 1000.0 / m_freq.QuadPart;
 3386              		.loc 2 36 0
 3387 0995 482B4424 		sub	rax, QWORD PTR 48[rsp]	 # D.77725, t.m_start.QuadPart
 3387      30
 3388              	.LBE761:
 3389              	.LBE760:
  53:TestRadixSort.cpp ****     printf("Sorting %d MiB", int(DATASET>>20));
 3390              		.loc 3 53 0
 3391 099a BA640000 		mov	edx, 100	 #,
 3391      00
 3392              	.LBB764:
 3393              	.LBB762:
  36:timer.h       ****                                           * 1000.0 / m_freq.QuadPart;
 3394              		.loc 2 36 0
 3395 099f 482B4424 		sub	rax, QWORD PTR 72[rsp]	 # D.77725, t.m_overhead
 3395      48
  37:timer.h       ****     }
 3396              		.loc 2 37 0
 3397 09a4 F2480F2A 		cvtsi2sdq	xmm1, QWORD PTR 64[rsp]	 # D.77726, t.m_freq.QuadPart
 3397      4C2440
 3398              	.LBE762:
 3399              	.LBE764:
 3400              		.loc 3 53 0
 3401 09ab 488D0D39 		lea	rcx, .LC8[rip]	 #,
 3401      000000
 3402              	.LBB765:
 3403              	.LBB763:
  37:timer.h       ****     }
 3404              		.loc 2 37 0
 3405 09b2 F2480F2A 		cvtsi2sdq	xmm0, rax	 # D.77726, D.77725
 3405      C0
 3406 09b7 F20F59C7 		mulsd	xmm0, xmm7	 # D.77726, tmp854
 3407 09bb F20F5EC1 		divsd	xmm0, xmm1	 # D.77726, D.77726
 3408              	.LBE763:
 3409              	.LBE765:
  52:TestRadixSort.cpp ****     printf("Sorting %d MiB", int(DATASET>>20));
 3410              		.loc 3 52 0
 3411 09bf F20F5EC7 		divsd	xmm0, xmm7	 # D.77726, tmp854
 3412 09c3 F2440F5E 		divsd	xmm13, xmm0	 # speed, D.77726
 3412      E8
 3413              	.LVL307:
 3414              		.loc 3 53 0
 3415 09c8 E8000000 		call	printf	 #
 3415      00
 3416              	.LVL308:
 3417              	.LBB766:
 3418              	.LBB767:
  36:timer.h       ****                                           * 1000.0 / m_freq.QuadPart;
 3419              		.loc 2 36 0
 3420 09cd 488B4424 		mov	rax, QWORD PTR 56[rsp]	 # t.m_stop.QuadPart, t.m_stop.QuadPart
 3420      38
  37:timer.h       ****     }
 3421              		.loc 2 37 0
 3422 09d2 660FEFC0 		pxor	xmm0, xmm0	 # D.77726
 3423 09d6 660FEFD2 		pxor	xmm2, xmm2	 # D.77726
  36:timer.h       ****                                           * 1000.0 / m_freq.QuadPart;
 3424              		.loc 2 36 0
 3425 09da 482B4424 		sub	rax, QWORD PTR 48[rsp]	 # D.77725, t.m_start.QuadPart
 3425      30
 3426              	.LBE767:
 3427              	.LBE766:
  54:TestRadixSort.cpp ****     printf(": %.3lf milliseconds = %.3lf MB/s = %.3lf MiB/s\n\n", t.Elapsed(), speed/1e6, speed/(1<
 3428              		.loc 3 54 0
 3429 09df 488D0D48 		lea	rcx, .LC9[rip]	 #,
 3429      000000
 3430              	.LBB769:
 3431              	.LBB768:
  36:timer.h       ****                                           * 1000.0 / m_freq.QuadPart;
 3432              		.loc 2 36 0
 3433 09e6 482B4424 		sub	rax, QWORD PTR 72[rsp]	 # D.77725, t.m_overhead
 3433      48
  37:timer.h       ****     }
 3434              		.loc 2 37 0
 3435 09eb F2480F2A 		cvtsi2sdq	xmm2, QWORD PTR 64[rsp]	 # D.77726, t.m_freq.QuadPart
 3435      542440
 3436 09f2 F2480F2A 		cvtsi2sdq	xmm0, rax	 # D.77726, D.77725
 3436      C0
 3437 09f7 F20F59C7 		mulsd	xmm0, xmm7	 # D.77726, tmp854
 3438 09fb F20F5EC2 		divsd	xmm0, xmm2	 # D.77726, D.77726
 3439              	.LBE768:
 3440              	.LBE769:
 3441              		.loc 3 54 0
 3442 09ff 66410F28 		movapd	xmm1, xmm13	 # D.77726, speed
 3442      CD
 3443 0a04 F2410F59 		mulsd	xmm1, xmm9	 # D.77726, tmp855
 3443      C9
 3444 0a09 660F28D9 		movapd	xmm3, xmm1	 #, D.77726
 3445 0a0d 66490F7E 		movq	r9, xmm1	 #, D.77726
 3445      C9
 3446 0a12 F2450F5E 		divsd	xmm13, xmm10	 # D.77726, tmp856
 3446      EA
 3447              	.LVL309:
 3448 0a17 660F28C8 		movapd	xmm1, xmm0	 #, D.77726
 3449 0a1b 66480F7E 		movq	rdx, xmm0	 #, D.77726
 3449      C2
 3450 0a20 66410F28 		movapd	xmm2, xmm13	 #, D.77726
 3450      D5
 3451 0a25 664D0F7E 		movq	r8, xmm13	 #, D.77726
 3451      E8
 3452 0a2a E8000000 		call	printf	 #
 3452      00
 3453              	.LVL310:
 3454 0a2f 4D85F6   		test	r14, r14	 # prolog_loop_niters.271
 3455 0a32 0F843302 		je	.L142	 #,
 3455      0000
 3456 0a38 4983FE01 		cmp	r14, 1	 # prolog_loop_niters.271,
 3457              	.LBB770:
  55:TestRadixSort.cpp **** 
  56:TestRadixSort.cpp ****     for (size_t i=0; i<DATASET; i++)
  57:TestRadixSort.cpp ****         keys[i] = i*123456791;
 3458              		.loc 3 57 0
 3459 0a3c 41C74500 		mov	DWORD PTR 0[r13], 0	 # *keys_15,
 3459      00000000 
 3460              	.LVL311:
 3461 0a44 0F847403 		je	.L143	 #,
 3461      0000
 3462 0a4a 4983FE03 		cmp	r14, 3	 # prolog_loop_niters.271,
 3463 0a4e 41C74504 		mov	DWORD PTR 4[r13], 123456791	 # MEM[(unsigned int *)keys_15 + 4B],
 3463      17CD5B07 
 3464              	.LVL312:
 3465 0a56 0F85A802 		jne	.L144	 #,
 3465      0000
 3466 0a5c 41C74508 		mov	DWORD PTR 8[r13], 246913582	 # MEM[(unsigned int *)keys_15 + 8B],
 3466      2E9AB70E 
 3467              	.LVL313:
 3468 0a64 41B9FDFF 		mov	r9d, 104857597	 # D.77728,
 3468      3F06
  56:TestRadixSort.cpp ****         keys[i] = i*123456791;
 3469              		.loc 3 56 0
 3470 0a6a BA030000 		mov	edx, 3	 # i,
 3470      00
 3471              	.LVL314:
 3472              	.L122:
 3473 0a6f B9000040 		mov	ecx, 104857600	 # tmp791,
 3473      06
 3474 0a74 B8FFFF8F 		mov	eax, 26214399	 # bnd.178,
 3474      01
 3475 0a79 41B8FCFF 		mov	r8d, 104857596	 # ratio_mult_vf.179,
 3475      3F06
 3476 0a7f 4C29F1   		sub	rcx, r14	 # niters.177, prolog_loop_niters.271
 3477              	.L121:
 3478 0a82 4C8D5201 		lea	r10, 1[rdx]	 # stmp_var_.182,
 3479 0a86 66480F6E 		movq	xmm2, rdx	 # vect_vec_iv_.185, i
 3479      D2
 3480 0a8b 4F8D5CB5 		lea	r11, 0[r13+r14*4]	 # ivtmp.291,
 3480      00
 3481 0a90 66490F6E 		movq	xmm5, r10	 # stmp_var_.182, stmp_var_.182
 3481      EA
 3482              	.LBE770:
  54:TestRadixSort.cpp ****     printf(": %.3lf milliseconds = %.3lf MB/s = %.3lf MiB/s\n\n", t.Elapsed(), speed/1e6, speed/(1<
 3483              		.loc 3 54 0
 3484 0a95 4531D2   		xor	r10d, r10d	 # ivtmp.290
 3485 0a98 660F6CD5 		punpcklqdq	xmm2, xmm5	 # vect_vec_iv_.185, stmp_var_.182
 3486 0a9c 0F1F4000 		.p2align 4,,10
 3487              	.L123:
 3488 0aa0 660F6FC2 		movdqa	xmm0, xmm2	 # vect_vec_iv_.185, vect_vec_iv_.185
 3489              	.LBB771:
 3490              		.loc 3 57 0 discriminator 3
 3491 0aa4 660F6FDA 		movdqa	xmm3, xmm2	 # vect__95.187, vect_vec_iv_.185
 3492 0aa8 4983C201 		add	r10, 1	 # ivtmp.290,
 3493 0aac 66410FD4 		paddq	xmm0, xmm11	 # vect_vec_iv_.185, tmp858
 3493      C3
 3494 0ab1 4983C310 		add	r11, 16	 # ivtmp.291,
 3495 0ab5 66410FD4 		paddq	xmm2, xmm12	 # vect_vec_iv_.185, vect_cst_.184
 3495      D4
 3496 0aba 0FC6D888 		shufps	xmm3, xmm0, 136	 # vect__95.187, vect_vec_iv_.185,
 3497 0abe 660F6FC3 		movdqa	xmm0, xmm3	 # vect__95.187, vect__95.187
 3498 0ac2 660F6FCB 		movdqa	xmm1, xmm3	 # tmp801, vect__95.187
 3499 0ac6 660F73D0 		psrlq	xmm0, 32	 # tmp805,
 3499      20
 3500 0acb 660FF4CE 		pmuludq	xmm1, xmm6	 # tmp801, tmp859
 3501 0acf 660FF4C6 		pmuludq	xmm0, xmm6	 # tmp802, tmp859
 3502 0ad3 660F70C9 		pshufd	xmm1, xmm1, 8	 # tmp799, tmp801,
 3502      08
 3503 0ad8 660F70C0 		pshufd	xmm0, xmm0, 8	 # tmp800, tmp802,
 3503      08
 3504 0add 660F62C8 		punpckldq	xmm1, xmm0	 # vect__96.188, tmp800
 3505 0ae1 410F294B 		movaps	XMMWORD PTR -16[r11], xmm1	 # MEM[base: _255, offset: 0B], vect__96.188
 3505      F0
 3506 0ae6 4C39D0   		cmp	rax, r10	 # bnd.178, ivtmp.290
 3507 0ae9 77B5     		ja	.L123	 #,
 3508 0aeb 4A8D0402 		lea	rax, [rdx+r8]	 # i,
 3509 0aef 4C89CA   		mov	rdx, r9	 # D.77728, D.77728
 3510 0af2 4C29C2   		sub	rdx, r8	 # D.77728, ratio_mult_vf.179
 3511 0af5 4939C8   		cmp	r8, rcx	 # ratio_mult_vf.179, niters.177
 3512 0af8 7436     		je	.L125	 #,
 3513              	.LVL315:
 3514              		.loc 3 57 0 is_stmt 0
 3515 0afa 69C817CD 		imul	ecx, eax, 123456791	 # D.77723, i,
 3515      5B07
  56:TestRadixSort.cpp ****         keys[i] = i*123456791;
 3516              		.loc 3 56 0 is_stmt 1
 3517 0b00 4883FA01 		cmp	rdx, 1	 # D.77728,
 3518              		.loc 3 57 0
 3519 0b04 41894C85 		mov	DWORD PTR 0[r13+rax*4], ecx	 # *_287, D.77723
 3519      00
  56:TestRadixSort.cpp ****         keys[i] = i*123456791;
 3520              		.loc 3 56 0
 3521 0b09 488D4801 		lea	rcx, 1[rax]	 # i,
 3522              	.LVL316:
 3523 0b0d 7421     		je	.L125	 #,
 3524              		.loc 3 57 0
 3525 0b0f 4469C117 		imul	r8d, ecx, 123456791	 # D.77723, i,
 3525      CD5B07
  56:TestRadixSort.cpp ****         keys[i] = i*123456791;
 3526              		.loc 3 56 0
 3527 0b16 4883C002 		add	rax, 2	 # i,
 3528 0b1a 4883FA02 		cmp	rdx, 2	 # D.77728,
 3529              		.loc 3 57 0
 3530 0b1e 4589448D 		mov	DWORD PTR 0[r13+rcx*4], r8d	 # *_349, D.77723
 3530      00
 3531              	.LVL317:
  56:TestRadixSort.cpp ****         keys[i] = i*123456791;
 3532              		.loc 3 56 0
 3533 0b23 740B     		je	.L125	 #,
 3534              		.loc 3 57 0
 3535 0b25 69D017CD 		imul	edx, eax, 123456791	 # D.77723, i,
 3535      5B07
 3536 0b2b 41895485 		mov	DWORD PTR 0[r13+rax*4], edx	 # *_288, D.77723
 3536      00
 3537              	.L125:
 3538              	.LVL318:
 3539              	.LBE771:
 3540              	.LBB772:
 3541              	.LBB773:
  25:timer.h       ****     }
 3542              		.loc 2 25 0
 3543 0b30 4889D9   		mov	rcx, rbx	 #, tmp862
 3544 0b33 FFD6     		call	rsi	 # tmp861
 3545              	.LVL319:
 3546              	.LBE773:
 3547              	.LBE772:
  58:TestRadixSort.cpp ****     t.Start();
  59:TestRadixSort.cpp ****     RadixSortPass<Key,Data,0,20> (keys, data, outkeys, outdata, DATASET);
 3548              		.loc 3 59 0
 3549 0b35 4D89E1   		mov	r9, r12	 #, outdata
 3550 0b38 4989E8   		mov	r8, rbp	 #, outkeys
 3551 0b3b 4889FA   		mov	rdx, rdi	 #, data
 3552 0b3e 48C74424 		mov	QWORD PTR 32[rsp], 104857600	 #,
 3552      20000040 
 3552      06
 3553 0b47 4C89E9   		mov	rcx, r13	 #, keys
 3554 0b4a E8000000 		call	_Z13RadixSortPassIjjLi0ELi20EEvPKT_PKT0_PS0_PS3_y	 #
 3554      00
 3555              	.LVL320:
 3556              	.LBB774:
 3557              	.LBB775:
  30:timer.h       ****     }
 3558              		.loc 2 30 0
 3559 0b4f 488D4B08 		lea	rcx, 8[rbx]	 # tmp813,
 3560 0b53 FFD6     		call	rsi	 # tmp861
 3561              	.LVL321:
 3562              	.LBE775:
 3563              	.LBE774:
 3564              	.LBB776:
 3565              	.LBB777:
  36:timer.h       ****                                           * 1000.0 / m_freq.QuadPart;
 3566              		.loc 2 36 0
 3567 0b55 488B4424 		mov	rax, QWORD PTR 56[rsp]	 # t.m_stop.QuadPart, t.m_stop.QuadPart
 3567      38
  37:timer.h       ****     }
 3568              		.loc 2 37 0
 3569 0b5a 660FEFC0 		pxor	xmm0, xmm0	 # D.77726
 3570 0b5e 660FEFC9 		pxor	xmm1, xmm1	 # D.77726
  36:timer.h       ****                                           * 1000.0 / m_freq.QuadPart;
 3571              		.loc 2 36 0
 3572 0b62 482B4424 		sub	rax, QWORD PTR 48[rsp]	 # D.77725, t.m_start.QuadPart
 3572      30
 3573              	.LBE777:
 3574              	.LBE776:
  60:TestRadixSort.cpp ****     t.Stop();  speed = DATASET/(t.Elapsed()/1000);
  61:TestRadixSort.cpp ****     printf("Sorting %d MiB", int(DATASET>>20));
 3575              		.loc 3 61 0
 3576 0b67 BA640000 		mov	edx, 100	 #,
 3576      00
 3577              	.LBB780:
 3578              	.LBB778:
  36:timer.h       ****                                           * 1000.0 / m_freq.QuadPart;
 3579              		.loc 2 36 0
 3580 0b6c 482B4424 		sub	rax, QWORD PTR 72[rsp]	 # D.77725, t.m_overhead
 3580      48
  37:timer.h       ****     }
 3581              		.loc 2 37 0
 3582 0b71 F2480F2A 		cvtsi2sdq	xmm1, QWORD PTR 64[rsp]	 # D.77726, t.m_freq.QuadPart
 3582      4C2440
 3583              	.LBE778:
 3584              	.LBE780:
 3585              		.loc 3 61 0
 3586 0b78 488D0D39 		lea	rcx, .LC8[rip]	 #,
 3586      000000
 3587              	.LBB781:
 3588              	.LBB779:
  37:timer.h       ****     }
 3589              		.loc 2 37 0
 3590 0b7f F2480F2A 		cvtsi2sdq	xmm0, rax	 # D.77726, D.77725
 3590      C0
 3591 0b84 F20F59C7 		mulsd	xmm0, xmm7	 # D.77726, tmp854
 3592 0b88 F20F5EC1 		divsd	xmm0, xmm1	 # D.77726, D.77726
 3593              	.LBE779:
 3594              	.LBE781:
  60:TestRadixSort.cpp ****     t.Stop();  speed = DATASET/(t.Elapsed()/1000);
 3595              		.loc 3 60 0
 3596 0b8c F20F5EC7 		divsd	xmm0, xmm7	 # D.77726, tmp854
 3597 0b90 F2440F5E 		divsd	xmm8, xmm0	 # speed, D.77726
 3597      C0
 3598              	.LVL322:
 3599              		.loc 3 61 0
 3600 0b95 E8000000 		call	printf	 #
 3600      00
 3601              	.LVL323:
 3602              	.LBB782:
 3603              	.LBB783:
  36:timer.h       ****                                           * 1000.0 / m_freq.QuadPart;
 3604              		.loc 2 36 0
 3605 0b9a 488B4424 		mov	rax, QWORD PTR 56[rsp]	 # t.m_stop.QuadPart, t.m_stop.QuadPart
 3605      38
  37:timer.h       ****     }
 3606              		.loc 2 37 0
 3607 0b9f 660FEFC0 		pxor	xmm0, xmm0	 # D.77726
 3608              	.LBE783:
 3609              	.LBE782:
  62:TestRadixSort.cpp ****     printf(": %.3lf milliseconds = %.3lf MB/s = %.3lf MiB/s\n\n", t.Elapsed(), speed/1e6, speed/(1<
 3610              		.loc 3 62 0
 3611 0ba3 488D0D48 		lea	rcx, .LC9[rip]	 #,
 3611      000000
 3612              	.LBB785:
 3613              	.LBB784:
  36:timer.h       ****                                           * 1000.0 / m_freq.QuadPart;
 3614              		.loc 2 36 0
 3615 0baa 482B4424 		sub	rax, QWORD PTR 48[rsp]	 # D.77725, t.m_start.QuadPart
 3615      30
 3616 0baf 482B4424 		sub	rax, QWORD PTR 72[rsp]	 # D.77725, t.m_overhead
 3616      48
  37:timer.h       ****     }
 3617              		.loc 2 37 0
 3618 0bb4 F2480F2A 		cvtsi2sdq	xmm0, rax	 # D.77726, D.77725
 3618      C0
 3619 0bb9 F20F59F8 		mulsd	xmm7, xmm0	 # D.77726, D.77726
 3620 0bbd 660FEFC0 		pxor	xmm0, xmm0	 # D.77726
 3621 0bc1 F2480F2A 		cvtsi2sdq	xmm0, QWORD PTR 64[rsp]	 # D.77726, t.m_freq.QuadPart
 3621      442440
 3622 0bc8 F20F5EF8 		divsd	xmm7, xmm0	 # D.77726, D.77726
 3623              	.LBE784:
 3624              	.LBE785:
 3625              		.loc 3 62 0
 3626 0bcc F2450F59 		mulsd	xmm9, xmm8	 # D.77726, speed
 3626      C8
 3627 0bd1 66410F28 		movapd	xmm3, xmm9	 #, D.77726
 3627      D9
 3628 0bd6 664D0F7E 		movq	r9, xmm9	 #, D.77726
 3628      C9
 3629 0bdb F2450F5E 		divsd	xmm8, xmm10	 # D.77726, tmp856
 3629      C2
 3630              	.LVL324:
 3631 0be0 660F28CF 		movapd	xmm1, xmm7	 #, D.77726
 3632 0be4 66480F7E 		movq	rdx, xmm7	 #, D.77726
 3632      FA
 3633 0be9 66410F28 		movapd	xmm2, xmm8	 #, D.77726
 3633      D0
 3634 0bee 664D0F7E 		movq	r8, xmm8	 #, D.77726
 3634      C0
 3635 0bf3 E8000000 		call	printf	 #
 3635      00
 3636 0bf8 90       		nop
 3637              	.LVL325:
 3638              	.LBE660:
  63:TestRadixSort.cpp **** 
  64:TestRadixSort.cpp ****     return 0;
  65:TestRadixSort.cpp **** }
 3639              		.loc 3 65 0
 3640 0bf9 0F287424 		movaps	xmm6, XMMWORD PTR 80[rsp]	 #,
 3640      50
 3641 0bfe 31C0     		xor	eax, eax	 #
 3642 0c00 0F287C24 		movaps	xmm7, XMMWORD PTR 96[rsp]	 #,
 3642      60
 3643 0c05 440F2844 		movaps	xmm8, XMMWORD PTR 112[rsp]	 #,
 3643      2470
 3644 0c0b 440F288C 		movaps	xmm9, XMMWORD PTR 128[rsp]	 #,
 3644      24800000 
 3644      00
 3645 0c14 440F2894 		movaps	xmm10, XMMWORD PTR 144[rsp]	 #,
 3645      24900000 
 3645      00
 3646 0c1d 440F289C 		movaps	xmm11, XMMWORD PTR 160[rsp]	 #,
 3646      24A00000 
 3646      00
 3647 0c26 440F28A4 		movaps	xmm12, XMMWORD PTR 176[rsp]	 #,
 3647      24B00000 
 3647      00
 3648 0c2f 440F28AC 		movaps	xmm13, XMMWORD PTR 192[rsp]	 #,
 3648      24C00000 
 3648      00
 3649 0c38 4881C4D8 		add	rsp, 216	 #,
 3649      000000
 3650              		.cfi_remember_state
 3651              		.cfi_restore 30
 3652              		.cfi_restore 29
 3653              		.cfi_restore 28
 3654              		.cfi_restore 27
 3655              		.cfi_restore 26
 3656              		.cfi_restore 25
 3657              		.cfi_restore 24
 3658              		.cfi_restore 23
 3659              		.cfi_def_cfa_offset 72
 3660 0c3f 5B       		pop	rbx	 #
 3661              		.cfi_restore 3
 3662              		.cfi_def_cfa_offset 64
 3663              	.LVL326:
 3664 0c40 5E       		pop	rsi	 #
 3665              		.cfi_restore 4
 3666              		.cfi_def_cfa_offset 56
 3667 0c41 5F       		pop	rdi	 #
 3668              		.cfi_restore 5
 3669              		.cfi_def_cfa_offset 48
 3670              	.LVL327:
 3671 0c42 5D       		pop	rbp	 #
 3672              		.cfi_restore 6
 3673              		.cfi_def_cfa_offset 40
 3674              	.LVL328:
 3675 0c43 415C     		pop	r12	 #
 3676              		.cfi_restore 12
 3677              		.cfi_def_cfa_offset 32
 3678              	.LVL329:
 3679 0c45 415D     		pop	r13	 #
 3680              		.cfi_restore 13
 3681              		.cfi_def_cfa_offset 24
 3682              	.LVL330:
 3683 0c47 415E     		pop	r14	 #
 3684              		.cfi_restore 14
 3685              		.cfi_def_cfa_offset 16
 3686 0c49 415F     		pop	r15	 #
 3687              		.cfi_restore 15
 3688              		.cfi_def_cfa_offset 8
 3689 0c4b C3       		ret
 3690              	.LVL331:
 3691              	.L127:
 3692              		.cfi_restore_state
 3693              	.LBB794:
 3694              	.LBB786:
 3695              	.LBB672:
  46:timer.h       ****     }
 3696              		.loc 2 46 0
 3697 0c4c 41BB0000 		mov	r11d, 104857600	 # ratio_mult_vf.274,
 3697      4006
 3698 0c52 B9000090 		mov	ecx, 26214400	 # bnd.273,
 3698      01
 3699 0c57 41B90000 		mov	r9d, 104857600	 # niters.272,
 3699      4006
 3700 0c5d 41B80000 		mov	r8d, 104857600	 # D.77728,
 3700      4006
 3701 0c63 4531FF   		xor	r15d, r15d	 # i
 3702 0c66 E9B2F4FF 		jmp	.L91	 #
 3702      FF
 3703              	.LVL332:
 3704              	.L142:
 3705              	.LBE672:
 3706              	.LBE786:
  54:TestRadixSort.cpp **** 
 3707              		.loc 3 54 0
 3708 0c6b 31D2     		xor	edx, edx	 # i
 3709 0c6d 41B90000 		mov	r9d, 104857600	 # D.77728,
 3709      4006
 3710 0c73 B9000040 		mov	ecx, 104857600	 # niters.177,
 3710      06
 3711 0c78 B8000090 		mov	eax, 26214400	 # bnd.178,
 3711      01
 3712 0c7d 41B80000 		mov	r8d, 104857600	 # ratio_mult_vf.179,
 3712      4006
 3713 0c83 E9FAFDFF 		jmp	.L121	 #
 3713      FF
 3714              	.LVL333:
 3715              	.L139:
  46:TestRadixSort.cpp **** 
 3716              		.loc 3 46 0
 3717 0c88 41BA0000 		mov	r10d, 104857600	 # ratio_mult_vf.198,
 3717      4006
 3718 0c8e B9000090 		mov	ecx, 26214400	 # bnd.197,
 3718      01
 3719 0c93 41B90000 		mov	r9d, 104857600	 # niters.196,
 3719      4006
 3720 0c99 41BB0000 		mov	r11d, 104857600	 # D.77728,
 3720      4006
 3721 0c9f 4531C0   		xor	r8d, r8d	 # i
 3722 0ca2 E901FCFF 		jmp	.L115	 #
 3722      FF
 3723              	.LVL334:
 3724              	.L136:
  38:TestRadixSort.cpp **** 
 3725              		.loc 3 38 0
 3726 0ca7 41BA0000 		mov	r10d, 104857600	 # ratio_mult_vf.217,
 3726      4006
 3727 0cad B9000090 		mov	ecx, 26214400	 # bnd.216,
 3727      01
 3728 0cb2 41B90000 		mov	r9d, 104857600	 # niters.215,
 3728      4006
 3729 0cb8 41BB0000 		mov	r11d, 104857600	 # D.77728,
 3729      4006
 3730 0cbe 4531C0   		xor	r8d, r8d	 # i
 3731 0cc1 E910FAFF 		jmp	.L109	 #
 3731      FF
 3732              	.LVL335:
 3733              	.L133:
  30:TestRadixSort.cpp **** 
 3734              		.loc 3 30 0
 3735 0cc6 41BA0000 		mov	r10d, 104857600	 # ratio_mult_vf.236,
 3735      4006
 3736 0ccc B9000090 		mov	ecx, 26214400	 # bnd.235,
 3736      01
 3737 0cd1 41B90000 		mov	r9d, 104857600	 # niters.234,
 3737      4006
 3738 0cd7 41BB0000 		mov	r11d, 104857600	 # D.77728,
 3738      4006
 3739 0cdd 4531C0   		xor	r8d, r8d	 # i
 3740 0ce0 E91FF8FF 		jmp	.L103	 #
 3740      FF
 3741              	.LVL336:
 3742              	.L130:
  22:TestRadixSort.cpp **** 
 3743              		.loc 3 22 0
 3744 0ce5 41BA0000 		mov	r10d, 104857600	 # ratio_mult_vf.255,
 3744      4006
 3745 0ceb B9000090 		mov	ecx, 26214400	 # bnd.254,
 3745      01
 3746 0cf0 41B90000 		mov	r9d, 104857600	 # niters.253,
 3746      4006
 3747 0cf6 41BB0000 		mov	r11d, 104857600	 # D.77728,
 3747      4006
 3748 0cfc 4531C0   		xor	r8d, r8d	 # i
 3749 0cff E924F6FF 		jmp	.L97	 #
 3749      FF
 3750              	.LVL337:
 3751              	.L144:
 3752              	.LBB787:
  57:TestRadixSort.cpp ****     t.Start();
 3753              		.loc 3 57 0
 3754 0d04 41B9FEFF 		mov	r9d, 104857598	 # D.77728,
 3754      3F06
  56:TestRadixSort.cpp ****         keys[i] = i*123456791;
 3755              		.loc 3 56 0
 3756 0d0a BA020000 		mov	edx, 2	 # i,
 3756      00
 3757 0d0f E95BFDFF 		jmp	.L122	 #
 3757      FF
 3758              	.LVL338:
 3759              	.L134:
 3760              	.LBE787:
 3761              	.LBB788:
  33:TestRadixSort.cpp ****     t.Start();
 3762              		.loc 3 33 0
 3763 0d14 41BBFFFF 		mov	r11d, 104857599	 # D.77728,
 3763      3F06
  32:TestRadixSort.cpp ****         keys[i] = i*123456791;
 3764              		.loc 3 32 0
 3765 0d1a 41B80100 		mov	r8d, 1	 # i,
 3765      0000
 3766 0d20 E9CBF7FF 		jmp	.L104	 #
 3766      FF
 3767              	.LVL339:
 3768              	.L135:
  33:TestRadixSort.cpp ****     t.Start();
 3769              		.loc 3 33 0
 3770 0d25 41BBFEFF 		mov	r11d, 104857598	 # D.77728,
 3770      3F06
  32:TestRadixSort.cpp ****         keys[i] = i*123456791;
 3771              		.loc 3 32 0
 3772 0d2b 41B80200 		mov	r8d, 2	 # i,
 3772      0000
 3773 0d31 E9BAF7FF 		jmp	.L104	 #
 3773      FF
 3774              	.LVL340:
 3775              	.L137:
 3776              	.LBE788:
 3777              	.LBB789:
  41:TestRadixSort.cpp ****     t.Start();
 3778              		.loc 3 41 0
 3779 0d36 41BBFFFF 		mov	r11d, 104857599	 # D.77728,
 3779      3F06
  40:TestRadixSort.cpp ****         keys[i] = i*123456791;
 3780              		.loc 3 40 0
 3781 0d3c 41B80100 		mov	r8d, 1	 # i,
 3781      0000
 3782 0d42 E97BF9FF 		jmp	.L110	 #
 3782      FF
 3783              	.LVL341:
 3784              	.L138:
  41:TestRadixSort.cpp ****     t.Start();
 3785              		.loc 3 41 0
 3786 0d47 41BBFEFF 		mov	r11d, 104857598	 # D.77728,
 3786      3F06
  40:TestRadixSort.cpp ****         keys[i] = i*123456791;
 3787              		.loc 3 40 0
 3788 0d4d 41B80200 		mov	r8d, 2	 # i,
 3788      0000
 3789 0d53 E96AF9FF 		jmp	.L110	 #
 3789      FF
 3790              	.LVL342:
 3791              	.L128:
 3792              	.LBE789:
 3793              	.LBB790:
  17:TestRadixSort.cpp ****     t.Start();
 3794              		.loc 3 17 0
 3795 0d58 41B8FFFF 		mov	r8d, 104857599	 # D.77728,
 3795      3F06
  16:TestRadixSort.cpp ****         keys[i] = i*123456791;
 3796              		.loc 3 16 0
 3797 0d5e 41BF0100 		mov	r15d, 1	 # i,
 3797      0000
 3798 0d64 E9A0F3FF 		jmp	.L92	 #
 3798      FF
 3799              	.LVL343:
 3800              	.L129:
  17:TestRadixSort.cpp ****     t.Start();
 3801              		.loc 3 17 0
 3802 0d69 41B8FEFF 		mov	r8d, 104857598	 # D.77728,
 3802      3F06
  16:TestRadixSort.cpp ****         keys[i] = i*123456791;
 3803              		.loc 3 16 0
 3804 0d6f 41BF0200 		mov	r15d, 2	 # i,
 3804      0000
 3805 0d75 E98FF3FF 		jmp	.L92	 #
 3805      FF
 3806              	.LVL344:
 3807              	.L131:
 3808              	.LBE790:
 3809              	.LBB791:
  25:TestRadixSort.cpp ****     t.Start();
 3810              		.loc 3 25 0
 3811 0d7a 41BBFFFF 		mov	r11d, 104857599	 # D.77728,
 3811      3F06
  24:TestRadixSort.cpp ****         keys[i] = i*123456791;
 3812              		.loc 3 24 0
 3813 0d80 41B80100 		mov	r8d, 1	 # i,
 3813      0000
 3814 0d86 E989F5FF 		jmp	.L98	 #
 3814      FF
 3815              	.LVL345:
 3816              	.L132:
  25:TestRadixSort.cpp ****     t.Start();
 3817              		.loc 3 25 0
 3818 0d8b 41BBFEFF 		mov	r11d, 104857598	 # D.77728,
 3818      3F06
  24:TestRadixSort.cpp ****         keys[i] = i*123456791;
 3819              		.loc 3 24 0
 3820 0d91 41B80200 		mov	r8d, 2	 # i,
 3820      0000
 3821 0d97 E978F5FF 		jmp	.L98	 #
 3821      FF
 3822              	.LVL346:
 3823              	.L140:
 3824              	.LBE791:
 3825              	.LBB792:
  49:TestRadixSort.cpp ****     t.Start();
 3826              		.loc 3 49 0
 3827 0d9c 41BBFFFF 		mov	r11d, 104857599	 # D.77728,
 3827      3F06
  48:TestRadixSort.cpp ****         keys[i] = i*123456791;
 3828              		.loc 3 48 0
 3829 0da2 41B80100 		mov	r8d, 1	 # i,
 3829      0000
 3830 0da8 E9E7FAFF 		jmp	.L116	 #
 3830      FF
 3831              	.LVL347:
 3832              	.L141:
  49:TestRadixSort.cpp ****     t.Start();
 3833              		.loc 3 49 0
 3834 0dad 41BBFEFF 		mov	r11d, 104857598	 # D.77728,
 3834      3F06
  48:TestRadixSort.cpp ****         keys[i] = i*123456791;
 3835              		.loc 3 48 0
 3836 0db3 41B80200 		mov	r8d, 2	 # i,
 3836      0000
 3837 0db9 E9D6FAFF 		jmp	.L116	 #
 3837      FF
 3838              	.LVL348:
 3839              	.L143:
 3840              	.LBE792:
 3841              	.LBB793:
  57:TestRadixSort.cpp ****     t.Start();
 3842              		.loc 3 57 0
 3843 0dbe 41B9FFFF 		mov	r9d, 104857599	 # D.77728,
 3843      3F06
  56:TestRadixSort.cpp ****         keys[i] = i*123456791;
 3844              		.loc 3 56 0
 3845 0dc4 BA010000 		mov	edx, 1	 # i,
 3845      00
 3846 0dc9 E9A1FCFF 		jmp	.L122	 #
 3846      FF
 3847              	.LBE793:
 3848              	.LBE794:
 3849              		.cfi_endproc
 3850              	.LFE3006:
 3851              		.seh_endproc
 3852 0dce 9090     		.section .rdata,"dr"
 3853 007a 00000000 		.align 8
 3853      0000
 3854              	.LC0:
 3855 0080 00000000 		.long	0
 3856 0084 00408F40 		.long	1083129856
 3857              		.align 8
 3858              	.LC1:
 3859 0088 00000000 		.long	0
 3860 008c 0000B03E 		.long	1051721728
 3861              		.align 8
 3862              	.LC2:
 3863 0090 00000000 		.long	0
 3864 0094 80842E41 		.long	1093567616
 3865 0098 00000000 		.align 16
 3865      00000000 
 3866              	.LC4:
 3867 00a0 04000000 		.quad	4
 3867      00000000 
 3868 00a8 04000000 		.quad	4
 3868      00000000 
 3869              		.align 16
 3870              	.LC5:
 3871 00b0 02000000 		.quad	2
 3871      00000000 
 3872 00b8 02000000 		.quad	2
 3872      00000000 
 3873              		.align 16
 3874              	.LC6:
 3875 00c0 17CD5B07 		.long	123456791
 3876 00c4 17CD5B07 		.long	123456791
 3877 00c8 17CD5B07 		.long	123456791
 3878 00cc 17CD5B07 		.long	123456791
 3879              		.align 8
 3880              	.LC7:
 3881 00d0 00000000 		.long	0
 3882 00d4 00009941 		.long	1100546048
 3883 00d8 00000000 		.text
 3883      00000000 
 3884              	.Letext0:
 3885              		.file 4 "C:/Base/Compiler/MinGW-4.9.2/mingw32/i686-w64-mingw32/include/crtdefs.h"
 3886              		.file 5 "C:/Base/Compiler/MinGW-4.9.2/mingw32/i686-w64-mingw32/include/stdint.h"
 3887              		.file 6 "C:/Base/Compiler/MinGW-4.9.2/mingw32/i686-w64-mingw32/include/minwindef.h"
 3888              		.file 7 "C:/Base/Compiler/MinGW-4.9.2/mingw32/i686-w64-mingw32/include/winnt.h"
 3889              		.file 8 "C:/Base/Compiler/MinGW-4.9.2/mingw32/i686-w64-mingw32/include/stdio.h"
 3890              		.section	.debug_info,"dr"
 3891              	.Ldebug_info0:
 3892 0000 9B2B0000 		.long	0x2b9b
 3893 0004 0400     		.word	0x4
 3894 0006 00000000 		.secrel32	.Ldebug_abbrev0
 3895 000a 08       		.byte	0x8
 3896 000b 01       		.uleb128 0x1
 3897 000c 474E5520 		.ascii "GNU C++ 4.9.2 -m64 -masm=intel -mtune=core2 -march=nocona -g -O3 -std=c++11\0"
 3897      432B2B20 
 3897      342E392E 
 3897      32202D6D 
 3897      3634202D 
 3898 0058 04       		.byte	0x4
 3899 0059 54657374 		.ascii "TestRadixSort.cpp\0"
 3899      52616469 
 3899      78536F72 
 3899      742E6370 
 3899      7000
 3900 006b 433A5C21 		.ascii "C:\\!FreeArc\\public\\MT-LZ\0"
 3900      46726565 
 3900      4172635C 
 3900      7075626C 
 3900      69635C4D 
 3901 0084 80100000 		.secrel32	.Ldebug_ranges0+0x1080
 3902 0088 00000000 		.quad	0
 3902      00000000 
 3903 0090 00000000 		.secrel32	.Ldebug_line0
 3904 0094 02       		.uleb128 0x2
 3905 0095 01       		.byte	0x1
 3906 0096 06       		.byte	0x6
 3907 0097 63686172 		.ascii "char\0"
 3907      00
 3908 009c 03       		.uleb128 0x3
 3909 009d 73697A65 		.ascii "size_t\0"
 3909      5F7400
 3910 00a4 04       		.byte	0x4
 3911 00a5 23       		.byte	0x23
 3912 00a6 AA000000 		.long	0xaa
 3913 00aa 02       		.uleb128 0x2
 3914 00ab 08       		.byte	0x8
 3915 00ac 07       		.byte	0x7
 3916 00ad 6C6F6E67 		.ascii "long long unsigned int\0"
 3916      206C6F6E 
 3916      6720756E 
 3916      7369676E 
 3916      65642069 
 3917 00c4 02       		.uleb128 0x2
 3918 00c5 08       		.byte	0x8
 3919 00c6 05       		.byte	0x5
 3920 00c7 6C6F6E67 		.ascii "long long int\0"
 3920      206C6F6E 
 3920      6720696E 
 3920      7400
 3921 00d5 02       		.uleb128 0x2
 3922 00d6 02       		.byte	0x2
 3923 00d7 07       		.byte	0x7
 3924 00d8 73686F72 		.ascii "short unsigned int\0"
 3924      7420756E 
 3924      7369676E 
 3924      65642069 
 3924      6E7400
 3925 00eb 02       		.uleb128 0x2
 3926 00ec 04       		.byte	0x4
 3927 00ed 05       		.byte	0x5
 3928 00ee 696E7400 		.ascii "int\0"
 3929 00f2 02       		.uleb128 0x2
 3930 00f3 04       		.byte	0x4
 3931 00f4 05       		.byte	0x5
 3932 00f5 6C6F6E67 		.ascii "long int\0"
 3932      20696E74 
 3932      00
 3933 00fe 02       		.uleb128 0x2
 3934 00ff 02       		.byte	0x2
 3935 0100 07       		.byte	0x7
 3936 0101 77636861 		.ascii "wchar_t\0"
 3936      725F7400 
 3937 0109 02       		.uleb128 0x2
 3938 010a 04       		.byte	0x4
 3939 010b 07       		.byte	0x7
 3940 010c 756E7369 		.ascii "unsigned int\0"
 3940      676E6564 
 3940      20696E74 
 3940      00
 3941 0119 02       		.uleb128 0x2
 3942 011a 08       		.byte	0x8
 3943 011b 07       		.byte	0x7
 3944 011c 73697A65 		.ascii "sizetype\0"
 3944      74797065 
 3944      00
 3945 0125 02       		.uleb128 0x2
 3946 0126 04       		.byte	0x4
 3947 0127 07       		.byte	0x7
 3948 0128 6C6F6E67 		.ascii "long unsigned int\0"
 3948      20756E73 
 3948      69676E65 
 3948      6420696E 
 3948      7400
 3949 013a 02       		.uleb128 0x2
 3950 013b 01       		.byte	0x1
 3951 013c 08       		.byte	0x8
 3952 013d 756E7369 		.ascii "unsigned char\0"
 3952      676E6564 
 3952      20636861 
 3952      7200
 3953 014b 02       		.uleb128 0x2
 3954 014c 10       		.byte	0x10
 3955 014d 04       		.byte	0x4
 3956 014e 6C6F6E67 		.ascii "long double\0"
 3956      20646F75 
 3956      626C6500 
 3957 015a 04       		.uleb128 0x4
 3958 015b 6465636C 		.ascii "decltype(nullptr)\0"
 3958      74797065 
 3958      286E756C 
 3958      6C707472 
 3958      2900
 3959 016d 02       		.uleb128 0x2
 3960 016e 01       		.byte	0x1
 3961 016f 06       		.byte	0x6
 3962 0170 7369676E 		.ascii "signed char\0"
 3962      65642063 
 3962      68617200 
 3963 017c 02       		.uleb128 0x2
 3964 017d 02       		.byte	0x2
 3965 017e 05       		.byte	0x5
 3966 017f 73686F72 		.ascii "short int\0"
 3966      7420696E 
 3966      7400
 3967 0189 03       		.uleb128 0x3
 3968 018a 75696E74 		.ascii "uint64_t\0"
 3968      36345F74 
 3968      00
 3969 0193 05       		.byte	0x5
 3970 0194 2A       		.byte	0x2a
 3971 0195 AA000000 		.long	0xaa
 3972 0199 05       		.uleb128 0x5
 3973 019a 08       		.byte	0x8
 3974 019b 03       		.uleb128 0x3
 3975 019c 44574F52 		.ascii "DWORD\0"
 3975      4400
 3976 01a2 06       		.byte	0x6
 3977 01a3 8D       		.byte	0x8d
 3978 01a4 25010000 		.long	0x125
 3979 01a8 02       		.uleb128 0x2
 3980 01a9 04       		.byte	0x4
 3981 01aa 04       		.byte	0x4
 3982 01ab 666C6F61 		.ascii "float\0"
 3982      7400
 3983 01b1 06       		.uleb128 0x6
 3984 01b2 08       		.byte	0x8
 3985 01b3 09010000 		.long	0x109
 3986 01b7 07       		.uleb128 0x7
 3987 01b8 4C4F4E47 		.ascii "LONG\0"
 3987      00
 3988 01bd 07       		.byte	0x7
 3989 01be 1801     		.word	0x118
 3990 01c0 F2000000 		.long	0xf2
 3991 01c4 07       		.uleb128 0x7
 3992 01c5 4C4F4E47 		.ascii "LONGLONG\0"
 3992      4C4F4E47 
 3992      00
 3993 01ce 07       		.byte	0x7
 3994 01cf E301     		.word	0x1e3
 3995 01d1 C4000000 		.long	0xc4
 3996 01d5 08       		.uleb128 0x8
 3997 01d6 5F4C4152 		.ascii "_LARGE_INTEGER\0"
 3997      47455F49 
 3997      4E544547 
 3997      455200
 3998 01e5 08       		.byte	0x8
 3999 01e6 07       		.byte	0x7
 4000 01e7 F201     		.word	0x1f2
 4001 01e9 5E020000 		.long	0x25e
 4002 01ed 09       		.uleb128 0x9
 4003 01ee 08       		.byte	0x8
 4004 01ef 07       		.byte	0x7
 4005 01f0 F301     		.word	0x1f3
 4006 01f2 15020000 		.long	0x215
 4007 01f6 0A       		.uleb128 0xa
 4008 01f7 4C6F7750 		.ascii "LowPart\0"
 4008      61727400 
 4009 01ff 07       		.byte	0x7
 4010 0200 F401     		.word	0x1f4
 4011 0202 9B010000 		.long	0x19b
 4012 0206 00       		.byte	0
 4013 0207 0B       		.uleb128 0xb
 4014 0208 42000000 		.secrel32	.LASF0
 4015 020c 07       		.byte	0x7
 4016 020d F501     		.word	0x1f5
 4017 020f B7010000 		.long	0x1b7
 4018 0213 04       		.byte	0x4
 4019 0214 00       		.byte	0
 4020 0215 09       		.uleb128 0x9
 4021 0216 08       		.byte	0x8
 4022 0217 07       		.byte	0x7
 4023 0218 F701     		.word	0x1f7
 4024 021a 3D020000 		.long	0x23d
 4025 021e 0A       		.uleb128 0xa
 4026 021f 4C6F7750 		.ascii "LowPart\0"
 4026      61727400 
 4027 0227 07       		.byte	0x7
 4028 0228 F801     		.word	0x1f8
 4029 022a 9B010000 		.long	0x19b
 4030 022e 00       		.byte	0
 4031 022f 0B       		.uleb128 0xb
 4032 0230 42000000 		.secrel32	.LASF0
 4033 0234 07       		.byte	0x7
 4034 0235 F901     		.word	0x1f9
 4035 0237 B7010000 		.long	0x1b7
 4036 023b 04       		.byte	0x4
 4037 023c 00       		.byte	0
 4038 023d 0C       		.uleb128 0xc
 4039 023e ED010000 		.long	0x1ed
 4040 0242 0D       		.uleb128 0xd
 4041 0243 7500     		.ascii "u\0"
 4042 0245 07       		.byte	0x7
 4043 0246 FA01     		.word	0x1fa
 4044 0248 15020000 		.long	0x215
 4045 024c 0D       		.uleb128 0xd
 4046 024d 51756164 		.ascii "QuadPart\0"
 4046      50617274 
 4046      00
 4047 0256 07       		.byte	0x7
 4048 0257 FC01     		.word	0x1fc
 4049 0259 C4010000 		.long	0x1c4
 4050 025d 00       		.byte	0
 4051 025e 07       		.uleb128 0x7
 4052 025f 4C415247 		.ascii "LARGE_INTEGER\0"
 4052      455F494E 
 4052      54454745 
 4052      5200
 4053 026d 07       		.byte	0x7
 4054 026e FD01     		.word	0x1fd
 4055 0270 D5010000 		.long	0x1d5
 4056 0274 02       		.uleb128 0x2
 4057 0275 08       		.byte	0x8
 4058 0276 04       		.byte	0x4
 4059 0277 646F7562 		.ascii "double\0"
 4059      6C6500
 4060 027e 0E       		.uleb128 0xe
 4061 027f 54696D65 		.ascii "Timer\0"
 4061      7200
 4062 0285 20       		.byte	0x20
 4063 0286 02       		.byte	0x2
 4064 0287 15       		.byte	0x15
 4065 0288 A1030000 		.long	0x3a1
 4066 028c 0F       		.uleb128 0xf
 4067 028d 6D5F7374 		.ascii "m_start\0"
 4067      61727400 
 4068 0295 02       		.byte	0x2
 4069 0296 3B       		.byte	0x3b
 4070 0297 5E020000 		.long	0x25e
 4071 029b 00       		.byte	0
 4072 029c 03       		.byte	0x3
 4073 029d 0F       		.uleb128 0xf
 4074 029e 6D5F7374 		.ascii "m_stop\0"
 4074      6F7000
 4075 02a5 02       		.byte	0x2
 4076 02a6 3C       		.byte	0x3c
 4077 02a7 5E020000 		.long	0x25e
 4078 02ab 08       		.byte	0x8
 4079 02ac 03       		.byte	0x3
 4080 02ad 0F       		.uleb128 0xf
 4081 02ae 6D5F6672 		.ascii "m_freq\0"
 4081      657100
 4082 02b5 02       		.byte	0x2
 4083 02b6 3D       		.byte	0x3d
 4084 02b7 5E020000 		.long	0x25e
 4085 02bb 10       		.byte	0x10
 4086 02bc 03       		.byte	0x3
 4087 02bd 0F       		.uleb128 0xf
 4088 02be 6D5F6F76 		.ascii "m_overhead\0"
 4088      65726865 
 4088      616400
 4089 02c9 02       		.byte	0x2
 4090 02ca 3E       		.byte	0x3e
 4091 02cb C4010000 		.long	0x1c4
 4092 02cf 18       		.byte	0x18
 4093 02d0 03       		.byte	0x3
 4094 02d1 10       		.uleb128 0x10
 4095 02d2 53746172 		.ascii "Start\0"
 4095      7400
 4096 02d8 02       		.byte	0x2
 4097 02d9 17       		.byte	0x17
 4098 02da 5F5A4E35 		.ascii "_ZN5Timer5StartEv\0"
 4098      54696D65 
 4098      72355374 
 4098      61727445 
 4098      7600
 4099 02ec F4020000 		.long	0x2f4
 4100 02f0 FA020000 		.long	0x2fa
 4101 02f4 11       		.uleb128 0x11
 4102 02f5 A1030000 		.long	0x3a1
 4103 02f9 00       		.byte	0
 4104 02fa 10       		.uleb128 0x10
 4105 02fb 53746F70 		.ascii "Stop\0"
 4105      00
 4106 0300 02       		.byte	0x2
 4107 0301 1C       		.byte	0x1c
 4108 0302 5F5A4E35 		.ascii "_ZN5Timer4StopEv\0"
 4108      54696D65 
 4108      72345374 
 4108      6F704576 
 4108      00
 4109 0313 1B030000 		.long	0x31b
 4110 0317 21030000 		.long	0x321
 4111 031b 11       		.uleb128 0x11
 4112 031c A1030000 		.long	0x3a1
 4113 0320 00       		.byte	0
 4114 0321 12       		.uleb128 0x12
 4115 0322 456C6170 		.ascii "Elapsed\0"
 4115      73656400 
 4116 032a 02       		.byte	0x2
 4117 032b 22       		.byte	0x22
 4118 032c 5F5A4E35 		.ascii "_ZN5Timer7ElapsedEv\0"
 4118      54696D65 
 4118      7237456C 
 4118      61707365 
 4118      64457600 
 4119 0340 74020000 		.long	0x274
 4120 0344 4C030000 		.long	0x34c
 4121 0348 52030000 		.long	0x352
 4122 034c 11       		.uleb128 0x11
 4123 034d A1030000 		.long	0x3a1
 4124 0351 00       		.byte	0
 4125 0352 13       		.uleb128 0x13
 4126 0353 54696D65 		.ascii "Timer\0"
 4126      7200
 4127 0359 02       		.byte	0x2
 4128 035a 28       		.byte	0x28
 4129 035b 63030000 		.long	0x363
 4130 035f 69030000 		.long	0x369
 4131 0363 11       		.uleb128 0x11
 4132 0364 A1030000 		.long	0x3a1
 4133 0368 00       		.byte	0
 4134 0369 14       		.uleb128 0x14
 4135 036a 4765744F 		.ascii "GetOverhead\0"
 4135      76657268 
 4135      65616400 
 4136 0376 02       		.byte	0x2
 4137 0377 34       		.byte	0x34
 4138 0378 5F5A4E35 		.ascii "_ZN5Timer11GetOverheadEv\0"
 4138      54696D65 
 4138      72313147 
 4138      65744F76 
 4138      65726865 
 4139 0391 C4010000 		.long	0x1c4
 4140 0395 03       		.byte	0x3
 4141 0396 9A030000 		.long	0x39a
 4142 039a 11       		.uleb128 0x11
 4143 039b A1030000 		.long	0x3a1
 4144 039f 00       		.byte	0
 4145 03a0 00       		.byte	0
 4146 03a1 06       		.uleb128 0x6
 4147 03a2 08       		.byte	0x8
 4148 03a3 7E020000 		.long	0x27e
 4149 03a7 15       		.uleb128 0x15
 4150 03a8 D1020000 		.long	0x2d1
 4151 03ac 03       		.byte	0x3
 4152 03ad B5030000 		.long	0x3b5
 4153 03b1 C0030000 		.long	0x3c0
 4154 03b5 16       		.uleb128 0x16
 4155 03b6 74686973 		.ascii "this\0"
 4155      00
 4156 03bb C0030000 		.long	0x3c0
 4157 03bf 00       		.byte	0
 4158 03c0 17       		.uleb128 0x17
 4159 03c1 A1030000 		.long	0x3a1
 4160 03c5 15       		.uleb128 0x15
 4161 03c6 FA020000 		.long	0x2fa
 4162 03ca 03       		.byte	0x3
 4163 03cb D3030000 		.long	0x3d3
 4164 03cf DE030000 		.long	0x3de
 4165 03d3 16       		.uleb128 0x16
 4166 03d4 74686973 		.ascii "this\0"
 4166      00
 4167 03d9 C0030000 		.long	0x3c0
 4168 03dd 00       		.byte	0
 4169 03de 15       		.uleb128 0x15
 4170 03df 69030000 		.long	0x369
 4171 03e3 03       		.byte	0x3
 4172 03e4 EC030000 		.long	0x3ec
 4173 03e8 F7030000 		.long	0x3f7
 4174 03ec 16       		.uleb128 0x16
 4175 03ed 74686973 		.ascii "this\0"
 4175      00
 4176 03f2 C0030000 		.long	0x3c0
 4177 03f6 00       		.byte	0
 4178 03f7 17       		.uleb128 0x17
 4179 03f8 FC030000 		.long	0x3fc
 4180 03fc 18       		.uleb128 0x18
 4181 03fd 08       		.byte	0x8
 4182 03fe 9C000000 		.long	0x9c
 4183 0402 18       		.uleb128 0x18
 4184 0403 08       		.byte	0x8
 4185 0404 08040000 		.long	0x408
 4186 0408 17       		.uleb128 0x17
 4187 0409 09010000 		.long	0x109
 4188 040d 17       		.uleb128 0x17
 4189 040e 02040000 		.long	0x402
 4190 0412 17       		.uleb128 0x17
 4191 0413 FC030000 		.long	0x3fc
 4192 0417 15       		.uleb128 0x15
 4193 0418 21030000 		.long	0x321
 4194 041c 03       		.byte	0x3
 4195 041d 25040000 		.long	0x425
 4196 0421 30040000 		.long	0x430
 4197 0425 16       		.uleb128 0x16
 4198 0426 74686973 		.ascii "this\0"
 4198      00
 4199 042b C0030000 		.long	0x3c0
 4200 042f 00       		.byte	0
 4201 0430 17       		.uleb128 0x17
 4202 0431 FC030000 		.long	0x3fc
 4203 0435 17       		.uleb128 0x17
 4204 0436 02040000 		.long	0x402
 4205 043a 17       		.uleb128 0x17
 4206 043b FC030000 		.long	0x3fc
 4207 043f 17       		.uleb128 0x17
 4208 0440 FC030000 		.long	0x3fc
 4209 0444 17       		.uleb128 0x17
 4210 0445 02040000 		.long	0x402
 4211 0449 17       		.uleb128 0x17
 4212 044a FC030000 		.long	0x3fc
 4213 044e 17       		.uleb128 0x17
 4214 044f FC030000 		.long	0x3fc
 4215 0453 17       		.uleb128 0x17
 4216 0454 02040000 		.long	0x402
 4217 0458 17       		.uleb128 0x17
 4218 0459 FC030000 		.long	0x3fc
 4219 045d 17       		.uleb128 0x17
 4220 045e FC030000 		.long	0x3fc
 4221 0462 17       		.uleb128 0x17
 4222 0463 02040000 		.long	0x402
 4223 0467 17       		.uleb128 0x17
 4224 0468 FC030000 		.long	0x3fc
 4225 046c 17       		.uleb128 0x17
 4226 046d FC030000 		.long	0x3fc
 4227 0471 17       		.uleb128 0x17
 4228 0472 02040000 		.long	0x402
 4229 0476 17       		.uleb128 0x17
 4230 0477 FC030000 		.long	0x3fc
 4231 047b 15       		.uleb128 0x15
 4232 047c 52030000 		.long	0x352
 4233 0480 02       		.byte	0x2
 4234 0481 89040000 		.long	0x489
 4235 0485 94040000 		.long	0x494
 4236 0489 16       		.uleb128 0x16
 4237 048a 74686973 		.ascii "this\0"
 4237      00
 4238 048f C0030000 		.long	0x3c0
 4239 0493 00       		.byte	0
 4240 0494 19       		.uleb128 0x19
 4241 0495 52616469 		.ascii "RadixSortPass<unsigned int, unsigned int, 0, 4>\0"
 4241      78536F72 
 4241      74506173 
 4241      733C756E 
 4241      7369676E 
 4242 04c5 01       		.byte	0x1
 4243 04c6 06       		.byte	0x6
 4244 04c7 5F5A3133 		.ascii "_Z13RadixSortPassIjjLi0ELi4EEvPKT_PKT0_PS0_PS3_y\0"
 4244      52616469 
 4244      78536F72 
 4244      74506173 
 4244      73496A6A 
 4245 04f8 00000000 		.quad	.LFB3007
 4245      00000000 
 4246 0500 01030000 		.quad	.LFE3007-.LFB3007
 4246      00000000 
 4247 0508 01       		.uleb128 0x1
 4248 0509 9C       		.byte	0x9c
 4249 050a 35090000 		.long	0x935
 4250 050e 1A       		.uleb128 0x1a
 4251 050f 4B657900 		.ascii "Key\0"
 4252 0513 09010000 		.long	0x109
 4253 0517 1B       		.uleb128 0x1b
 4254 0518 36000000 		.secrel32	.LASF1
 4255 051c 09010000 		.long	0x109
 4256 0520 1C       		.uleb128 0x1c
 4257 0521 54000000 		.secrel32	.LASF2
 4258 0525 EB000000 		.long	0xeb
 4259 0529 00       		.byte	0
 4260 052a 1C       		.uleb128 0x1c
 4261 052b 63000000 		.secrel32	.LASF3
 4262 052f EB000000 		.long	0xeb
 4263 0533 04       		.byte	0x4
 4264 0534 1D       		.uleb128 0x1d
 4265 0535 00000000 		.secrel32	.LASF4
 4266 0539 01       		.byte	0x1
 4267 053a 06       		.byte	0x6
 4268 053b 35090000 		.long	0x935
 4269 053f 00000000 		.secrel32	.LLST0
 4270 0543 1D       		.uleb128 0x1d
 4271 0544 77000000 		.secrel32	.LASF5
 4272 0548 01       		.byte	0x1
 4273 0549 06       		.byte	0x6
 4274 054a 35090000 		.long	0x935
 4275 054e 5F000000 		.secrel32	.LLST1
 4276 0552 1D       		.uleb128 0x1d
 4277 0553 3B000000 		.secrel32	.LASF6
 4278 0557 01       		.byte	0x1
 4279 0558 06       		.byte	0x6
 4280 0559 B1010000 		.long	0x1b1
 4281 055d BE000000 		.secrel32	.LLST2
 4282 0561 1D       		.uleb128 0x1d
 4283 0562 06000000 		.secrel32	.LASF7
 4284 0566 01       		.byte	0x1
 4285 0567 06       		.byte	0x6
 4286 0568 B1010000 		.long	0x1b1
 4287 056c 1D010000 		.secrel32	.LLST3
 4288 0570 1E       		.uleb128 0x1e
 4289 0571 7E000000 		.secrel32	.LASF8
 4290 0575 01       		.byte	0x1
 4291 0576 06       		.byte	0x6
 4292 0577 9C000000 		.long	0x9c
 4293 057b 02       		.uleb128 0x2
 4294 057c 91       		.byte	0x91
 4295 057d 20       		.sleb128 32
 4296 057e 1F       		.uleb128 0x1f
 4297 057f 00000000 		.secrel32	.Ldebug_ranges0+0
 4298 0583 20       		.uleb128 0x20
 4299 0584 8E000000 		.secrel32	.LASF15
 4300 0588 01       		.byte	0x1
 4301 0589 08       		.byte	0x8
 4302 058a 9C000000 		.long	0x9c
 4303 058e 10       		.byte	0x10
 4304 058f 21       		.uleb128 0x21
 4305 0590 18000000 		.secrel32	.LASF9
 4306 0594 08       		.byte	0x8
 4307 0595 01       		.byte	0x1
 4308 0596 0A       		.byte	0xa
 4309 0597 93060000 		.long	0x693
 4310 059b 22       		.uleb128 0x22
 4311 059c 6C000000 		.secrel32	.LASF10
 4312 05a0 01       		.byte	0x1
 4313 05a1 0A       		.byte	0xa
 4314 05a2 F7030000 		.long	0x3f7
 4315 05a6 00       		.byte	0
 4316 05a7 23       		.uleb128 0x23
 4317 05a8 4B000000 		.secrel32	.LASF11
 4318 05ac B4050000 		.long	0x5b4
 4319 05b0 CB050000 		.long	0x5cb
 4320 05b4 11       		.uleb128 0x11
 4321 05b5 B9050000 		.long	0x5b9
 4322 05b9 06       		.uleb128 0x6
 4323 05ba 08       		.byte	0x8
 4324 05bb 8F050000 		.long	0x58f
 4325 05bf 24       		.uleb128 0x24
 4326 05c0 C4050000 		.long	0x5c4
 4327 05c4 25       		.uleb128 0x25
 4328 05c5 08       		.byte	0x8
 4329 05c6 8F050000 		.long	0x58f
 4330 05ca 00       		.byte	0
 4331 05cb 23       		.uleb128 0x23
 4332 05cc 4B000000 		.secrel32	.LASF11
 4333 05d0 D8050000 		.long	0x5d8
 4334 05d4 EE050000 		.long	0x5ee
 4335 05d8 11       		.uleb128 0x11
 4336 05d9 B9050000 		.long	0x5b9
 4337 05dd 24       		.uleb128 0x24
 4338 05de E2050000 		.long	0x5e2
 4339 05e2 18       		.uleb128 0x18
 4340 05e3 08       		.byte	0x8
 4341 05e4 E8050000 		.long	0x5e8
 4342 05e8 17       		.uleb128 0x17
 4343 05e9 8F050000 		.long	0x58f
 4344 05ed 00       		.byte	0
 4345 05ee 23       		.uleb128 0x23
 4346 05ef 4B000000 		.secrel32	.LASF11
 4347 05f3 FB050000 		.long	0x5fb
 4348 05f7 01060000 		.long	0x601
 4349 05fb 11       		.uleb128 0x11
 4350 05fc B9050000 		.long	0x5b9
 4351 0600 00       		.byte	0
 4352 0601 23       		.uleb128 0x23
 4353 0602 0E000000 		.secrel32	.LASF12
 4354 0606 0E060000 		.long	0x60e
 4355 060a 19060000 		.long	0x619
 4356 060e 11       		.uleb128 0x11
 4357 060f B9050000 		.long	0x5b9
 4358 0613 11       		.uleb128 0x11
 4359 0614 EB000000 		.long	0xeb
 4360 0618 00       		.byte	0
 4361 0619 26       		.uleb128 0x26
 4362 061a 83000000 		.secrel32	.LASF13
 4363 061e 5F5A5A31 		.ascii "_ZZ13RadixSortPassIjjLi0ELi4EEvPKT_PKT0_PS0_PS3_yENKUlRKjE_clES9_\0"
 4363      33526164 
 4363      6978536F 
 4363      72745061 
 4363      7373496A 
 4364 0660 AA000000 		.long	0xaa
 4365 0664 03       		.byte	0x3
 4366 0665 6F060000 		.long	0x66f
 4367 0669 06       		.uleb128 0x6
 4368 066a 08       		.byte	0x8
 4369 066b E8050000 		.long	0x5e8
 4370 066f 27       		.uleb128 0x27
 4371 0670 97000000 		.secrel32	.LASF14
 4372 0674 78060000 		.long	0x678
 4373 0678 17       		.uleb128 0x17
 4374 0679 69060000 		.long	0x669
 4375 067d 28       		.uleb128 0x28
 4376 067e 7000     		.ascii "p\0"
 4377 0680 01       		.byte	0x1
 4378 0681 0A       		.byte	0xa
 4379 0682 0D040000 		.long	0x40d
 4380 0686 29       		.uleb128 0x29
 4381 0687 2A       		.uleb128 0x2a
 4382 0688 8E000000 		.secrel32	.LASF15
 4383 068c 12040000 		.long	0x412
 4384 0690 00       		.byte	0
 4385 0691 00       		.byte	0
 4386 0692 00       		.byte	0
 4387 0693 2B       		.uleb128 0x2b
 4388 0694 6B657900 		.ascii "key\0"
 4389 0698 01       		.byte	0x1
 4390 0699 0A       		.byte	0xa
 4391 069a 8F050000 		.long	0x58f
 4392 069e 08       		.uleb128 0x8
 4393 069f F2       		.byte	0xf2
 4394 06a0 83050000 		.secrel32	.Ldebug_info0+1411
 4395 06a4 00       		.sleb128 0
 4396 06a5 93       		.byte	0x93
 4397 06a6 08       		.uleb128 0x8
 4398 06a7 2B       		.uleb128 0x2b
 4399 06a8 7400     		.ascii "t\0"
 4400 06aa 01       		.byte	0x1
 4401 06ab 0C       		.byte	0xc
 4402 06ac 7E020000 		.long	0x27e
 4403 06b0 03       		.uleb128 0x3
 4404 06b1 91       		.byte	0x91
 4405 06b2 907F     		.sleb128 -112
 4406 06b4 2C       		.uleb128 0x2c
 4407 06b5 636E7400 		.ascii "cnt\0"
 4408 06b9 01       		.byte	0x1
 4409 06ba 0E       		.byte	0xe
 4410 06bb 3B090000 		.long	0x93b
 4411 06bf 6B010000 		.secrel32	.LLST4
 4412 06c3 2D       		.uleb128 0x2d
 4413 06c4 7000     		.ascii "p\0"
 4414 06c6 01       		.byte	0x1
 4415 06c7 0E       		.byte	0xe
 4416 06c8 35090000 		.long	0x935
 4417 06cc 2E       		.uleb128 0x2e
 4418 06cd 5D000000 		.secrel32	.LASF16
 4419 06d1 01       		.byte	0x1
 4420 06d2 11       		.byte	0x11
 4421 06d3 74020000 		.long	0x274
 4422 06d7 D5010000 		.secrel32	.LLST5
 4423 06db 2F       		.uleb128 0x2f
 4424 06dc 7B040000 		.long	0x47b
 4425 06e0 1C000000 		.quad	.LBB214
 4425      00000000 
 4426 06e8 50000000 		.secrel32	.Ldebug_ranges0+0x50
 4427 06ec 01       		.byte	0x1
 4428 06ed 0C       		.byte	0xc
 4429 06ee 99070000 		.long	0x799
 4430 06f2 30       		.uleb128 0x30
 4431 06f3 89040000 		.long	0x489
 4432 06f7 F8010000 		.secrel32	.LLST6
 4433 06fb 2F       		.uleb128 0x2f
 4434 06fc DE030000 		.long	0x3de
 4435 0700 3E000000 		.quad	.LBB216
 4435      00000000 
 4436 0708 A0000000 		.secrel32	.Ldebug_ranges0+0xa0
 4437 070c 02       		.byte	0x2
 4438 070d 2E       		.byte	0x2e
 4439 070e 88070000 		.long	0x788
 4440 0712 30       		.uleb128 0x30
 4441 0713 EC030000 		.long	0x3ec
 4442 0717 84020000 		.secrel32	.LLST7
 4443 071b 31       		.uleb128 0x31
 4444 071c A7030000 		.long	0x3a7
 4445 0720 3E000000 		.quad	.LBB218
 4445      00000000 
 4446 0728 13000000 		.quad	.LBE218-.LBB218
 4446      00000000 
 4447 0730 02       		.byte	0x2
 4448 0731 36       		.byte	0x36
 4449 0732 53070000 		.long	0x753
 4450 0736 30       		.uleb128 0x30
 4451 0737 B5030000 		.long	0x3b5
 4452 073b 84020000 		.secrel32	.LLST7
 4453 073f 32       		.uleb128 0x32
 4454 0740 51000000 		.quad	.LVL5
 4454      00000000 
 4455 0748 02       		.uleb128 0x2
 4456 0749 74       		.byte	0x74
 4457 074a 00       		.sleb128 0
 4458 074b 33       		.uleb128 0x33
 4459 074c 01       		.uleb128 0x1
 4460 074d 52       		.byte	0x52
 4461 074e 02       		.uleb128 0x2
 4462 074f 75       		.byte	0x75
 4463 0750 00       		.sleb128 0
 4464 0751 00       		.byte	0
 4465 0752 00       		.byte	0
 4466 0753 34       		.uleb128 0x34
 4467 0754 C5030000 		.long	0x3c5
 4468 0758 51000000 		.quad	.LBB220
 4468      00000000 
 4469 0760 09000000 		.quad	.LBE220-.LBB220
 4469      00000000 
 4470 0768 02       		.byte	0x2
 4471 0769 37       		.byte	0x37
 4472 076a 30       		.uleb128 0x30
 4473 076b D3030000 		.long	0x3d3
 4474 076f E7020000 		.secrel32	.LLST9
 4475 0773 32       		.uleb128 0x32
 4476 0774 5A000000 		.quad	.LVL6
 4476      00000000 
 4477 077c 02       		.uleb128 0x2
 4478 077d 74       		.byte	0x74
 4479 077e 00       		.sleb128 0
 4480 077f 33       		.uleb128 0x33
 4481 0780 01       		.uleb128 0x1
 4482 0781 52       		.byte	0x52
 4483 0782 02       		.uleb128 0x2
 4484 0783 75       		.byte	0x75
 4485 0784 08       		.sleb128 8
 4486 0785 00       		.byte	0
 4487 0786 00       		.byte	0
 4488 0787 00       		.byte	0
 4489 0788 35       		.uleb128 0x35
 4490 0789 3E000000 		.quad	.LVL4
 4490      00000000 
 4491 0791 33       		.uleb128 0x33
 4492 0792 01       		.uleb128 0x1
 4493 0793 52       		.byte	0x52
 4494 0794 02       		.uleb128 0x2
 4495 0795 75       		.byte	0x75
 4496 0796 10       		.sleb128 16
 4497 0797 00       		.byte	0
 4498 0798 00       		.byte	0
 4499 0799 2F       		.uleb128 0x2f
 4500 079a A7030000 		.long	0x3a7
 4501 079e 5E000000 		.quad	.LBB229
 4501      00000000 
 4502 07a6 D0000000 		.secrel32	.Ldebug_ranges0+0xd0
 4503 07aa 01       		.byte	0x1
 4504 07ab 0C       		.byte	0xc
 4505 07ac CD070000 		.long	0x7cd
 4506 07b0 30       		.uleb128 0x30
 4507 07b1 B5030000 		.long	0x3b5
 4508 07b5 4A030000 		.secrel32	.LLST10
 4509 07b9 32       		.uleb128 0x32
 4510 07ba 6E000000 		.quad	.LVL8
 4510      00000000 
 4511 07c2 02       		.uleb128 0x2
 4512 07c3 74       		.byte	0x74
 4513 07c4 00       		.sleb128 0
 4514 07c5 33       		.uleb128 0x33
 4515 07c6 01       		.uleb128 0x1
 4516 07c7 52       		.byte	0x52
 4517 07c8 02       		.uleb128 0x2
 4518 07c9 75       		.byte	0x75
 4519 07ca 00       		.sleb128 0
 4520 07cb 00       		.byte	0
 4521 07cc 00       		.byte	0
 4522 07cd 36       		.uleb128 0x36
 4523 07ce 00010000 		.secrel32	.Ldebug_ranges0+0x100
 4524 07d2 25080000 		.long	0x825
 4525 07d6 2C       		.uleb128 0x2c
 4526 07d7 6900     		.ascii "i\0"
 4527 07d9 01       		.byte	0x1
 4528 07da 0F       		.byte	0xf
 4529 07db 9C000000 		.long	0x9c
 4530 07df AD030000 		.secrel32	.LLST11
 4531 07e3 34       		.uleb128 0x34
 4532 07e4 19060000 		.long	0x619
 4533 07e8 B3000000 		.quad	.LBB235
 4533      00000000 
 4534 07f0 0A000000 		.quad	.LBE235-.LBB235
 4534      00000000 
 4535 07f8 01       		.byte	0x1
 4536 07f9 10       		.byte	0x10
 4537 07fa 30       		.uleb128 0x30
 4538 07fb 7D060000 		.long	0x67d
 4539 07ff D1030000 		.secrel32	.LLST12
 4540 0803 30       		.uleb128 0x30
 4541 0804 6F060000 		.long	0x66f
 4542 0808 09040000 		.secrel32	.LLST13
 4543 080c 37       		.uleb128 0x37
 4544 080d B3000000 		.quad	.LBB236
 4544      00000000 
 4545 0815 0A000000 		.quad	.LBE236-.LBB236
 4545      00000000 
 4546 081d 38       		.uleb128 0x38
 4547 081e 87060000 		.long	0x687
 4548 0822 00       		.byte	0
 4549 0823 00       		.byte	0
 4550 0824 00       		.byte	0
 4551 0825 31       		.uleb128 0x31
 4552 0826 C5030000 		.long	0x3c5
 4553 082a C7000000 		.quad	.LBB239
 4553      00000000 
 4554 0832 12000000 		.quad	.LBE239-.LBB239
 4554      00000000 
 4555 083a 01       		.byte	0x1
 4556 083b 11       		.byte	0x11
 4557 083c 63080000 		.long	0x863
 4558 0840 30       		.uleb128 0x30
 4559 0841 D3030000 		.long	0x3d3
 4560 0845 31040000 		.secrel32	.LLST14
 4561 0849 32       		.uleb128 0x32
 4562 084a D9000000 		.quad	.LVL16
 4562      00000000 
 4563 0852 04       		.uleb128 0x4
 4564 0853 91       		.byte	0x91
 4565 0854 A07F     		.sleb128 -96
 4566 0856 06       		.byte	0x6
 4567 0857 33       		.uleb128 0x33
 4568 0858 01       		.uleb128 0x1
 4569 0859 52       		.byte	0x52
 4570 085a 06       		.uleb128 0x6
 4571 085b 91       		.byte	0x91
 4572 085c A87F     		.sleb128 -88
 4573 085e 06       		.byte	0x6
 4574 085f 23       		.byte	0x23
 4575 0860 08       		.uleb128 0x8
 4576 0861 00       		.byte	0
 4577 0862 00       		.byte	0
 4578 0863 2F       		.uleb128 0x2f
 4579 0864 17040000 		.long	0x417
 4580 0868 D9000000 		.quad	.LBB241
 4580      00000000 
 4581 0870 40010000 		.secrel32	.Ldebug_ranges0+0x140
 4582 0874 01       		.byte	0x1
 4583 0875 11       		.byte	0x11
 4584 0876 84080000 		.long	0x884
 4585 087a 30       		.uleb128 0x30
 4586 087b 25040000 		.long	0x425
 4587 087f 81040000 		.secrel32	.LLST15
 4588 0883 00       		.byte	0
 4589 0884 36       		.uleb128 0x36
 4590 0885 80010000 		.secrel32	.Ldebug_ranges0+0x180
 4591 0889 BF080000 		.long	0x8bf
 4592 088d 2C       		.uleb128 0x2c
 4593 088e 6900     		.ascii "i\0"
 4594 0890 01       		.byte	0x1
 4595 0891 15       		.byte	0x15
 4596 0892 9C000000 		.long	0x9c
 4597 0896 D1040000 		.secrel32	.LLST16
 4598 089a 2C       		.uleb128 0x2c
 4599 089b 73756D00 		.ascii "sum\0"
 4600 089f 01       		.byte	0x1
 4601 08a0 15       		.byte	0x15
 4602 08a1 9C000000 		.long	0x9c
 4603 08a5 35060000 		.secrel32	.LLST17
 4604 08a9 1F       		.uleb128 0x1f
 4605 08aa 80010000 		.secrel32	.Ldebug_ranges0+0x180
 4606 08ae 2C       		.uleb128 0x2c
 4607 08af 746D7000 		.ascii "tmp\0"
 4608 08b3 01       		.byte	0x1
 4609 08b4 17       		.byte	0x17
 4610 08b5 AA000000 		.long	0xaa
 4611 08b9 76070000 		.secrel32	.LLST18
 4612 08bd 00       		.byte	0
 4613 08be 00       		.byte	0
 4614 08bf 36       		.uleb128 0x36
 4615 08c0 C0010000 		.secrel32	.Ldebug_ranges0+0x1c0
 4616 08c4 18090000 		.long	0x918
 4617 08c8 2C       		.uleb128 0x2c
 4618 08c9 6900     		.ascii "i\0"
 4619 08cb 01       		.byte	0x1
 4620 08cc 1D       		.byte	0x1d
 4621 08cd 9C000000 		.long	0x9c
 4622 08d1 BD080000 		.secrel32	.LLST19
 4623 08d5 1F       		.uleb128 0x1f
 4624 08d6 00020000 		.secrel32	.Ldebug_ranges0+0x200
 4625 08da 2D       		.uleb128 0x2d
 4626 08db 62696E00 		.ascii "bin\0"
 4627 08df 01       		.byte	0x1
 4628 08e0 1F       		.byte	0x1f
 4629 08e1 AA000000 		.long	0xaa
 4630 08e5 39       		.uleb128 0x39
 4631 08e6 19060000 		.long	0x619
 4632 08ea A0020000 		.quad	.LBB253
 4632      00000000 
 4633 08f2 40020000 		.secrel32	.Ldebug_ranges0+0x240
 4634 08f6 01       		.byte	0x1
 4635 08f7 1F       		.byte	0x1f
 4636 08f8 30       		.uleb128 0x30
 4637 08f9 7D060000 		.long	0x67d
 4638 08fd F4080000 		.secrel32	.LLST20
 4639 0901 30       		.uleb128 0x30
 4640 0902 6F060000 		.long	0x66f
 4641 0906 38090000 		.secrel32	.LLST21
 4642 090a 1F       		.uleb128 0x1f
 4643 090b 40020000 		.secrel32	.Ldebug_ranges0+0x240
 4644 090f 38       		.uleb128 0x38
 4645 0910 87060000 		.long	0x687
 4646 0914 00       		.byte	0
 4647 0915 00       		.byte	0
 4648 0916 00       		.byte	0
 4649 0917 00       		.byte	0
 4650 0918 3A       		.uleb128 0x3a
 4651 0919 69010000 		.quad	.LVL20
 4651      00000000 
 4652 0921 382B0000 		.long	0x2b38
 4653 0925 33       		.uleb128 0x33
 4654 0926 01       		.uleb128 0x1
 4655 0927 52       		.byte	0x52
 4656 0928 09       		.uleb128 0x9
 4657 0929 03       		.byte	0x3
 4658 092a 00000000 		.quad	.LC3
 4658      00000000 
 4659 0932 00       		.byte	0
 4660 0933 00       		.byte	0
 4661 0934 00       		.byte	0
 4662 0935 06       		.uleb128 0x6
 4663 0936 08       		.byte	0x8
 4664 0937 08040000 		.long	0x408
 4665 093b 3B       		.uleb128 0x3b
 4666 093c AA000000 		.long	0xaa
 4667 0940 4C090000 		.long	0x94c
 4668 0944 3C       		.uleb128 0x3c
 4669 0945 19010000 		.long	0x119
 4670 0949 01       		.uleb128 0x1
 4671 094a 3F       		.byte	0x3f
 4672 094b 00       		.byte	0
 4673 094c 19       		.uleb128 0x19
 4674 094d 52616469 		.ascii "RadixSortPass<unsigned int, unsigned int, 0, 6>\0"
 4674      78536F72 
 4674      74506173 
 4674      733C756E 
 4674      7369676E 
 4675 097d 01       		.byte	0x1
 4676 097e 06       		.byte	0x6
 4677 097f 5F5A3133 		.ascii "_Z13RadixSortPassIjjLi0ELi6EEvPKT_PKT0_PS0_PS3_y\0"
 4677      52616469 
 4677      78536F72 
 4677      74506173 
 4677      73496A6A 
 4678 09b0 00000000 		.quad	.LFB3009
 4678      00000000 
 4679 09b8 F1010000 		.quad	.LFE3009-.LFB3009
 4679      00000000 
 4680 09c0 01       		.uleb128 0x1
 4681 09c1 9C       		.byte	0x9c
 4682 09c2 050E0000 		.long	0xe05
 4683 09c6 1A       		.uleb128 0x1a
 4684 09c7 4B657900 		.ascii "Key\0"
 4685 09cb 09010000 		.long	0x109
 4686 09cf 1B       		.uleb128 0x1b
 4687 09d0 36000000 		.secrel32	.LASF1
 4688 09d4 09010000 		.long	0x109
 4689 09d8 1C       		.uleb128 0x1c
 4690 09d9 54000000 		.secrel32	.LASF2
 4691 09dd EB000000 		.long	0xeb
 4692 09e1 00       		.byte	0
 4693 09e2 1C       		.uleb128 0x1c
 4694 09e3 63000000 		.secrel32	.LASF3
 4695 09e7 EB000000 		.long	0xeb
 4696 09eb 06       		.byte	0x6
 4697 09ec 1D       		.uleb128 0x1d
 4698 09ed 00000000 		.secrel32	.LASF4
 4699 09f1 01       		.byte	0x1
 4700 09f2 06       		.byte	0x6
 4701 09f3 35090000 		.long	0x935
 4702 09f7 60090000 		.secrel32	.LLST22
 4703 09fb 1D       		.uleb128 0x1d
 4704 09fc 77000000 		.secrel32	.LASF5
 4705 0a00 01       		.byte	0x1
 4706 0a01 06       		.byte	0x6
 4707 0a02 35090000 		.long	0x935
 4708 0a06 BF090000 		.secrel32	.LLST23
 4709 0a0a 1D       		.uleb128 0x1d
 4710 0a0b 3B000000 		.secrel32	.LASF6
 4711 0a0f 01       		.byte	0x1
 4712 0a10 06       		.byte	0x6
 4713 0a11 B1010000 		.long	0x1b1
 4714 0a15 1E0A0000 		.secrel32	.LLST24
 4715 0a19 1D       		.uleb128 0x1d
 4716 0a1a 06000000 		.secrel32	.LASF7
 4717 0a1e 01       		.byte	0x1
 4718 0a1f 06       		.byte	0x6
 4719 0a20 B1010000 		.long	0x1b1
 4720 0a24 7D0A0000 		.secrel32	.LLST25
 4721 0a28 1E       		.uleb128 0x1e
 4722 0a29 7E000000 		.secrel32	.LASF8
 4723 0a2d 01       		.byte	0x1
 4724 0a2e 06       		.byte	0x6
 4725 0a2f 9C000000 		.long	0x9c
 4726 0a33 02       		.uleb128 0x2
 4727 0a34 91       		.byte	0x91
 4728 0a35 20       		.sleb128 32
 4729 0a36 1F       		.uleb128 0x1f
 4730 0a37 70020000 		.secrel32	.Ldebug_ranges0+0x270
 4731 0a3b 20       		.uleb128 0x20
 4732 0a3c 8E000000 		.secrel32	.LASF15
 4733 0a40 01       		.byte	0x1
 4734 0a41 08       		.byte	0x8
 4735 0a42 9C000000 		.long	0x9c
 4736 0a46 40       		.byte	0x40
 4737 0a47 21       		.uleb128 0x21
 4738 0a48 18000000 		.secrel32	.LASF9
 4739 0a4c 08       		.byte	0x8
 4740 0a4d 01       		.byte	0x1
 4741 0a4e 0A       		.byte	0xa
 4742 0a4f 4B0B0000 		.long	0xb4b
 4743 0a53 22       		.uleb128 0x22
 4744 0a54 6C000000 		.secrel32	.LASF10
 4745 0a58 01       		.byte	0x1
 4746 0a59 0A       		.byte	0xa
 4747 0a5a 30040000 		.long	0x430
 4748 0a5e 00       		.byte	0
 4749 0a5f 23       		.uleb128 0x23
 4750 0a60 4B000000 		.secrel32	.LASF11
 4751 0a64 6C0A0000 		.long	0xa6c
 4752 0a68 830A0000 		.long	0xa83
 4753 0a6c 11       		.uleb128 0x11
 4754 0a6d 710A0000 		.long	0xa71
 4755 0a71 06       		.uleb128 0x6
 4756 0a72 08       		.byte	0x8
 4757 0a73 470A0000 		.long	0xa47
 4758 0a77 24       		.uleb128 0x24
 4759 0a78 7C0A0000 		.long	0xa7c
 4760 0a7c 25       		.uleb128 0x25
 4761 0a7d 08       		.byte	0x8
 4762 0a7e 470A0000 		.long	0xa47
 4763 0a82 00       		.byte	0
 4764 0a83 23       		.uleb128 0x23
 4765 0a84 4B000000 		.secrel32	.LASF11
 4766 0a88 900A0000 		.long	0xa90
 4767 0a8c A60A0000 		.long	0xaa6
 4768 0a90 11       		.uleb128 0x11
 4769 0a91 710A0000 		.long	0xa71
 4770 0a95 24       		.uleb128 0x24
 4771 0a96 9A0A0000 		.long	0xa9a
 4772 0a9a 18       		.uleb128 0x18
 4773 0a9b 08       		.byte	0x8
 4774 0a9c A00A0000 		.long	0xaa0
 4775 0aa0 17       		.uleb128 0x17
 4776 0aa1 470A0000 		.long	0xa47
 4777 0aa5 00       		.byte	0
 4778 0aa6 23       		.uleb128 0x23
 4779 0aa7 4B000000 		.secrel32	.LASF11
 4780 0aab B30A0000 		.long	0xab3
 4781 0aaf B90A0000 		.long	0xab9
 4782 0ab3 11       		.uleb128 0x11
 4783 0ab4 710A0000 		.long	0xa71
 4784 0ab8 00       		.byte	0
 4785 0ab9 23       		.uleb128 0x23
 4786 0aba 0E000000 		.secrel32	.LASF12
 4787 0abe C60A0000 		.long	0xac6
 4788 0ac2 D10A0000 		.long	0xad1
 4789 0ac6 11       		.uleb128 0x11
 4790 0ac7 710A0000 		.long	0xa71
 4791 0acb 11       		.uleb128 0x11
 4792 0acc EB000000 		.long	0xeb
 4793 0ad0 00       		.byte	0
 4794 0ad1 26       		.uleb128 0x26
 4795 0ad2 83000000 		.secrel32	.LASF13
 4796 0ad6 5F5A5A31 		.ascii "_ZZ13RadixSortPassIjjLi0ELi6EEvPKT_PKT0_PS0_PS3_yENKUlRKjE_clES9_\0"
 4796      33526164 
 4796      6978536F 
 4796      72745061 
 4796      7373496A 
 4797 0b18 AA000000 		.long	0xaa
 4798 0b1c 03       		.byte	0x3
 4799 0b1d 270B0000 		.long	0xb27
 4800 0b21 06       		.uleb128 0x6
 4801 0b22 08       		.byte	0x8
 4802 0b23 A00A0000 		.long	0xaa0
 4803 0b27 27       		.uleb128 0x27
 4804 0b28 97000000 		.secrel32	.LASF14
 4805 0b2c 300B0000 		.long	0xb30
 4806 0b30 17       		.uleb128 0x17
 4807 0b31 210B0000 		.long	0xb21
 4808 0b35 28       		.uleb128 0x28
 4809 0b36 7000     		.ascii "p\0"
 4810 0b38 01       		.byte	0x1
 4811 0b39 0A       		.byte	0xa
 4812 0b3a 35040000 		.long	0x435
 4813 0b3e 29       		.uleb128 0x29
 4814 0b3f 2A       		.uleb128 0x2a
 4815 0b40 8E000000 		.secrel32	.LASF15
 4816 0b44 3A040000 		.long	0x43a
 4817 0b48 00       		.byte	0
 4818 0b49 00       		.byte	0
 4819 0b4a 00       		.byte	0
 4820 0b4b 2B       		.uleb128 0x2b
 4821 0b4c 6B657900 		.ascii "key\0"
 4822 0b50 01       		.byte	0x1
 4823 0b51 0A       		.byte	0xa
 4824 0b52 470A0000 		.long	0xa47
 4825 0b56 08       		.uleb128 0x8
 4826 0b57 F2       		.byte	0xf2
 4827 0b58 3B0A0000 		.secrel32	.Ldebug_info0+2619
 4828 0b5c 00       		.sleb128 0
 4829 0b5d 93       		.byte	0x93
 4830 0b5e 08       		.uleb128 0x8
 4831 0b5f 2B       		.uleb128 0x2b
 4832 0b60 7400     		.ascii "t\0"
 4833 0b62 01       		.byte	0x1
 4834 0b63 0C       		.byte	0xc
 4835 0b64 7E020000 		.long	0x27e
 4836 0b68 03       		.uleb128 0x3
 4837 0b69 91       		.byte	0x91
 4838 0b6a 907F     		.sleb128 -112
 4839 0b6c 2C       		.uleb128 0x2c
 4840 0b6d 636E7400 		.ascii "cnt\0"
 4841 0b71 01       		.byte	0x1
 4842 0b72 0E       		.byte	0xe
 4843 0b73 050E0000 		.long	0xe05
 4844 0b77 DC0A0000 		.secrel32	.LLST26
 4845 0b7b 2D       		.uleb128 0x2d
 4846 0b7c 7000     		.ascii "p\0"
 4847 0b7e 01       		.byte	0x1
 4848 0b7f 0E       		.byte	0xe
 4849 0b80 35090000 		.long	0x935
 4850 0b84 2E       		.uleb128 0x2e
 4851 0b85 5D000000 		.secrel32	.LASF16
 4852 0b89 01       		.byte	0x1
 4853 0b8a 11       		.byte	0x11
 4854 0b8b 74020000 		.long	0x274
 4855 0b8f 460B0000 		.secrel32	.LLST27
 4856 0b93 2F       		.uleb128 0x2f
 4857 0b94 7B040000 		.long	0x47b
 4858 0b98 1C000000 		.quad	.LBB292
 4858      00000000 
 4859 0ba0 C0020000 		.secrel32	.Ldebug_ranges0+0x2c0
 4860 0ba4 01       		.byte	0x1
 4861 0ba5 0C       		.byte	0xc
 4862 0ba6 510C0000 		.long	0xc51
 4863 0baa 30       		.uleb128 0x30
 4864 0bab 89040000 		.long	0x489
 4865 0baf 690B0000 		.secrel32	.LLST28
 4866 0bb3 2F       		.uleb128 0x2f
 4867 0bb4 DE030000 		.long	0x3de
 4868 0bb8 3D000000 		.quad	.LBB294
 4868      00000000 
 4869 0bc0 10030000 		.secrel32	.Ldebug_ranges0+0x310
 4870 0bc4 02       		.byte	0x2
 4871 0bc5 2E       		.byte	0x2e
 4872 0bc6 400C0000 		.long	0xc40
 4873 0bca 30       		.uleb128 0x30
 4874 0bcb EC030000 		.long	0x3ec
 4875 0bcf CA0B0000 		.secrel32	.LLST29
 4876 0bd3 31       		.uleb128 0x31
 4877 0bd4 A7030000 		.long	0x3a7
 4878 0bd8 3D000000 		.quad	.LBB296
 4878      00000000 
 4879 0be0 13000000 		.quad	.LBE296-.LBB296
 4879      00000000 
 4880 0be8 02       		.byte	0x2
 4881 0be9 36       		.byte	0x36
 4882 0bea 0B0C0000 		.long	0xc0b
 4883 0bee 30       		.uleb128 0x30
 4884 0bef B5030000 		.long	0x3b5
 4885 0bf3 CA0B0000 		.secrel32	.LLST29
 4886 0bf7 32       		.uleb128 0x32
 4887 0bf8 50000000 		.quad	.LVL66
 4887      00000000 
 4888 0c00 02       		.uleb128 0x2
 4889 0c01 73       		.byte	0x73
 4890 0c02 00       		.sleb128 0
 4891 0c03 33       		.uleb128 0x33
 4892 0c04 01       		.uleb128 0x1
 4893 0c05 52       		.byte	0x52
 4894 0c06 02       		.uleb128 0x2
 4895 0c07 75       		.byte	0x75
 4896 0c08 00       		.sleb128 0
 4897 0c09 00       		.byte	0
 4898 0c0a 00       		.byte	0
 4899 0c0b 34       		.uleb128 0x34
 4900 0c0c C5030000 		.long	0x3c5
 4901 0c10 50000000 		.quad	.LBB298
 4901      00000000 
 4902 0c18 09000000 		.quad	.LBE298-.LBB298
 4902      00000000 
 4903 0c20 02       		.byte	0x2
 4904 0c21 37       		.byte	0x37
 4905 0c22 30       		.uleb128 0x30
 4906 0c23 D3030000 		.long	0x3d3
 4907 0c27 020C0000 		.secrel32	.LLST31
 4908 0c2b 32       		.uleb128 0x32
 4909 0c2c 59000000 		.quad	.LVL67
 4909      00000000 
 4910 0c34 02       		.uleb128 0x2
 4911 0c35 73       		.byte	0x73
 4912 0c36 00       		.sleb128 0
 4913 0c37 33       		.uleb128 0x33
 4914 0c38 01       		.uleb128 0x1
 4915 0c39 52       		.byte	0x52
 4916 0c3a 02       		.uleb128 0x2
 4917 0c3b 75       		.byte	0x75
 4918 0c3c 08       		.sleb128 8
 4919 0c3d 00       		.byte	0
 4920 0c3e 00       		.byte	0
 4921 0c3f 00       		.byte	0
 4922 0c40 35       		.uleb128 0x35
 4923 0c41 3D000000 		.quad	.LVL65
 4923      00000000 
 4924 0c49 33       		.uleb128 0x33
 4925 0c4a 01       		.uleb128 0x1
 4926 0c4b 52       		.byte	0x52
 4927 0c4c 02       		.uleb128 0x2
 4928 0c4d 75       		.byte	0x75
 4929 0c4e 10       		.sleb128 16
 4930 0c4f 00       		.byte	0
 4931 0c50 00       		.byte	0
 4932 0c51 2F       		.uleb128 0x2f
 4933 0c52 A7030000 		.long	0x3a7
 4934 0c56 5D000000 		.quad	.LBB307
 4934      00000000 
 4935 0c5e 40030000 		.secrel32	.Ldebug_ranges0+0x340
 4936 0c62 01       		.byte	0x1
 4937 0c63 0C       		.byte	0xc
 4938 0c64 850C0000 		.long	0xc85
 4939 0c68 30       		.uleb128 0x30
 4940 0c69 B5030000 		.long	0x3b5
 4941 0c6d 3A0C0000 		.secrel32	.LLST32
 4942 0c71 32       		.uleb128 0x32
 4943 0c72 6D000000 		.quad	.LVL69
 4943      00000000 
 4944 0c7a 02       		.uleb128 0x2
 4945 0c7b 73       		.byte	0x73
 4946 0c7c 00       		.sleb128 0
 4947 0c7d 33       		.uleb128 0x33
 4948 0c7e 01       		.uleb128 0x1
 4949 0c7f 52       		.byte	0x52
 4950 0c80 02       		.uleb128 0x2
 4951 0c81 75       		.byte	0x75
 4952 0c82 00       		.sleb128 0
 4953 0c83 00       		.byte	0
 4954 0c84 00       		.byte	0
 4955 0c85 36       		.uleb128 0x36
 4956 0c86 70030000 		.secrel32	.Ldebug_ranges0+0x370
 4957 0c8a DD0C0000 		.long	0xcdd
 4958 0c8e 2C       		.uleb128 0x2c
 4959 0c8f 6900     		.ascii "i\0"
 4960 0c91 01       		.byte	0x1
 4961 0c92 0F       		.byte	0xf
 4962 0c93 9C000000 		.long	0x9c
 4963 0c97 720C0000 		.secrel32	.LLST33
 4964 0c9b 34       		.uleb128 0x34
 4965 0c9c D10A0000 		.long	0xad1
 4966 0ca0 B0000000 		.quad	.LBB313
 4966      00000000 
 4967 0ca8 0A000000 		.quad	.LBE313-.LBB313
 4967      00000000 
 4968 0cb0 01       		.byte	0x1
 4969 0cb1 10       		.byte	0x10
 4970 0cb2 30       		.uleb128 0x30
 4971 0cb3 350B0000 		.long	0xb35
 4972 0cb7 960C0000 		.secrel32	.LLST34
 4973 0cbb 30       		.uleb128 0x30
 4974 0cbc 270B0000 		.long	0xb27
 4975 0cc0 CE0C0000 		.secrel32	.LLST35
 4976 0cc4 37       		.uleb128 0x37
 4977 0cc5 B0000000 		.quad	.LBB314
 4977      00000000 
 4978 0ccd 0A000000 		.quad	.LBE314-.LBB314
 4978      00000000 
 4979 0cd5 38       		.uleb128 0x38
 4980 0cd6 3F0B0000 		.long	0xb3f
 4981 0cda 00       		.byte	0
 4982 0cdb 00       		.byte	0
 4983 0cdc 00       		.byte	0
 4984 0cdd 31       		.uleb128 0x31
 4985 0cde C5030000 		.long	0x3c5
 4986 0ce2 C4000000 		.quad	.LBB316
 4986      00000000 
 4987 0cea 0E000000 		.quad	.LBE316-.LBB316
 4987      00000000 
 4988 0cf2 01       		.byte	0x1
 4989 0cf3 11       		.byte	0x11
 4990 0cf4 1B0D0000 		.long	0xd1b
 4991 0cf8 3D       		.uleb128 0x3d
 4992 0cf9 D3030000 		.long	0x3d3
 4993 0cfd 03       		.uleb128 0x3
 4994 0cfe 91       		.byte	0x91
 4995 0cff 907F     		.sleb128 -112
 4996 0d01 32       		.uleb128 0x32
 4997 0d02 D2000000 		.quad	.LVL76
 4997      00000000 
 4998 0d0a 04       		.uleb128 0x4
 4999 0d0b 91       		.byte	0x91
 5000 0d0c 987F     		.sleb128 -104
 5001 0d0e 06       		.byte	0x6
 5002 0d0f 33       		.uleb128 0x33
 5003 0d10 01       		.uleb128 0x1
 5004 0d11 52       		.byte	0x52
 5005 0d12 06       		.uleb128 0x6
 5006 0d13 91       		.byte	0x91
 5007 0d14 907F     		.sleb128 -112
 5008 0d16 06       		.byte	0x6
 5009 0d17 23       		.byte	0x23
 5010 0d18 08       		.uleb128 0x8
 5011 0d19 00       		.byte	0
 5012 0d1a 00       		.byte	0
 5013 0d1b 2F       		.uleb128 0x2f
 5014 0d1c 17040000 		.long	0x417
 5015 0d20 D2000000 		.quad	.LBB318
 5015      00000000 
 5016 0d28 A0030000 		.secrel32	.Ldebug_ranges0+0x3a0
 5017 0d2c 01       		.byte	0x1
 5018 0d2d 11       		.byte	0x11
 5019 0d2e 3C0D0000 		.long	0xd3c
 5020 0d32 3D       		.uleb128 0x3d
 5021 0d33 25040000 		.long	0x425
 5022 0d37 03       		.uleb128 0x3
 5023 0d38 91       		.byte	0x91
 5024 0d39 907F     		.sleb128 -112
 5025 0d3b 00       		.byte	0
 5026 0d3c 3E       		.uleb128 0x3e
 5027 0d3d 70010000 		.quad	.LBB322
 5027      00000000 
 5028 0d45 15000000 		.quad	.LBE322-.LBB322
 5028      00000000 
 5029 0d4d 830D0000 		.long	0xd83
 5030 0d51 2C       		.uleb128 0x2c
 5031 0d52 6900     		.ascii "i\0"
 5032 0d54 01       		.byte	0x1
 5033 0d55 15       		.byte	0x15
 5034 0d56 9C000000 		.long	0x9c
 5035 0d5a F60C0000 		.secrel32	.LLST36
 5036 0d5e 2C       		.uleb128 0x2c
 5037 0d5f 73756D00 		.ascii "sum\0"
 5038 0d63 01       		.byte	0x1
 5039 0d64 15       		.byte	0x15
 5040 0d65 9C000000 		.long	0x9c
 5041 0d69 1A0D0000 		.secrel32	.LLST37
 5042 0d6d 1F       		.uleb128 0x1f
 5043 0d6e D0030000 		.secrel32	.Ldebug_ranges0+0x3d0
 5044 0d72 2C       		.uleb128 0x2c
 5045 0d73 746D7000 		.ascii "tmp\0"
 5046 0d77 01       		.byte	0x1
 5047 0d78 17       		.byte	0x17
 5048 0d79 AA000000 		.long	0xaa
 5049 0d7d 640D0000 		.secrel32	.LLST38
 5050 0d81 00       		.byte	0
 5051 0d82 00       		.byte	0
 5052 0d83 3E       		.uleb128 0x3e
 5053 0d84 85010000 		.quad	.LBB325
 5053      00000000 
 5054 0d8c 3A000000 		.quad	.LBE325-.LBB325
 5054      00000000 
 5055 0d94 E80D0000 		.long	0xde8
 5056 0d98 2C       		.uleb128 0x2c
 5057 0d99 6900     		.ascii "i\0"
 5058 0d9b 01       		.byte	0x1
 5059 0d9c 1D       		.byte	0x1d
 5060 0d9d 9C000000 		.long	0x9c
 5061 0da1 870D0000 		.secrel32	.LLST39
 5062 0da5 1F       		.uleb128 0x1f
 5063 0da6 00040000 		.secrel32	.Ldebug_ranges0+0x400
 5064 0daa 2D       		.uleb128 0x2d
 5065 0dab 62696E00 		.ascii "bin\0"
 5066 0daf 01       		.byte	0x1
 5067 0db0 1F       		.byte	0x1f
 5068 0db1 AA000000 		.long	0xaa
 5069 0db5 39       		.uleb128 0x39
 5070 0db6 D10A0000 		.long	0xad1
 5071 0dba 90010000 		.quad	.LBB327
 5071      00000000 
 5072 0dc2 40040000 		.secrel32	.Ldebug_ranges0+0x440
 5073 0dc6 01       		.byte	0x1
 5074 0dc7 1F       		.byte	0x1f
 5075 0dc8 30       		.uleb128 0x30
 5076 0dc9 350B0000 		.long	0xb35
 5077 0dcd BE0D0000 		.secrel32	.LLST40
 5078 0dd1 30       		.uleb128 0x30
 5079 0dd2 270B0000 		.long	0xb27
 5080 0dd6 020E0000 		.secrel32	.LLST41
 5081 0dda 1F       		.uleb128 0x1f
 5082 0ddb 40040000 		.secrel32	.Ldebug_ranges0+0x440
 5083 0ddf 38       		.uleb128 0x38
 5084 0de0 3F0B0000 		.long	0xb3f
 5085 0de4 00       		.byte	0
 5086 0de5 00       		.byte	0
 5087 0de6 00       		.byte	0
 5088 0de7 00       		.byte	0
 5089 0de8 3A       		.uleb128 0x3a
 5090 0de9 5A010000 		.quad	.LVL79
 5090      00000000 
 5091 0df1 382B0000 		.long	0x2b38
 5092 0df5 33       		.uleb128 0x33
 5093 0df6 01       		.uleb128 0x1
 5094 0df7 52       		.byte	0x52
 5095 0df8 09       		.uleb128 0x9
 5096 0df9 03       		.byte	0x3
 5097 0dfa 00000000 		.quad	.LC3
 5097      00000000 
 5098 0e02 00       		.byte	0
 5099 0e03 00       		.byte	0
 5100 0e04 00       		.byte	0
 5101 0e05 3B       		.uleb128 0x3b
 5102 0e06 AA000000 		.long	0xaa
 5103 0e0a 170E0000 		.long	0xe17
 5104 0e0e 3C       		.uleb128 0x3c
 5105 0e0f 19010000 		.long	0x119
 5106 0e13 02       		.uleb128 0x2
 5107 0e14 08       		.byte	0x8
 5108 0e15 3F       		.byte	0x3f
 5109 0e16 00       		.byte	0
 5110 0e17 19       		.uleb128 0x19
 5111 0e18 52616469 		.ascii "RadixSortPass<unsigned int, unsigned int, 0, 8>\0"
 5111      78536F72 
 5111      74506173 
 5111      733C756E 
 5111      7369676E 
 5112 0e48 01       		.byte	0x1
 5113 0e49 06       		.byte	0x6
 5114 0e4a 5F5A3133 		.ascii "_Z13RadixSortPassIjjLi0ELi8EEvPKT_PKT0_PS0_PS3_y\0"
 5114      52616469 
 5114      78536F72 
 5114      74506173 
 5114      73496A6A 
 5115 0e7b 00000000 		.quad	.LFB3011
 5115      00000000 
 5116 0e83 DE010000 		.quad	.LFE3011-.LFB3011
 5116      00000000 
 5117 0e8b 01       		.uleb128 0x1
 5118 0e8c 9C       		.byte	0x9c
 5119 0e8d 0D130000 		.long	0x130d
 5120 0e91 1A       		.uleb128 0x1a
 5121 0e92 4B657900 		.ascii "Key\0"
 5122 0e96 09010000 		.long	0x109
 5123 0e9a 1B       		.uleb128 0x1b
 5124 0e9b 36000000 		.secrel32	.LASF1
 5125 0e9f 09010000 		.long	0x109
 5126 0ea3 1C       		.uleb128 0x1c
 5127 0ea4 54000000 		.secrel32	.LASF2
 5128 0ea8 EB000000 		.long	0xeb
 5129 0eac 00       		.byte	0
 5130 0ead 1C       		.uleb128 0x1c
 5131 0eae 63000000 		.secrel32	.LASF3
 5132 0eb2 EB000000 		.long	0xeb
 5133 0eb6 08       		.byte	0x8
 5134 0eb7 1D       		.uleb128 0x1d
 5135 0eb8 00000000 		.secrel32	.LASF4
 5136 0ebc 01       		.byte	0x1
 5137 0ebd 06       		.byte	0x6
 5138 0ebe 35090000 		.long	0x935
 5139 0ec2 2A0E0000 		.secrel32	.LLST42
 5140 0ec6 1D       		.uleb128 0x1d
 5141 0ec7 77000000 		.secrel32	.LASF5
 5142 0ecb 01       		.byte	0x1
 5143 0ecc 06       		.byte	0x6
 5144 0ecd 35090000 		.long	0x935
 5145 0ed1 890E0000 		.secrel32	.LLST43
 5146 0ed5 1D       		.uleb128 0x1d
 5147 0ed6 3B000000 		.secrel32	.LASF6
 5148 0eda 01       		.byte	0x1
 5149 0edb 06       		.byte	0x6
 5150 0edc B1010000 		.long	0x1b1
 5151 0ee0 E80E0000 		.secrel32	.LLST44
 5152 0ee4 1D       		.uleb128 0x1d
 5153 0ee5 06000000 		.secrel32	.LASF7
 5154 0ee9 01       		.byte	0x1
 5155 0eea 06       		.byte	0x6
 5156 0eeb B1010000 		.long	0x1b1
 5157 0eef 470F0000 		.secrel32	.LLST45
 5158 0ef3 1E       		.uleb128 0x1e
 5159 0ef4 7E000000 		.secrel32	.LASF8
 5160 0ef8 01       		.byte	0x1
 5161 0ef9 06       		.byte	0x6
 5162 0efa 9C000000 		.long	0x9c
 5163 0efe 02       		.uleb128 0x2
 5164 0eff 91       		.byte	0x91
 5165 0f00 20       		.sleb128 32
 5166 0f01 36       		.uleb128 0x36
 5167 0f02 70040000 		.secrel32	.Ldebug_ranges0+0x470
 5168 0f06 EC120000 		.long	0x12ec
 5169 0f0a 3F       		.uleb128 0x3f
 5170 0f0b 8E000000 		.secrel32	.LASF15
 5171 0f0f 01       		.byte	0x1
 5172 0f10 08       		.byte	0x8
 5173 0f11 9C000000 		.long	0x9c
 5174 0f15 0001     		.word	0x100
 5175 0f17 21       		.uleb128 0x21
 5176 0f18 18000000 		.secrel32	.LASF9
 5177 0f1c 08       		.byte	0x8
 5178 0f1d 01       		.byte	0x1
 5179 0f1e 0A       		.byte	0xa
 5180 0f1f 1B100000 		.long	0x101b
 5181 0f23 22       		.uleb128 0x22
 5182 0f24 6C000000 		.secrel32	.LASF10
 5183 0f28 01       		.byte	0x1
 5184 0f29 0A       		.byte	0xa
 5185 0f2a 3F040000 		.long	0x43f
 5186 0f2e 00       		.byte	0
 5187 0f2f 23       		.uleb128 0x23
 5188 0f30 4B000000 		.secrel32	.LASF11
 5189 0f34 3C0F0000 		.long	0xf3c
 5190 0f38 530F0000 		.long	0xf53
 5191 0f3c 11       		.uleb128 0x11
 5192 0f3d 410F0000 		.long	0xf41
 5193 0f41 06       		.uleb128 0x6
 5194 0f42 08       		.byte	0x8
 5195 0f43 170F0000 		.long	0xf17
 5196 0f47 24       		.uleb128 0x24
 5197 0f48 4C0F0000 		.long	0xf4c
 5198 0f4c 25       		.uleb128 0x25
 5199 0f4d 08       		.byte	0x8
 5200 0f4e 170F0000 		.long	0xf17
 5201 0f52 00       		.byte	0
 5202 0f53 23       		.uleb128 0x23
 5203 0f54 4B000000 		.secrel32	.LASF11
 5204 0f58 600F0000 		.long	0xf60
 5205 0f5c 760F0000 		.long	0xf76
 5206 0f60 11       		.uleb128 0x11
 5207 0f61 410F0000 		.long	0xf41
 5208 0f65 24       		.uleb128 0x24
 5209 0f66 6A0F0000 		.long	0xf6a
 5210 0f6a 18       		.uleb128 0x18
 5211 0f6b 08       		.byte	0x8
 5212 0f6c 700F0000 		.long	0xf70
 5213 0f70 17       		.uleb128 0x17
 5214 0f71 170F0000 		.long	0xf17
 5215 0f75 00       		.byte	0
 5216 0f76 23       		.uleb128 0x23
 5217 0f77 4B000000 		.secrel32	.LASF11
 5218 0f7b 830F0000 		.long	0xf83
 5219 0f7f 890F0000 		.long	0xf89
 5220 0f83 11       		.uleb128 0x11
 5221 0f84 410F0000 		.long	0xf41
 5222 0f88 00       		.byte	0
 5223 0f89 23       		.uleb128 0x23
 5224 0f8a 0E000000 		.secrel32	.LASF12
 5225 0f8e 960F0000 		.long	0xf96
 5226 0f92 A10F0000 		.long	0xfa1
 5227 0f96 11       		.uleb128 0x11
 5228 0f97 410F0000 		.long	0xf41
 5229 0f9b 11       		.uleb128 0x11
 5230 0f9c EB000000 		.long	0xeb
 5231 0fa0 00       		.byte	0
 5232 0fa1 26       		.uleb128 0x26
 5233 0fa2 83000000 		.secrel32	.LASF13
 5234 0fa6 5F5A5A31 		.ascii "_ZZ13RadixSortPassIjjLi0ELi8EEvPKT_PKT0_PS0_PS3_yENKUlRKjE_clES9_\0"
 5234      33526164 
 5234      6978536F 
 5234      72745061 
 5234      7373496A 
 5235 0fe8 AA000000 		.long	0xaa
 5236 0fec 03       		.byte	0x3
 5237 0fed F70F0000 		.long	0xff7
 5238 0ff1 06       		.uleb128 0x6
 5239 0ff2 08       		.byte	0x8
 5240 0ff3 700F0000 		.long	0xf70
 5241 0ff7 27       		.uleb128 0x27
 5242 0ff8 97000000 		.secrel32	.LASF14
 5243 0ffc 00100000 		.long	0x1000
 5244 1000 17       		.uleb128 0x17
 5245 1001 F10F0000 		.long	0xff1
 5246 1005 28       		.uleb128 0x28
 5247 1006 7000     		.ascii "p\0"
 5248 1008 01       		.byte	0x1
 5249 1009 0A       		.byte	0xa
 5250 100a 44040000 		.long	0x444
 5251 100e 29       		.uleb128 0x29
 5252 100f 2A       		.uleb128 0x2a
 5253 1010 8E000000 		.secrel32	.LASF15
 5254 1014 49040000 		.long	0x449
 5255 1018 00       		.byte	0
 5256 1019 00       		.byte	0
 5257 101a 00       		.byte	0
 5258 101b 2B       		.uleb128 0x2b
 5259 101c 6B657900 		.ascii "key\0"
 5260 1020 01       		.byte	0x1
 5261 1021 0A       		.byte	0xa
 5262 1022 170F0000 		.long	0xf17
 5263 1026 08       		.uleb128 0x8
 5264 1027 F2       		.byte	0xf2
 5265 1028 0A0F0000 		.secrel32	.Ldebug_info0+3850
 5266 102c 00       		.sleb128 0
 5267 102d 93       		.byte	0x93
 5268 102e 08       		.uleb128 0x8
 5269 102f 2B       		.uleb128 0x2b
 5270 1030 7400     		.ascii "t\0"
 5271 1032 01       		.byte	0x1
 5272 1033 0C       		.byte	0xc
 5273 1034 7E020000 		.long	0x27e
 5274 1038 03       		.uleb128 0x3
 5275 1039 91       		.byte	0x91
 5276 103a 907F     		.sleb128 -112
 5277 103c 2C       		.uleb128 0x2c
 5278 103d 636E7400 		.ascii "cnt\0"
 5279 1041 01       		.byte	0x1
 5280 1042 0E       		.byte	0xe
 5281 1043 0D130000 		.long	0x130d
 5282 1047 A60F0000 		.secrel32	.LLST46
 5283 104b 2D       		.uleb128 0x2d
 5284 104c 7000     		.ascii "p\0"
 5285 104e 01       		.byte	0x1
 5286 104f 0E       		.byte	0xe
 5287 1050 35090000 		.long	0x935
 5288 1054 2E       		.uleb128 0x2e
 5289 1055 5D000000 		.secrel32	.LASF16
 5290 1059 01       		.byte	0x1
 5291 105a 11       		.byte	0x11
 5292 105b 74020000 		.long	0x274
 5293 105f 10100000 		.secrel32	.LLST47
 5294 1063 2F       		.uleb128 0x2f
 5295 1064 7B040000 		.long	0x47b
 5296 1068 1C000000 		.quad	.LBB362
 5296      00000000 
 5297 1070 B0040000 		.secrel32	.Ldebug_ranges0+0x4b0
 5298 1074 01       		.byte	0x1
 5299 1075 0C       		.byte	0xc
 5300 1076 21110000 		.long	0x1121
 5301 107a 30       		.uleb128 0x30
 5302 107b 89040000 		.long	0x489
 5303 107f 33100000 		.secrel32	.LLST48
 5304 1083 2F       		.uleb128 0x2f
 5305 1084 DE030000 		.long	0x3de
 5306 1088 36000000 		.quad	.LBB364
 5306      00000000 
 5307 1090 F0040000 		.secrel32	.Ldebug_ranges0+0x4f0
 5308 1094 02       		.byte	0x2
 5309 1095 2E       		.byte	0x2e
 5310 1096 10110000 		.long	0x1110
 5311 109a 30       		.uleb128 0x30
 5312 109b EC030000 		.long	0x3ec
 5313 109f 95100000 		.secrel32	.LLST49
 5314 10a3 31       		.uleb128 0x31
 5315 10a4 A7030000 		.long	0x3a7
 5316 10a8 36000000 		.quad	.LBB366
 5316      00000000 
 5317 10b0 13000000 		.quad	.LBE366-.LBB366
 5317      00000000 
 5318 10b8 02       		.byte	0x2
 5319 10b9 36       		.byte	0x36
 5320 10ba DB100000 		.long	0x10db
 5321 10be 30       		.uleb128 0x30
 5322 10bf B5030000 		.long	0x3b5
 5323 10c3 95100000 		.secrel32	.LLST49
 5324 10c7 32       		.uleb128 0x32
 5325 10c8 49000000 		.quad	.LVL99
 5325      00000000 
 5326 10d0 02       		.uleb128 0x2
 5327 10d1 73       		.byte	0x73
 5328 10d2 00       		.sleb128 0
 5329 10d3 33       		.uleb128 0x33
 5330 10d4 01       		.uleb128 0x1
 5331 10d5 52       		.byte	0x52
 5332 10d6 02       		.uleb128 0x2
 5333 10d7 7E       		.byte	0x7e
 5334 10d8 00       		.sleb128 0
 5335 10d9 00       		.byte	0
 5336 10da 00       		.byte	0
 5337 10db 34       		.uleb128 0x34
 5338 10dc C5030000 		.long	0x3c5
 5339 10e0 49000000 		.quad	.LBB368
 5339      00000000 
 5340 10e8 09000000 		.quad	.LBE368-.LBB368
 5340      00000000 
 5341 10f0 02       		.byte	0x2
 5342 10f1 37       		.byte	0x37
 5343 10f2 30       		.uleb128 0x30
 5344 10f3 D3030000 		.long	0x3d3
 5345 10f7 E1100000 		.secrel32	.LLST51
 5346 10fb 32       		.uleb128 0x32
 5347 10fc 52000000 		.quad	.LVL100
 5347      00000000 
 5348 1104 02       		.uleb128 0x2
 5349 1105 73       		.byte	0x73
 5350 1106 00       		.sleb128 0
 5351 1107 33       		.uleb128 0x33
 5352 1108 01       		.uleb128 0x1
 5353 1109 52       		.byte	0x52
 5354 110a 02       		.uleb128 0x2
 5355 110b 7E       		.byte	0x7e
 5356 110c 08       		.sleb128 8
 5357 110d 00       		.byte	0
 5358 110e 00       		.byte	0
 5359 110f 00       		.byte	0
 5360 1110 35       		.uleb128 0x35
 5361 1111 36000000 		.quad	.LVL98
 5361      00000000 
 5362 1119 33       		.uleb128 0x33
 5363 111a 01       		.uleb128 0x1
 5364 111b 52       		.byte	0x52
 5365 111c 02       		.uleb128 0x2
 5366 111d 7E       		.byte	0x7e
 5367 111e 10       		.sleb128 16
 5368 111f 00       		.byte	0
 5369 1120 00       		.byte	0
 5370 1121 2F       		.uleb128 0x2f
 5371 1122 A7030000 		.long	0x3a7
 5372 1126 56000000 		.quad	.LBB375
 5372      00000000 
 5373 112e 20050000 		.secrel32	.Ldebug_ranges0+0x520
 5374 1132 01       		.byte	0x1
 5375 1133 0C       		.byte	0xc
 5376 1134 55110000 		.long	0x1155
 5377 1138 30       		.uleb128 0x30
 5378 1139 B5030000 		.long	0x3b5
 5379 113d 2D110000 		.secrel32	.LLST52
 5380 1141 32       		.uleb128 0x32
 5381 1142 66000000 		.quad	.LVL102
 5381      00000000 
 5382 114a 02       		.uleb128 0x2
 5383 114b 73       		.byte	0x73
 5384 114c 00       		.sleb128 0
 5385 114d 33       		.uleb128 0x33
 5386 114e 01       		.uleb128 0x1
 5387 114f 52       		.byte	0x52
 5388 1150 02       		.uleb128 0x2
 5389 1151 7E       		.byte	0x7e
 5390 1152 00       		.sleb128 0
 5391 1153 00       		.byte	0
 5392 1154 00       		.byte	0
 5393 1155 3E       		.uleb128 0x3e
 5394 1156 9F000000 		.quad	.LBB380
 5394      00000000 
 5395 115e 22000000 		.quad	.LBE380-.LBB380
 5395      00000000 
 5396 1166 B9110000 		.long	0x11b9
 5397 116a 2C       		.uleb128 0x2c
 5398 116b 6900     		.ascii "i\0"
 5399 116d 01       		.byte	0x1
 5400 116e 0F       		.byte	0xf
 5401 116f 9C000000 		.long	0x9c
 5402 1173 79110000 		.secrel32	.LLST53
 5403 1177 34       		.uleb128 0x34
 5404 1178 A10F0000 		.long	0xfa1
 5405 117c B0000000 		.quad	.LBB381
 5405      00000000 
 5406 1184 07000000 		.quad	.LBE381-.LBB381
 5406      00000000 
 5407 118c 01       		.byte	0x1
 5408 118d 10       		.byte	0x10
 5409 118e 30       		.uleb128 0x30
 5410 118f 05100000 		.long	0x1005
 5411 1193 9D110000 		.secrel32	.LLST54
 5412 1197 30       		.uleb128 0x30
 5413 1198 F70F0000 		.long	0xff7
 5414 119c D5110000 		.secrel32	.LLST55
 5415 11a0 37       		.uleb128 0x37
 5416 11a1 B0000000 		.quad	.LBB382
 5416      00000000 
 5417 11a9 07000000 		.quad	.LBE382-.LBB382
 5417      00000000 
 5418 11b1 38       		.uleb128 0x38
 5419 11b2 0F100000 		.long	0x100f
 5420 11b6 00       		.byte	0
 5421 11b7 00       		.byte	0
 5422 11b8 00       		.byte	0
 5423 11b9 31       		.uleb128 0x31
 5424 11ba C5030000 		.long	0x3c5
 5425 11be C1000000 		.quad	.LBB383
 5425      00000000 
 5426 11c6 0A000000 		.quad	.LBE383-.LBB383
 5426      00000000 
 5427 11ce 01       		.byte	0x1
 5428 11cf 11       		.byte	0x11
 5429 11d0 F3110000 		.long	0x11f3
 5430 11d4 30       		.uleb128 0x30
 5431 11d5 D3030000 		.long	0x3d3
 5432 11d9 FD110000 		.secrel32	.LLST56
 5433 11dd 32       		.uleb128 0x32
 5434 11de CB000000 		.quad	.LVL108
 5434      00000000 
 5435 11e6 04       		.uleb128 0x4
 5436 11e7 91       		.byte	0x91
 5437 11e8 987F     		.sleb128 -104
 5438 11ea 06       		.byte	0x6
 5439 11eb 33       		.uleb128 0x33
 5440 11ec 01       		.uleb128 0x1
 5441 11ed 52       		.byte	0x52
 5442 11ee 02       		.uleb128 0x2
 5443 11ef 7E       		.byte	0x7e
 5444 11f0 08       		.sleb128 8
 5445 11f1 00       		.byte	0
 5446 11f2 00       		.byte	0
 5447 11f3 2F       		.uleb128 0x2f
 5448 11f4 17040000 		.long	0x417
 5449 11f8 CB000000 		.quad	.LBB385
 5449      00000000 
 5450 1200 50050000 		.secrel32	.Ldebug_ranges0+0x550
 5451 1204 01       		.byte	0x1
 5452 1205 11       		.byte	0x11
 5453 1206 14120000 		.long	0x1214
 5454 120a 30       		.uleb128 0x30
 5455 120b 25040000 		.long	0x425
 5456 120f 49120000 		.secrel32	.LLST57
 5457 1213 00       		.byte	0
 5458 1214 3E       		.uleb128 0x3e
 5459 1215 60010000 		.quad	.LBB389
 5459      00000000 
 5460 121d 15000000 		.quad	.LBE389-.LBB389
 5460      00000000 
 5461 1225 5B120000 		.long	0x125b
 5462 1229 2C       		.uleb128 0x2c
 5463 122a 6900     		.ascii "i\0"
 5464 122c 01       		.byte	0x1
 5465 122d 15       		.byte	0x15
 5466 122e 9C000000 		.long	0x9c
 5467 1232 95120000 		.secrel32	.LLST58
 5468 1236 2C       		.uleb128 0x2c
 5469 1237 73756D00 		.ascii "sum\0"
 5470 123b 01       		.byte	0x1
 5471 123c 15       		.byte	0x15
 5472 123d 9C000000 		.long	0x9c
 5473 1241 B9120000 		.secrel32	.LLST59
 5474 1245 1F       		.uleb128 0x1f
 5475 1246 80050000 		.secrel32	.Ldebug_ranges0+0x580
 5476 124a 2C       		.uleb128 0x2c
 5477 124b 746D7000 		.ascii "tmp\0"
 5478 124f 01       		.byte	0x1
 5479 1250 17       		.byte	0x17
 5480 1251 AA000000 		.long	0xaa
 5481 1255 03130000 		.secrel32	.LLST60
 5482 1259 00       		.byte	0
 5483 125a 00       		.byte	0
 5484 125b 3E       		.uleb128 0x3e
 5485 125c 75010000 		.quad	.LBB392
 5485      00000000 
 5486 1264 37000000 		.quad	.LBE392-.LBB392
 5486      00000000 
 5487 126c D0120000 		.long	0x12d0
 5488 1270 2C       		.uleb128 0x2c
 5489 1271 6900     		.ascii "i\0"
 5490 1273 01       		.byte	0x1
 5491 1274 1D       		.byte	0x1d
 5492 1275 9C000000 		.long	0x9c
 5493 1279 26130000 		.secrel32	.LLST61
 5494 127d 1F       		.uleb128 0x1f
 5495 127e B0050000 		.secrel32	.Ldebug_ranges0+0x5b0
 5496 1282 2D       		.uleb128 0x2d
 5497 1283 62696E00 		.ascii "bin\0"
 5498 1287 01       		.byte	0x1
 5499 1288 1F       		.byte	0x1f
 5500 1289 AA000000 		.long	0xaa
 5501 128d 34       		.uleb128 0x34
 5502 128e A10F0000 		.long	0xfa1
 5503 1292 80010000 		.quad	.LBB394
 5503      00000000 
 5504 129a 04000000 		.quad	.LBE394-.LBB394
 5504      00000000 
 5505 12a2 01       		.byte	0x1
 5506 12a3 1F       		.byte	0x1f
 5507 12a4 30       		.uleb128 0x30
 5508 12a5 05100000 		.long	0x1005
 5509 12a9 5D130000 		.secrel32	.LLST62
 5510 12ad 30       		.uleb128 0x30
 5511 12ae F70F0000 		.long	0xff7
 5512 12b2 A1130000 		.secrel32	.LLST63
 5513 12b6 37       		.uleb128 0x37
 5514 12b7 80010000 		.quad	.LBB395
 5514      00000000 
 5515 12bf 04000000 		.quad	.LBE395-.LBB395
 5515      00000000 
 5516 12c7 38       		.uleb128 0x38
 5517 12c8 0F100000 		.long	0x100f
 5518 12cc 00       		.byte	0
 5519 12cd 00       		.byte	0
 5520 12ce 00       		.byte	0
 5521 12cf 00       		.byte	0
 5522 12d0 3A       		.uleb128 0x3a
 5523 12d1 53010000 		.quad	.LVL111
 5523      00000000 
 5524 12d9 382B0000 		.long	0x2b38
 5525 12dd 33       		.uleb128 0x33
 5526 12de 01       		.uleb128 0x1
 5527 12df 52       		.byte	0x52
 5528 12e0 09       		.uleb128 0x9
 5529 12e1 03       		.byte	0x3
 5530 12e2 00000000 		.quad	.LC3
 5530      00000000 
 5531 12ea 00       		.byte	0
 5532 12eb 00       		.byte	0
 5533 12ec 3A       		.uleb128 0x3a
 5534 12ed 9B000000 		.quad	.LVL104
 5534      00000000 
 5535 12f5 5D2B0000 		.long	0x2b5d
 5536 12f9 33       		.uleb128 0x33
 5537 12fa 01       		.uleb128 0x1
 5538 12fb 52       		.byte	0x52
 5539 12fc 02       		.uleb128 0x2
 5540 12fd 73       		.byte	0x73
 5541 12fe 08       		.sleb128 8
 5542 12ff 33       		.uleb128 0x33
 5543 1300 01       		.uleb128 0x1
 5544 1301 51       		.byte	0x51
 5545 1302 01       		.uleb128 0x1
 5546 1303 30       		.byte	0x30
 5547 1304 33       		.uleb128 0x33
 5548 1305 01       		.uleb128 0x1
 5549 1306 58       		.byte	0x58
 5550 1307 03       		.uleb128 0x3
 5551 1308 0A       		.byte	0xa
 5552 1309 F807     		.word	0x7f8
 5553 130b 00       		.byte	0
 5554 130c 00       		.byte	0
 5555 130d 3B       		.uleb128 0x3b
 5556 130e AA000000 		.long	0xaa
 5557 1312 1F130000 		.long	0x131f
 5558 1316 3C       		.uleb128 0x3c
 5559 1317 19010000 		.long	0x119
 5560 131b 02       		.uleb128 0x2
 5561 131c 08       		.byte	0x8
 5562 131d FF       		.byte	0xff
 5563 131e 00       		.byte	0
 5564 131f 19       		.uleb128 0x19
 5565 1320 52616469 		.ascii "RadixSortPass<unsigned int, unsigned int, 0, 12>\0"
 5565      78536F72 
 5565      74506173 
 5565      733C756E 
 5565      7369676E 
 5566 1351 01       		.byte	0x1
 5567 1352 06       		.byte	0x6
 5568 1353 5F5A3133 		.ascii "_Z13RadixSortPassIjjLi0ELi12EEvPKT_PKT0_PS0_PS3_y\0"
 5568      52616469 
 5568      78536F72 
 5568      74506173 
 5568      73496A6A 
 5569 1385 00000000 		.quad	.LFB3013
 5569      00000000 
 5570 138d E4010000 		.quad	.LFE3013-.LFB3013
 5570      00000000 
 5571 1395 01       		.uleb128 0x1
 5572 1396 9C       		.byte	0x9c
 5573 1397 08180000 		.long	0x1808
 5574 139b 1A       		.uleb128 0x1a
 5575 139c 4B657900 		.ascii "Key\0"
 5576 13a0 09010000 		.long	0x109
 5577 13a4 1B       		.uleb128 0x1b
 5578 13a5 36000000 		.secrel32	.LASF1
 5579 13a9 09010000 		.long	0x109
 5580 13ad 1C       		.uleb128 0x1c
 5581 13ae 54000000 		.secrel32	.LASF2
 5582 13b2 EB000000 		.long	0xeb
 5583 13b6 00       		.byte	0
 5584 13b7 1C       		.uleb128 0x1c
 5585 13b8 63000000 		.secrel32	.LASF3
 5586 13bc EB000000 		.long	0xeb
 5587 13c0 0C       		.byte	0xc
 5588 13c1 1D       		.uleb128 0x1d
 5589 13c2 00000000 		.secrel32	.LASF4
 5590 13c6 01       		.byte	0x1
 5591 13c7 06       		.byte	0x6
 5592 13c8 35090000 		.long	0x935
 5593 13cc C9130000 		.secrel32	.LLST64
 5594 13d0 1D       		.uleb128 0x1d
 5595 13d1 77000000 		.secrel32	.LASF5
 5596 13d5 01       		.byte	0x1
 5597 13d6 06       		.byte	0x6
 5598 13d7 35090000 		.long	0x935
 5599 13db 28140000 		.secrel32	.LLST65
 5600 13df 1D       		.uleb128 0x1d
 5601 13e0 3B000000 		.secrel32	.LASF6
 5602 13e4 01       		.byte	0x1
 5603 13e5 06       		.byte	0x6
 5604 13e6 B1010000 		.long	0x1b1
 5605 13ea 87140000 		.secrel32	.LLST66
 5606 13ee 1D       		.uleb128 0x1d
 5607 13ef 06000000 		.secrel32	.LASF7
 5608 13f3 01       		.byte	0x1
 5609 13f4 06       		.byte	0x6
 5610 13f5 B1010000 		.long	0x1b1
 5611 13f9 E6140000 		.secrel32	.LLST67
 5612 13fd 1E       		.uleb128 0x1e
 5613 13fe 7E000000 		.secrel32	.LASF8
 5614 1402 01       		.byte	0x1
 5615 1403 06       		.byte	0x6
 5616 1404 9C000000 		.long	0x9c
 5617 1408 02       		.uleb128 0x2
 5618 1409 91       		.byte	0x91
 5619 140a 20       		.sleb128 32
 5620 140b 36       		.uleb128 0x36
 5621 140c F0050000 		.secrel32	.Ldebug_ranges0+0x5f0
 5622 1410 E7170000 		.long	0x17e7
 5623 1414 3F       		.uleb128 0x3f
 5624 1415 8E000000 		.secrel32	.LASF15
 5625 1419 01       		.byte	0x1
 5626 141a 08       		.byte	0x8
 5627 141b 9C000000 		.long	0x9c
 5628 141f 0010     		.word	0x1000
 5629 1421 21       		.uleb128 0x21
 5630 1422 18000000 		.secrel32	.LASF9
 5631 1426 08       		.byte	0x8
 5632 1427 01       		.byte	0x1
 5633 1428 0A       		.byte	0xa
 5634 1429 26150000 		.long	0x1526
 5635 142d 22       		.uleb128 0x22
 5636 142e 6C000000 		.secrel32	.LASF10
 5637 1432 01       		.byte	0x1
 5638 1433 0A       		.byte	0xa
 5639 1434 4E040000 		.long	0x44e
 5640 1438 00       		.byte	0
 5641 1439 23       		.uleb128 0x23
 5642 143a 4B000000 		.secrel32	.LASF11
 5643 143e 46140000 		.long	0x1446
 5644 1442 5D140000 		.long	0x145d
 5645 1446 11       		.uleb128 0x11
 5646 1447 4B140000 		.long	0x144b
 5647 144b 06       		.uleb128 0x6
 5648 144c 08       		.byte	0x8
 5649 144d 21140000 		.long	0x1421
 5650 1451 24       		.uleb128 0x24
 5651 1452 56140000 		.long	0x1456
 5652 1456 25       		.uleb128 0x25
 5653 1457 08       		.byte	0x8
 5654 1458 21140000 		.long	0x1421
 5655 145c 00       		.byte	0
 5656 145d 23       		.uleb128 0x23
 5657 145e 4B000000 		.secrel32	.LASF11
 5658 1462 6A140000 		.long	0x146a
 5659 1466 80140000 		.long	0x1480
 5660 146a 11       		.uleb128 0x11
 5661 146b 4B140000 		.long	0x144b
 5662 146f 24       		.uleb128 0x24
 5663 1470 74140000 		.long	0x1474
 5664 1474 18       		.uleb128 0x18
 5665 1475 08       		.byte	0x8
 5666 1476 7A140000 		.long	0x147a
 5667 147a 17       		.uleb128 0x17
 5668 147b 21140000 		.long	0x1421
 5669 147f 00       		.byte	0
 5670 1480 23       		.uleb128 0x23
 5671 1481 4B000000 		.secrel32	.LASF11
 5672 1485 8D140000 		.long	0x148d
 5673 1489 93140000 		.long	0x1493
 5674 148d 11       		.uleb128 0x11
 5675 148e 4B140000 		.long	0x144b
 5676 1492 00       		.byte	0
 5677 1493 23       		.uleb128 0x23
 5678 1494 0E000000 		.secrel32	.LASF12
 5679 1498 A0140000 		.long	0x14a0
 5680 149c AB140000 		.long	0x14ab
 5681 14a0 11       		.uleb128 0x11
 5682 14a1 4B140000 		.long	0x144b
 5683 14a5 11       		.uleb128 0x11
 5684 14a6 EB000000 		.long	0xeb
 5685 14aa 00       		.byte	0
 5686 14ab 26       		.uleb128 0x26
 5687 14ac 83000000 		.secrel32	.LASF13
 5688 14b0 5F5A5A31 		.ascii "_ZZ13RadixSortPassIjjLi0ELi12EEvPKT_PKT0_PS0_PS3_yENKUlRKjE_clES9_\0"
 5688      33526164 
 5688      6978536F 
 5688      72745061 
 5688      7373496A 
 5689 14f3 AA000000 		.long	0xaa
 5690 14f7 03       		.byte	0x3
 5691 14f8 02150000 		.long	0x1502
 5692 14fc 06       		.uleb128 0x6
 5693 14fd 08       		.byte	0x8
 5694 14fe 7A140000 		.long	0x147a
 5695 1502 27       		.uleb128 0x27
 5696 1503 97000000 		.secrel32	.LASF14
 5697 1507 0B150000 		.long	0x150b
 5698 150b 17       		.uleb128 0x17
 5699 150c FC140000 		.long	0x14fc
 5700 1510 28       		.uleb128 0x28
 5701 1511 7000     		.ascii "p\0"
 5702 1513 01       		.byte	0x1
 5703 1514 0A       		.byte	0xa
 5704 1515 53040000 		.long	0x453
 5705 1519 29       		.uleb128 0x29
 5706 151a 2A       		.uleb128 0x2a
 5707 151b 8E000000 		.secrel32	.LASF15
 5708 151f 58040000 		.long	0x458
 5709 1523 00       		.byte	0
 5710 1524 00       		.byte	0
 5711 1525 00       		.byte	0
 5712 1526 2B       		.uleb128 0x2b
 5713 1527 6B657900 		.ascii "key\0"
 5714 152b 01       		.byte	0x1
 5715 152c 0A       		.byte	0xa
 5716 152d 21140000 		.long	0x1421
 5717 1531 08       		.uleb128 0x8
 5718 1532 F2       		.byte	0xf2
 5719 1533 14140000 		.secrel32	.Ldebug_info0+5140
 5720 1537 00       		.sleb128 0
 5721 1538 93       		.byte	0x93
 5722 1539 08       		.uleb128 0x8
 5723 153a 2B       		.uleb128 0x2b
 5724 153b 7400     		.ascii "t\0"
 5725 153d 01       		.byte	0x1
 5726 153e 0C       		.byte	0xc
 5727 153f 7E020000 		.long	0x27e
 5728 1543 03       		.uleb128 0x3
 5729 1544 91       		.byte	0x91
 5730 1545 907F     		.sleb128 -112
 5731 1547 2C       		.uleb128 0x2c
 5732 1548 636E7400 		.ascii "cnt\0"
 5733 154c 01       		.byte	0x1
 5734 154d 0E       		.byte	0xe
 5735 154e 08180000 		.long	0x1808
 5736 1552 45150000 		.secrel32	.LLST68
 5737 1556 2D       		.uleb128 0x2d
 5738 1557 7000     		.ascii "p\0"
 5739 1559 01       		.byte	0x1
 5740 155a 0E       		.byte	0xe
 5741 155b 35090000 		.long	0x935
 5742 155f 2E       		.uleb128 0x2e
 5743 1560 5D000000 		.secrel32	.LASF16
 5744 1564 01       		.byte	0x1
 5745 1565 11       		.byte	0x11
 5746 1566 74020000 		.long	0x274
 5747 156a 7D150000 		.secrel32	.LLST69
 5748 156e 2F       		.uleb128 0x2f
 5749 156f 7B040000 		.long	0x47b
 5750 1573 1C000000 		.quad	.LBB426
 5750      00000000 
 5751 157b 30060000 		.secrel32	.Ldebug_ranges0+0x630
 5752 157f 01       		.byte	0x1
 5753 1580 0C       		.byte	0xc
 5754 1581 2C160000 		.long	0x162c
 5755 1585 30       		.uleb128 0x30
 5756 1586 89040000 		.long	0x489
 5757 158a A0150000 		.secrel32	.LLST70
 5758 158e 2F       		.uleb128 0x2f
 5759 158f DE030000 		.long	0x3de
 5760 1593 36000000 		.quad	.LBB428
 5760      00000000 
 5761 159b 70060000 		.secrel32	.Ldebug_ranges0+0x670
 5762 159f 02       		.byte	0x2
 5763 15a0 2E       		.byte	0x2e
 5764 15a1 1B160000 		.long	0x161b
 5765 15a5 30       		.uleb128 0x30
 5766 15a6 EC030000 		.long	0x3ec
 5767 15aa 02160000 		.secrel32	.LLST71
 5768 15ae 31       		.uleb128 0x31
 5769 15af A7030000 		.long	0x3a7
 5770 15b3 36000000 		.quad	.LBB430
 5770      00000000 
 5771 15bb 13000000 		.quad	.LBE430-.LBB430
 5771      00000000 
 5772 15c3 02       		.byte	0x2
 5773 15c4 36       		.byte	0x36
 5774 15c5 E6150000 		.long	0x15e6
 5775 15c9 30       		.uleb128 0x30
 5776 15ca B5030000 		.long	0x3b5
 5777 15ce 02160000 		.secrel32	.LLST71
 5778 15d2 32       		.uleb128 0x32
 5779 15d3 49000000 		.quad	.LVL132
 5779      00000000 
 5780 15db 02       		.uleb128 0x2
 5781 15dc 73       		.byte	0x73
 5782 15dd 00       		.sleb128 0
 5783 15de 33       		.uleb128 0x33
 5784 15df 01       		.uleb128 0x1
 5785 15e0 52       		.byte	0x52
 5786 15e1 02       		.uleb128 0x2
 5787 15e2 7E       		.byte	0x7e
 5788 15e3 00       		.sleb128 0
 5789 15e4 00       		.byte	0
 5790 15e5 00       		.byte	0
 5791 15e6 34       		.uleb128 0x34
 5792 15e7 C5030000 		.long	0x3c5
 5793 15eb 49000000 		.quad	.LBB432
 5793      00000000 
 5794 15f3 09000000 		.quad	.LBE432-.LBB432
 5794      00000000 
 5795 15fb 02       		.byte	0x2
 5796 15fc 37       		.byte	0x37
 5797 15fd 30       		.uleb128 0x30
 5798 15fe D3030000 		.long	0x3d3
 5799 1602 4E160000 		.secrel32	.LLST73
 5800 1606 32       		.uleb128 0x32
 5801 1607 52000000 		.quad	.LVL133
 5801      00000000 
 5802 160f 02       		.uleb128 0x2
 5803 1610 73       		.byte	0x73
 5804 1611 00       		.sleb128 0
 5805 1612 33       		.uleb128 0x33
 5806 1613 01       		.uleb128 0x1
 5807 1614 52       		.byte	0x52
 5808 1615 02       		.uleb128 0x2
 5809 1616 7E       		.byte	0x7e
 5810 1617 08       		.sleb128 8
 5811 1618 00       		.byte	0
 5812 1619 00       		.byte	0
 5813 161a 00       		.byte	0
 5814 161b 35       		.uleb128 0x35
 5815 161c 36000000 		.quad	.LVL131
 5815      00000000 
 5816 1624 33       		.uleb128 0x33
 5817 1625 01       		.uleb128 0x1
 5818 1626 52       		.byte	0x52
 5819 1627 02       		.uleb128 0x2
 5820 1628 7E       		.byte	0x7e
 5821 1629 10       		.sleb128 16
 5822 162a 00       		.byte	0
 5823 162b 00       		.byte	0
 5824 162c 2F       		.uleb128 0x2f
 5825 162d A7030000 		.long	0x3a7
 5826 1631 56000000 		.quad	.LBB439
 5826      00000000 
 5827 1639 A0060000 		.secrel32	.Ldebug_ranges0+0x6a0
 5828 163d 01       		.byte	0x1
 5829 163e 0C       		.byte	0xc
 5830 163f 60160000 		.long	0x1660
 5831 1643 30       		.uleb128 0x30
 5832 1644 B5030000 		.long	0x3b5
 5833 1648 9A160000 		.secrel32	.LLST74
 5834 164c 32       		.uleb128 0x32
 5835 164d 66000000 		.quad	.LVL135
 5835      00000000 
 5836 1655 02       		.uleb128 0x2
 5837 1656 73       		.byte	0x73
 5838 1657 00       		.sleb128 0
 5839 1658 33       		.uleb128 0x33
 5840 1659 01       		.uleb128 0x1
 5841 165a 52       		.byte	0x52
 5842 165b 02       		.uleb128 0x2
 5843 165c 7E       		.byte	0x7e
 5844 165d 00       		.sleb128 0
 5845 165e 00       		.byte	0
 5846 165f 00       		.byte	0
 5847 1660 3E       		.uleb128 0x3e
 5848 1661 A5000000 		.quad	.LBB444
 5848      00000000 
 5849 1669 21000000 		.quad	.LBE444-.LBB444
 5849      00000000 
 5850 1671 C4160000 		.long	0x16c4
 5851 1675 2C       		.uleb128 0x2c
 5852 1676 6900     		.ascii "i\0"
 5853 1678 01       		.byte	0x1
 5854 1679 0F       		.byte	0xf
 5855 167a 9C000000 		.long	0x9c
 5856 167e E6160000 		.secrel32	.LLST75
 5857 1682 34       		.uleb128 0x34
 5858 1683 AB140000 		.long	0x14ab
 5859 1687 B0000000 		.quad	.LBB445
 5859      00000000 
 5860 168f 0C000000 		.quad	.LBE445-.LBB445
 5860      00000000 
 5861 1697 01       		.byte	0x1
 5862 1698 10       		.byte	0x10
 5863 1699 30       		.uleb128 0x30
 5864 169a 10150000 		.long	0x1510
 5865 169e 0A170000 		.secrel32	.LLST76
 5866 16a2 30       		.uleb128 0x30
 5867 16a3 02150000 		.long	0x1502
 5868 16a7 42170000 		.secrel32	.LLST77
 5869 16ab 37       		.uleb128 0x37
 5870 16ac B0000000 		.quad	.LBB446
 5870      00000000 
 5871 16b4 0C000000 		.quad	.LBE446-.LBB446
 5871      00000000 
 5872 16bc 38       		.uleb128 0x38
 5873 16bd 1A150000 		.long	0x151a
 5874 16c1 00       		.byte	0
 5875 16c2 00       		.byte	0
 5876 16c3 00       		.byte	0
 5877 16c4 31       		.uleb128 0x31
 5878 16c5 C5030000 		.long	0x3c5
 5879 16c9 C6000000 		.quad	.LBB447
 5879      00000000 
 5880 16d1 0A000000 		.quad	.LBE447-.LBB447
 5880      00000000 
 5881 16d9 01       		.byte	0x1
 5882 16da 11       		.byte	0x11
 5883 16db FE160000 		.long	0x16fe
 5884 16df 30       		.uleb128 0x30
 5885 16e0 D3030000 		.long	0x3d3
 5886 16e4 6A170000 		.secrel32	.LLST78
 5887 16e8 32       		.uleb128 0x32
 5888 16e9 D0000000 		.quad	.LVL141
 5888      00000000 
 5889 16f1 04       		.uleb128 0x4
 5890 16f2 91       		.byte	0x91
 5891 16f3 987F     		.sleb128 -104
 5892 16f5 06       		.byte	0x6
 5893 16f6 33       		.uleb128 0x33
 5894 16f7 01       		.uleb128 0x1
 5895 16f8 52       		.byte	0x52
 5896 16f9 02       		.uleb128 0x2
 5897 16fa 7E       		.byte	0x7e
 5898 16fb 08       		.sleb128 8
 5899 16fc 00       		.byte	0
 5900 16fd 00       		.byte	0
 5901 16fe 2F       		.uleb128 0x2f
 5902 16ff 17040000 		.long	0x417
 5903 1703 D0000000 		.quad	.LBB449
 5903      00000000 
 5904 170b D0060000 		.secrel32	.Ldebug_ranges0+0x6d0
 5905 170f 01       		.byte	0x1
 5906 1710 11       		.byte	0x11
 5907 1711 1F170000 		.long	0x171f
 5908 1715 30       		.uleb128 0x30
 5909 1716 25040000 		.long	0x425
 5910 171a B6170000 		.secrel32	.LLST79
 5911 171e 00       		.byte	0
 5912 171f 3E       		.uleb128 0x3e
 5913 1720 64010000 		.quad	.LBB453
 5913      00000000 
 5914 1728 15000000 		.quad	.LBE453-.LBB453
 5914      00000000 
 5915 1730 66170000 		.long	0x1766
 5916 1734 2C       		.uleb128 0x2c
 5917 1735 6900     		.ascii "i\0"
 5918 1737 01       		.byte	0x1
 5919 1738 15       		.byte	0x15
 5920 1739 9C000000 		.long	0x9c
 5921 173d 02180000 		.secrel32	.LLST80
 5922 1741 2C       		.uleb128 0x2c
 5923 1742 73756D00 		.ascii "sum\0"
 5924 1746 01       		.byte	0x1
 5925 1747 15       		.byte	0x15
 5926 1748 9C000000 		.long	0x9c
 5927 174c 26180000 		.secrel32	.LLST81
 5928 1750 1F       		.uleb128 0x1f
 5929 1751 00070000 		.secrel32	.Ldebug_ranges0+0x700
 5930 1755 2C       		.uleb128 0x2c
 5931 1756 746D7000 		.ascii "tmp\0"
 5932 175a 01       		.byte	0x1
 5933 175b 17       		.byte	0x17
 5934 175c AA000000 		.long	0xaa
 5935 1760 70180000 		.secrel32	.LLST82
 5936 1764 00       		.byte	0
 5937 1765 00       		.byte	0
 5938 1766 3E       		.uleb128 0x3e
 5939 1767 79010000 		.quad	.LBB456
 5939      00000000 
 5940 176f 39000000 		.quad	.LBE456-.LBB456
 5940      00000000 
 5941 1777 CB170000 		.long	0x17cb
 5942 177b 2C       		.uleb128 0x2c
 5943 177c 6900     		.ascii "i\0"
 5944 177e 01       		.byte	0x1
 5945 177f 1D       		.byte	0x1d
 5946 1780 9C000000 		.long	0x9c
 5947 1784 93180000 		.secrel32	.LLST83
 5948 1788 1F       		.uleb128 0x1f
 5949 1789 30070000 		.secrel32	.Ldebug_ranges0+0x730
 5950 178d 2D       		.uleb128 0x2d
 5951 178e 62696E00 		.ascii "bin\0"
 5952 1792 01       		.byte	0x1
 5953 1793 1F       		.byte	0x1f
 5954 1794 AA000000 		.long	0xaa
 5955 1798 39       		.uleb128 0x39
 5956 1799 AB140000 		.long	0x14ab
 5957 179d 80010000 		.quad	.LBB458
 5957      00000000 
 5958 17a5 70070000 		.secrel32	.Ldebug_ranges0+0x770
 5959 17a9 01       		.byte	0x1
 5960 17aa 1F       		.byte	0x1f
 5961 17ab 30       		.uleb128 0x30
 5962 17ac 10150000 		.long	0x1510
 5963 17b0 CA180000 		.secrel32	.LLST84
 5964 17b4 30       		.uleb128 0x30
 5965 17b5 02150000 		.long	0x1502
 5966 17b9 0E190000 		.secrel32	.LLST85
 5967 17bd 1F       		.uleb128 0x1f
 5968 17be 70070000 		.secrel32	.Ldebug_ranges0+0x770
 5969 17c2 38       		.uleb128 0x38
 5970 17c3 1A150000 		.long	0x151a
 5971 17c7 00       		.byte	0
 5972 17c8 00       		.byte	0
 5973 17c9 00       		.byte	0
 5974 17ca 00       		.byte	0
 5975 17cb 3A       		.uleb128 0x3a
 5976 17cc 58010000 		.quad	.LVL144
 5976      00000000 
 5977 17d4 382B0000 		.long	0x2b38
 5978 17d8 33       		.uleb128 0x33
 5979 17d9 01       		.uleb128 0x1
 5980 17da 52       		.byte	0x52
 5981 17db 09       		.uleb128 0x9
 5982 17dc 03       		.byte	0x3
 5983 17dd 00000000 		.quad	.LC3
 5983      00000000 
 5984 17e5 00       		.byte	0
 5985 17e6 00       		.byte	0
 5986 17e7 3A       		.uleb128 0x3a
 5987 17e8 A1000000 		.quad	.LVL137
 5987      00000000 
 5988 17f0 5D2B0000 		.long	0x2b5d
 5989 17f4 33       		.uleb128 0x33
 5990 17f5 01       		.uleb128 0x1
 5991 17f6 52       		.byte	0x52
 5992 17f7 02       		.uleb128 0x2
 5993 17f8 73       		.byte	0x73
 5994 17f9 08       		.sleb128 8
 5995 17fa 33       		.uleb128 0x33
 5996 17fb 01       		.uleb128 0x1
 5997 17fc 51       		.byte	0x51
 5998 17fd 01       		.uleb128 0x1
 5999 17fe 30       		.byte	0x30
 6000 17ff 33       		.uleb128 0x33
 6001 1800 01       		.uleb128 0x1
 6002 1801 58       		.byte	0x58
 6003 1802 03       		.uleb128 0x3
 6004 1803 0A       		.byte	0xa
 6005 1804 F87F     		.word	0x7ff8
 6006 1806 00       		.byte	0
 6007 1807 00       		.byte	0
 6008 1808 3B       		.uleb128 0x3b
 6009 1809 AA000000 		.long	0xaa
 6010 180d 1B180000 		.long	0x181b
 6011 1811 3C       		.uleb128 0x3c
 6012 1812 19010000 		.long	0x119
 6013 1816 03       		.uleb128 0x3
 6014 1817 0A       		.byte	0xa
 6015 1818 FF0F     		.word	0xfff
 6016 181a 00       		.byte	0
 6017 181b 19       		.uleb128 0x19
 6018 181c 52616469 		.ascii "RadixSortPass<unsigned int, unsigned int, 0, 16>\0"
 6018      78536F72 
 6018      74506173 
 6018      733C756E 
 6018      7369676E 
 6019 184d 01       		.byte	0x1
 6020 184e 06       		.byte	0x6
 6021 184f 5F5A3133 		.ascii "_Z13RadixSortPassIjjLi0ELi16EEvPKT_PKT0_PS0_PS3_y\0"
 6021      52616469 
 6021      78536F72 
 6021      74506173 
 6021      73496A6A 
 6022 1881 00000000 		.quad	.LFB3015
 6022      00000000 
 6023 1889 DE010000 		.quad	.LFE3015-.LFB3015
 6023      00000000 
 6024 1891 01       		.uleb128 0x1
 6025 1892 9C       		.byte	0x9c
 6026 1893 181D0000 		.long	0x1d18
 6027 1897 1A       		.uleb128 0x1a
 6028 1898 4B657900 		.ascii "Key\0"
 6029 189c 09010000 		.long	0x109
 6030 18a0 1B       		.uleb128 0x1b
 6031 18a1 36000000 		.secrel32	.LASF1
 6032 18a5 09010000 		.long	0x109
 6033 18a9 1C       		.uleb128 0x1c
 6034 18aa 54000000 		.secrel32	.LASF2
 6035 18ae EB000000 		.long	0xeb
 6036 18b2 00       		.byte	0
 6037 18b3 1C       		.uleb128 0x1c
 6038 18b4 63000000 		.secrel32	.LASF3
 6039 18b8 EB000000 		.long	0xeb
 6040 18bc 10       		.byte	0x10
 6041 18bd 1D       		.uleb128 0x1d
 6042 18be 00000000 		.secrel32	.LASF4
 6043 18c2 01       		.byte	0x1
 6044 18c3 06       		.byte	0x6
 6045 18c4 35090000 		.long	0x935
 6046 18c8 36190000 		.secrel32	.LLST86
 6047 18cc 1D       		.uleb128 0x1d
 6048 18cd 77000000 		.secrel32	.LASF5
 6049 18d1 01       		.byte	0x1
 6050 18d2 06       		.byte	0x6
 6051 18d3 35090000 		.long	0x935
 6052 18d7 95190000 		.secrel32	.LLST87
 6053 18db 1D       		.uleb128 0x1d
 6054 18dc 3B000000 		.secrel32	.LASF6
 6055 18e0 01       		.byte	0x1
 6056 18e1 06       		.byte	0x6
 6057 18e2 B1010000 		.long	0x1b1
 6058 18e6 F4190000 		.secrel32	.LLST88
 6059 18ea 1D       		.uleb128 0x1d
 6060 18eb 06000000 		.secrel32	.LASF7
 6061 18ef 01       		.byte	0x1
 6062 18f0 06       		.byte	0x6
 6063 18f1 B1010000 		.long	0x1b1
 6064 18f5 531A0000 		.secrel32	.LLST89
 6065 18f9 1E       		.uleb128 0x1e
 6066 18fa 7E000000 		.secrel32	.LASF8
 6067 18fe 01       		.byte	0x1
 6068 18ff 06       		.byte	0x6
 6069 1900 9C000000 		.long	0x9c
 6070 1904 02       		.uleb128 0x2
 6071 1905 91       		.byte	0x91
 6072 1906 20       		.sleb128 32
 6073 1907 36       		.uleb128 0x36
 6074 1908 A0070000 		.secrel32	.Ldebug_ranges0+0x7a0
 6075 190c F51C0000 		.long	0x1cf5
 6076 1910 40       		.uleb128 0x40
 6077 1911 8E000000 		.secrel32	.LASF15
 6078 1915 01       		.byte	0x1
 6079 1916 08       		.byte	0x8
 6080 1917 9C000000 		.long	0x9c
 6081 191b 00000100 		.long	0x10000
 6082 191f 21       		.uleb128 0x21
 6083 1920 18000000 		.secrel32	.LASF9
 6084 1924 08       		.byte	0x8
 6085 1925 01       		.byte	0x1
 6086 1926 0A       		.byte	0xa
 6087 1927 241A0000 		.long	0x1a24
 6088 192b 22       		.uleb128 0x22
 6089 192c 6C000000 		.secrel32	.LASF10
 6090 1930 01       		.byte	0x1
 6091 1931 0A       		.byte	0xa
 6092 1932 5D040000 		.long	0x45d
 6093 1936 00       		.byte	0
 6094 1937 23       		.uleb128 0x23
 6095 1938 4B000000 		.secrel32	.LASF11
 6096 193c 44190000 		.long	0x1944
 6097 1940 5B190000 		.long	0x195b
 6098 1944 11       		.uleb128 0x11
 6099 1945 49190000 		.long	0x1949
 6100 1949 06       		.uleb128 0x6
 6101 194a 08       		.byte	0x8
 6102 194b 1F190000 		.long	0x191f
 6103 194f 24       		.uleb128 0x24
 6104 1950 54190000 		.long	0x1954
 6105 1954 25       		.uleb128 0x25
 6106 1955 08       		.byte	0x8
 6107 1956 1F190000 		.long	0x191f
 6108 195a 00       		.byte	0
 6109 195b 23       		.uleb128 0x23
 6110 195c 4B000000 		.secrel32	.LASF11
 6111 1960 68190000 		.long	0x1968
 6112 1964 7E190000 		.long	0x197e
 6113 1968 11       		.uleb128 0x11
 6114 1969 49190000 		.long	0x1949
 6115 196d 24       		.uleb128 0x24
 6116 196e 72190000 		.long	0x1972
 6117 1972 18       		.uleb128 0x18
 6118 1973 08       		.byte	0x8
 6119 1974 78190000 		.long	0x1978
 6120 1978 17       		.uleb128 0x17
 6121 1979 1F190000 		.long	0x191f
 6122 197d 00       		.byte	0
 6123 197e 23       		.uleb128 0x23
 6124 197f 4B000000 		.secrel32	.LASF11
 6125 1983 8B190000 		.long	0x198b
 6126 1987 91190000 		.long	0x1991
 6127 198b 11       		.uleb128 0x11
 6128 198c 49190000 		.long	0x1949
 6129 1990 00       		.byte	0
 6130 1991 23       		.uleb128 0x23
 6131 1992 0E000000 		.secrel32	.LASF12
 6132 1996 9E190000 		.long	0x199e
 6133 199a A9190000 		.long	0x19a9
 6134 199e 11       		.uleb128 0x11
 6135 199f 49190000 		.long	0x1949
 6136 19a3 11       		.uleb128 0x11
 6137 19a4 EB000000 		.long	0xeb
 6138 19a8 00       		.byte	0
 6139 19a9 26       		.uleb128 0x26
 6140 19aa 83000000 		.secrel32	.LASF13
 6141 19ae 5F5A5A31 		.ascii "_ZZ13RadixSortPassIjjLi0ELi16EEvPKT_PKT0_PS0_PS3_yENKUlRKjE_clES9_\0"
 6141      33526164 
 6141      6978536F 
 6141      72745061 
 6141      7373496A 
 6142 19f1 AA000000 		.long	0xaa
 6143 19f5 03       		.byte	0x3
 6144 19f6 001A0000 		.long	0x1a00
 6145 19fa 06       		.uleb128 0x6
 6146 19fb 08       		.byte	0x8
 6147 19fc 78190000 		.long	0x1978
 6148 1a00 27       		.uleb128 0x27
 6149 1a01 97000000 		.secrel32	.LASF14
 6150 1a05 091A0000 		.long	0x1a09
 6151 1a09 17       		.uleb128 0x17
 6152 1a0a FA190000 		.long	0x19fa
 6153 1a0e 28       		.uleb128 0x28
 6154 1a0f 7000     		.ascii "p\0"
 6155 1a11 01       		.byte	0x1
 6156 1a12 0A       		.byte	0xa
 6157 1a13 62040000 		.long	0x462
 6158 1a17 29       		.uleb128 0x29
 6159 1a18 2A       		.uleb128 0x2a
 6160 1a19 8E000000 		.secrel32	.LASF15
 6161 1a1d 67040000 		.long	0x467
 6162 1a21 00       		.byte	0
 6163 1a22 00       		.byte	0
 6164 1a23 00       		.byte	0
 6165 1a24 2B       		.uleb128 0x2b
 6166 1a25 6B657900 		.ascii "key\0"
 6167 1a29 01       		.byte	0x1
 6168 1a2a 0A       		.byte	0xa
 6169 1a2b 1F190000 		.long	0x191f
 6170 1a2f 08       		.uleb128 0x8
 6171 1a30 F2       		.byte	0xf2
 6172 1a31 10190000 		.secrel32	.Ldebug_info0+6416
 6173 1a35 00       		.sleb128 0
 6174 1a36 93       		.byte	0x93
 6175 1a37 08       		.uleb128 0x8
 6176 1a38 2B       		.uleb128 0x2b
 6177 1a39 7400     		.ascii "t\0"
 6178 1a3b 01       		.byte	0x1
 6179 1a3c 0C       		.byte	0xc
 6180 1a3d 7E020000 		.long	0x27e
 6181 1a41 03       		.uleb128 0x3
 6182 1a42 91       		.byte	0x91
 6183 1a43 907F     		.sleb128 -112
 6184 1a45 2C       		.uleb128 0x2c
 6185 1a46 636E7400 		.ascii "cnt\0"
 6186 1a4a 01       		.byte	0x1
 6187 1a4b 0E       		.byte	0xe
 6188 1a4c 181D0000 		.long	0x1d18
 6189 1a50 B21A0000 		.secrel32	.LLST90
 6190 1a54 2D       		.uleb128 0x2d
 6191 1a55 7000     		.ascii "p\0"
 6192 1a57 01       		.byte	0x1
 6193 1a58 0E       		.byte	0xe
 6194 1a59 35090000 		.long	0x935
 6195 1a5d 2E       		.uleb128 0x2e
 6196 1a5e 5D000000 		.secrel32	.LASF16
 6197 1a62 01       		.byte	0x1
 6198 1a63 11       		.byte	0x11
 6199 1a64 74020000 		.long	0x274
 6200 1a68 EA1A0000 		.secrel32	.LLST91
 6201 1a6c 2F       		.uleb128 0x2f
 6202 1a6d 7B040000 		.long	0x47b
 6203 1a71 1C000000 		.quad	.LBB492
 6203      00000000 
 6204 1a79 E0070000 		.secrel32	.Ldebug_ranges0+0x7e0
 6205 1a7d 01       		.byte	0x1
 6206 1a7e 0C       		.byte	0xc
 6207 1a7f 2A1B0000 		.long	0x1b2a
 6208 1a83 30       		.uleb128 0x30
 6209 1a84 89040000 		.long	0x489
 6210 1a88 0D1B0000 		.secrel32	.LLST92
 6211 1a8c 2F       		.uleb128 0x2f
 6212 1a8d DE030000 		.long	0x3de
 6213 1a91 36000000 		.quad	.LBB494
 6213      00000000 
 6214 1a99 20080000 		.secrel32	.Ldebug_ranges0+0x820
 6215 1a9d 02       		.byte	0x2
 6216 1a9e 2E       		.byte	0x2e
 6217 1a9f 191B0000 		.long	0x1b19
 6218 1aa3 30       		.uleb128 0x30
 6219 1aa4 EC030000 		.long	0x3ec
 6220 1aa8 6F1B0000 		.secrel32	.LLST93
 6221 1aac 31       		.uleb128 0x31
 6222 1aad A7030000 		.long	0x3a7
 6223 1ab1 36000000 		.quad	.LBB496
 6223      00000000 
 6224 1ab9 13000000 		.quad	.LBE496-.LBB496
 6224      00000000 
 6225 1ac1 02       		.byte	0x2
 6226 1ac2 36       		.byte	0x36
 6227 1ac3 E41A0000 		.long	0x1ae4
 6228 1ac7 30       		.uleb128 0x30
 6229 1ac8 B5030000 		.long	0x3b5
 6230 1acc 6F1B0000 		.secrel32	.LLST93
 6231 1ad0 32       		.uleb128 0x32
 6232 1ad1 49000000 		.quad	.LVL164
 6232      00000000 
 6233 1ad9 02       		.uleb128 0x2
 6234 1ada 73       		.byte	0x73
 6235 1adb 00       		.sleb128 0
 6236 1adc 33       		.uleb128 0x33
 6237 1add 01       		.uleb128 0x1
 6238 1ade 52       		.byte	0x52
 6239 1adf 02       		.uleb128 0x2
 6240 1ae0 7E       		.byte	0x7e
 6241 1ae1 00       		.sleb128 0
 6242 1ae2 00       		.byte	0
 6243 1ae3 00       		.byte	0
 6244 1ae4 34       		.uleb128 0x34
 6245 1ae5 C5030000 		.long	0x3c5
 6246 1ae9 49000000 		.quad	.LBB498
 6246      00000000 
 6247 1af1 09000000 		.quad	.LBE498-.LBB498
 6247      00000000 
 6248 1af9 02       		.byte	0x2
 6249 1afa 37       		.byte	0x37
 6250 1afb 30       		.uleb128 0x30
 6251 1afc D3030000 		.long	0x3d3
 6252 1b00 BB1B0000 		.secrel32	.LLST95
 6253 1b04 32       		.uleb128 0x32
 6254 1b05 52000000 		.quad	.LVL165
 6254      00000000 
 6255 1b0d 02       		.uleb128 0x2
 6256 1b0e 73       		.byte	0x73
 6257 1b0f 00       		.sleb128 0
 6258 1b10 33       		.uleb128 0x33
 6259 1b11 01       		.uleb128 0x1
 6260 1b12 52       		.byte	0x52
 6261 1b13 02       		.uleb128 0x2
 6262 1b14 7E       		.byte	0x7e
 6263 1b15 08       		.sleb128 8
 6264 1b16 00       		.byte	0
 6265 1b17 00       		.byte	0
 6266 1b18 00       		.byte	0
 6267 1b19 35       		.uleb128 0x35
 6268 1b1a 36000000 		.quad	.LVL163
 6268      00000000 
 6269 1b22 33       		.uleb128 0x33
 6270 1b23 01       		.uleb128 0x1
 6271 1b24 52       		.byte	0x52
 6272 1b25 02       		.uleb128 0x2
 6273 1b26 7E       		.byte	0x7e
 6274 1b27 10       		.sleb128 16
 6275 1b28 00       		.byte	0
 6276 1b29 00       		.byte	0
 6277 1b2a 2F       		.uleb128 0x2f
 6278 1b2b A7030000 		.long	0x3a7
 6279 1b2f 56000000 		.quad	.LBB505
 6279      00000000 
 6280 1b37 50080000 		.secrel32	.Ldebug_ranges0+0x850
 6281 1b3b 01       		.byte	0x1
 6282 1b3c 0C       		.byte	0xc
 6283 1b3d 5E1B0000 		.long	0x1b5e
 6284 1b41 30       		.uleb128 0x30
 6285 1b42 B5030000 		.long	0x3b5
 6286 1b46 071C0000 		.secrel32	.LLST96
 6287 1b4a 32       		.uleb128 0x32
 6288 1b4b 66000000 		.quad	.LVL167
 6288      00000000 
 6289 1b53 02       		.uleb128 0x2
 6290 1b54 73       		.byte	0x73
 6291 1b55 00       		.sleb128 0
 6292 1b56 33       		.uleb128 0x33
 6293 1b57 01       		.uleb128 0x1
 6294 1b58 52       		.byte	0x52
 6295 1b59 02       		.uleb128 0x2
 6296 1b5a 7E       		.byte	0x7e
 6297 1b5b 00       		.sleb128 0
 6298 1b5c 00       		.byte	0
 6299 1b5d 00       		.byte	0
 6300 1b5e 3E       		.uleb128 0x3e
 6301 1b5f A5000000 		.quad	.LBB510
 6301      00000000 
 6302 1b67 1C000000 		.quad	.LBE510-.LBB510
 6302      00000000 
 6303 1b6f C21B0000 		.long	0x1bc2
 6304 1b73 2C       		.uleb128 0x2c
 6305 1b74 6900     		.ascii "i\0"
 6306 1b76 01       		.byte	0x1
 6307 1b77 0F       		.byte	0xf
 6308 1b78 9C000000 		.long	0x9c
 6309 1b7c 531C0000 		.secrel32	.LLST97
 6310 1b80 34       		.uleb128 0x34
 6311 1b81 A9190000 		.long	0x19a9
 6312 1b85 B0000000 		.quad	.LBB511
 6312      00000000 
 6313 1b8d 07000000 		.quad	.LBE511-.LBB511
 6313      00000000 
 6314 1b95 01       		.byte	0x1
 6315 1b96 10       		.byte	0x10
 6316 1b97 30       		.uleb128 0x30
 6317 1b98 0E1A0000 		.long	0x1a0e
 6318 1b9c 771C0000 		.secrel32	.LLST98
 6319 1ba0 30       		.uleb128 0x30
 6320 1ba1 001A0000 		.long	0x1a00
 6321 1ba5 AF1C0000 		.secrel32	.LLST99
 6322 1ba9 37       		.uleb128 0x37
 6323 1baa B0000000 		.quad	.LBB512
 6323      00000000 
 6324 1bb2 07000000 		.quad	.LBE512-.LBB512
 6324      00000000 
 6325 1bba 38       		.uleb128 0x38
 6326 1bbb 181A0000 		.long	0x1a18
 6327 1bbf 00       		.byte	0
 6328 1bc0 00       		.byte	0
 6329 1bc1 00       		.byte	0
 6330 1bc2 31       		.uleb128 0x31
 6331 1bc3 C5030000 		.long	0x3c5
 6332 1bc7 C1000000 		.quad	.LBB513
 6332      00000000 
 6333 1bcf 0A000000 		.quad	.LBE513-.LBB513
 6333      00000000 
 6334 1bd7 01       		.byte	0x1
 6335 1bd8 11       		.byte	0x11
 6336 1bd9 FC1B0000 		.long	0x1bfc
 6337 1bdd 30       		.uleb128 0x30
 6338 1bde D3030000 		.long	0x3d3
 6339 1be2 D71C0000 		.secrel32	.LLST100
 6340 1be6 32       		.uleb128 0x32
 6341 1be7 CB000000 		.quad	.LVL173
 6341      00000000 
 6342 1bef 04       		.uleb128 0x4
 6343 1bf0 91       		.byte	0x91
 6344 1bf1 987F     		.sleb128 -104
 6345 1bf3 06       		.byte	0x6
 6346 1bf4 33       		.uleb128 0x33
 6347 1bf5 01       		.uleb128 0x1
 6348 1bf6 52       		.byte	0x52
 6349 1bf7 02       		.uleb128 0x2
 6350 1bf8 7E       		.byte	0x7e
 6351 1bf9 08       		.sleb128 8
 6352 1bfa 00       		.byte	0
 6353 1bfb 00       		.byte	0
 6354 1bfc 2F       		.uleb128 0x2f
 6355 1bfd 17040000 		.long	0x417
 6356 1c01 CB000000 		.quad	.LBB515
 6356      00000000 
 6357 1c09 80080000 		.secrel32	.Ldebug_ranges0+0x880
 6358 1c0d 01       		.byte	0x1
 6359 1c0e 11       		.byte	0x11
 6360 1c0f 1D1C0000 		.long	0x1c1d
 6361 1c13 30       		.uleb128 0x30
 6362 1c14 25040000 		.long	0x425
 6363 1c18 231D0000 		.secrel32	.LLST101
 6364 1c1c 00       		.byte	0
 6365 1c1d 3E       		.uleb128 0x3e
 6366 1c1e 60010000 		.quad	.LBB519
 6366      00000000 
 6367 1c26 15000000 		.quad	.LBE519-.LBB519
 6367      00000000 
 6368 1c2e 641C0000 		.long	0x1c64
 6369 1c32 2C       		.uleb128 0x2c
 6370 1c33 6900     		.ascii "i\0"
 6371 1c35 01       		.byte	0x1
 6372 1c36 15       		.byte	0x15
 6373 1c37 9C000000 		.long	0x9c
 6374 1c3b 6F1D0000 		.secrel32	.LLST102
 6375 1c3f 2C       		.uleb128 0x2c
 6376 1c40 73756D00 		.ascii "sum\0"
 6377 1c44 01       		.byte	0x1
 6378 1c45 15       		.byte	0x15
 6379 1c46 9C000000 		.long	0x9c
 6380 1c4a 931D0000 		.secrel32	.LLST103
 6381 1c4e 1F       		.uleb128 0x1f
 6382 1c4f B0080000 		.secrel32	.Ldebug_ranges0+0x8b0
 6383 1c53 2C       		.uleb128 0x2c
 6384 1c54 746D7000 		.ascii "tmp\0"
 6385 1c58 01       		.byte	0x1
 6386 1c59 17       		.byte	0x17
 6387 1c5a AA000000 		.long	0xaa
 6388 1c5e DD1D0000 		.secrel32	.LLST104
 6389 1c62 00       		.byte	0
 6390 1c63 00       		.byte	0
 6391 1c64 3E       		.uleb128 0x3e
 6392 1c65 75010000 		.quad	.LBB522
 6392      00000000 
 6393 1c6d 37000000 		.quad	.LBE522-.LBB522
 6393      00000000 
 6394 1c75 D91C0000 		.long	0x1cd9
 6395 1c79 2C       		.uleb128 0x2c
 6396 1c7a 6900     		.ascii "i\0"
 6397 1c7c 01       		.byte	0x1
 6398 1c7d 1D       		.byte	0x1d
 6399 1c7e 9C000000 		.long	0x9c
 6400 1c82 001E0000 		.secrel32	.LLST105
 6401 1c86 1F       		.uleb128 0x1f
 6402 1c87 E0080000 		.secrel32	.Ldebug_ranges0+0x8e0
 6403 1c8b 2D       		.uleb128 0x2d
 6404 1c8c 62696E00 		.ascii "bin\0"
 6405 1c90 01       		.byte	0x1
 6406 1c91 1F       		.byte	0x1f
 6407 1c92 AA000000 		.long	0xaa
 6408 1c96 34       		.uleb128 0x34
 6409 1c97 A9190000 		.long	0x19a9
 6410 1c9b 80010000 		.quad	.LBB524
 6410      00000000 
 6411 1ca3 04000000 		.quad	.LBE524-.LBB524
 6411      00000000 
 6412 1cab 01       		.byte	0x1
 6413 1cac 1F       		.byte	0x1f
 6414 1cad 30       		.uleb128 0x30
 6415 1cae 0E1A0000 		.long	0x1a0e
 6416 1cb2 371E0000 		.secrel32	.LLST106
 6417 1cb6 30       		.uleb128 0x30
 6418 1cb7 001A0000 		.long	0x1a00
 6419 1cbb 7B1E0000 		.secrel32	.LLST107
 6420 1cbf 37       		.uleb128 0x37
 6421 1cc0 80010000 		.quad	.LBB525
 6421      00000000 
 6422 1cc8 04000000 		.quad	.LBE525-.LBB525
 6422      00000000 
 6423 1cd0 38       		.uleb128 0x38
 6424 1cd1 181A0000 		.long	0x1a18
 6425 1cd5 00       		.byte	0
 6426 1cd6 00       		.byte	0
 6427 1cd7 00       		.byte	0
 6428 1cd8 00       		.byte	0
 6429 1cd9 3A       		.uleb128 0x3a
 6430 1cda 53010000 		.quad	.LVL176
 6430      00000000 
 6431 1ce2 382B0000 		.long	0x2b38
 6432 1ce6 33       		.uleb128 0x33
 6433 1ce7 01       		.uleb128 0x1
 6434 1ce8 52       		.byte	0x52
 6435 1ce9 09       		.uleb128 0x9
 6436 1cea 03       		.byte	0x3
 6437 1ceb 00000000 		.quad	.LC3
 6437      00000000 
 6438 1cf3 00       		.byte	0
 6439 1cf4 00       		.byte	0
 6440 1cf5 3A       		.uleb128 0x3a
 6441 1cf6 A1000000 		.quad	.LVL169
 6441      00000000 
 6442 1cfe 5D2B0000 		.long	0x2b5d
 6443 1d02 33       		.uleb128 0x33
 6444 1d03 01       		.uleb128 0x1
 6445 1d04 52       		.byte	0x52
 6446 1d05 02       		.uleb128 0x2
 6447 1d06 73       		.byte	0x73
 6448 1d07 08       		.sleb128 8
 6449 1d08 33       		.uleb128 0x33
 6450 1d09 01       		.uleb128 0x1
 6451 1d0a 51       		.byte	0x51
 6452 1d0b 01       		.uleb128 0x1
 6453 1d0c 30       		.byte	0x30
 6454 1d0d 33       		.uleb128 0x33
 6455 1d0e 01       		.uleb128 0x1
 6456 1d0f 58       		.byte	0x58
 6457 1d10 05       		.uleb128 0x5
 6458 1d11 0C       		.byte	0xc
 6459 1d12 F8FF0700 		.long	0x7fff8
 6460 1d16 00       		.byte	0
 6461 1d17 00       		.byte	0
 6462 1d18 3B       		.uleb128 0x3b
 6463 1d19 AA000000 		.long	0xaa
 6464 1d1d 2B1D0000 		.long	0x1d2b
 6465 1d21 3C       		.uleb128 0x3c
 6466 1d22 19010000 		.long	0x119
 6467 1d26 03       		.uleb128 0x3
 6468 1d27 0A       		.byte	0xa
 6469 1d28 FFFF     		.word	0xffff
 6470 1d2a 00       		.byte	0
 6471 1d2b 19       		.uleb128 0x19
 6472 1d2c 52616469 		.ascii "RadixSortPass<unsigned int, unsigned int, 0, 20>\0"
 6472      78536F72 
 6472      74506173 
 6472      733C756E 
 6472      7369676E 
 6473 1d5d 01       		.byte	0x1
 6474 1d5e 06       		.byte	0x6
 6475 1d5f 5F5A3133 		.ascii "_Z13RadixSortPassIjjLi0ELi20EEvPKT_PKT0_PS0_PS3_y\0"
 6475      52616469 
 6475      78536F72 
 6475      74506173 
 6475      73496A6A 
 6476 1d91 00000000 		.quad	.LFB3017
 6476      00000000 
 6477 1d99 E4010000 		.quad	.LFE3017-.LFB3017
 6477      00000000 
 6478 1da1 01       		.uleb128 0x1
 6479 1da2 9C       		.byte	0x9c
 6480 1da3 18220000 		.long	0x2218
 6481 1da7 1A       		.uleb128 0x1a
 6482 1da8 4B657900 		.ascii "Key\0"
 6483 1dac 09010000 		.long	0x109
 6484 1db0 1B       		.uleb128 0x1b
 6485 1db1 36000000 		.secrel32	.LASF1
 6486 1db5 09010000 		.long	0x109
 6487 1db9 1C       		.uleb128 0x1c
 6488 1dba 54000000 		.secrel32	.LASF2
 6489 1dbe EB000000 		.long	0xeb
 6490 1dc2 00       		.byte	0
 6491 1dc3 1C       		.uleb128 0x1c
 6492 1dc4 63000000 		.secrel32	.LASF3
 6493 1dc8 EB000000 		.long	0xeb
 6494 1dcc 14       		.byte	0x14
 6495 1dcd 1D       		.uleb128 0x1d
 6496 1dce 00000000 		.secrel32	.LASF4
 6497 1dd2 01       		.byte	0x1
 6498 1dd3 06       		.byte	0x6
 6499 1dd4 35090000 		.long	0x935
 6500 1dd8 A31E0000 		.secrel32	.LLST108
 6501 1ddc 1D       		.uleb128 0x1d
 6502 1ddd 77000000 		.secrel32	.LASF5
 6503 1de1 01       		.byte	0x1
 6504 1de2 06       		.byte	0x6
 6505 1de3 35090000 		.long	0x935
 6506 1de7 021F0000 		.secrel32	.LLST109
 6507 1deb 1D       		.uleb128 0x1d
 6508 1dec 3B000000 		.secrel32	.LASF6
 6509 1df0 01       		.byte	0x1
 6510 1df1 06       		.byte	0x6
 6511 1df2 B1010000 		.long	0x1b1
 6512 1df6 611F0000 		.secrel32	.LLST110
 6513 1dfa 1D       		.uleb128 0x1d
 6514 1dfb 06000000 		.secrel32	.LASF7
 6515 1dff 01       		.byte	0x1
 6516 1e00 06       		.byte	0x6
 6517 1e01 B1010000 		.long	0x1b1
 6518 1e05 C01F0000 		.secrel32	.LLST111
 6519 1e09 1E       		.uleb128 0x1e
 6520 1e0a 7E000000 		.secrel32	.LASF8
 6521 1e0e 01       		.byte	0x1
 6522 1e0f 06       		.byte	0x6
 6523 1e10 9C000000 		.long	0x9c
 6524 1e14 02       		.uleb128 0x2
 6525 1e15 91       		.byte	0x91
 6526 1e16 20       		.sleb128 32
 6527 1e17 36       		.uleb128 0x36
 6528 1e18 20090000 		.secrel32	.Ldebug_ranges0+0x920
 6529 1e1c F5210000 		.long	0x21f5
 6530 1e20 40       		.uleb128 0x40
 6531 1e21 8E000000 		.secrel32	.LASF15
 6532 1e25 01       		.byte	0x1
 6533 1e26 08       		.byte	0x8
 6534 1e27 9C000000 		.long	0x9c
 6535 1e2b 00001000 		.long	0x100000
 6536 1e2f 21       		.uleb128 0x21
 6537 1e30 18000000 		.secrel32	.LASF9
 6538 1e34 08       		.byte	0x8
 6539 1e35 01       		.byte	0x1
 6540 1e36 0A       		.byte	0xa
 6541 1e37 341F0000 		.long	0x1f34
 6542 1e3b 22       		.uleb128 0x22
 6543 1e3c 6C000000 		.secrel32	.LASF10
 6544 1e40 01       		.byte	0x1
 6545 1e41 0A       		.byte	0xa
 6546 1e42 6C040000 		.long	0x46c
 6547 1e46 00       		.byte	0
 6548 1e47 23       		.uleb128 0x23
 6549 1e48 4B000000 		.secrel32	.LASF11
 6550 1e4c 541E0000 		.long	0x1e54
 6551 1e50 6B1E0000 		.long	0x1e6b
 6552 1e54 11       		.uleb128 0x11
 6553 1e55 591E0000 		.long	0x1e59
 6554 1e59 06       		.uleb128 0x6
 6555 1e5a 08       		.byte	0x8
 6556 1e5b 2F1E0000 		.long	0x1e2f
 6557 1e5f 24       		.uleb128 0x24
 6558 1e60 641E0000 		.long	0x1e64
 6559 1e64 25       		.uleb128 0x25
 6560 1e65 08       		.byte	0x8
 6561 1e66 2F1E0000 		.long	0x1e2f
 6562 1e6a 00       		.byte	0
 6563 1e6b 23       		.uleb128 0x23
 6564 1e6c 4B000000 		.secrel32	.LASF11
 6565 1e70 781E0000 		.long	0x1e78
 6566 1e74 8E1E0000 		.long	0x1e8e
 6567 1e78 11       		.uleb128 0x11
 6568 1e79 591E0000 		.long	0x1e59
 6569 1e7d 24       		.uleb128 0x24
 6570 1e7e 821E0000 		.long	0x1e82
 6571 1e82 18       		.uleb128 0x18
 6572 1e83 08       		.byte	0x8
 6573 1e84 881E0000 		.long	0x1e88
 6574 1e88 17       		.uleb128 0x17
 6575 1e89 2F1E0000 		.long	0x1e2f
 6576 1e8d 00       		.byte	0
 6577 1e8e 23       		.uleb128 0x23
 6578 1e8f 4B000000 		.secrel32	.LASF11
 6579 1e93 9B1E0000 		.long	0x1e9b
 6580 1e97 A11E0000 		.long	0x1ea1
 6581 1e9b 11       		.uleb128 0x11
 6582 1e9c 591E0000 		.long	0x1e59
 6583 1ea0 00       		.byte	0
 6584 1ea1 23       		.uleb128 0x23
 6585 1ea2 0E000000 		.secrel32	.LASF12
 6586 1ea6 AE1E0000 		.long	0x1eae
 6587 1eaa B91E0000 		.long	0x1eb9
 6588 1eae 11       		.uleb128 0x11
 6589 1eaf 591E0000 		.long	0x1e59
 6590 1eb3 11       		.uleb128 0x11
 6591 1eb4 EB000000 		.long	0xeb
 6592 1eb8 00       		.byte	0
 6593 1eb9 26       		.uleb128 0x26
 6594 1eba 83000000 		.secrel32	.LASF13
 6595 1ebe 5F5A5A31 		.ascii "_ZZ13RadixSortPassIjjLi0ELi20EEvPKT_PKT0_PS0_PS3_yENKUlRKjE_clES9_\0"
 6595      33526164 
 6595      6978536F 
 6595      72745061 
 6595      7373496A 
 6596 1f01 AA000000 		.long	0xaa
 6597 1f05 03       		.byte	0x3
 6598 1f06 101F0000 		.long	0x1f10
 6599 1f0a 06       		.uleb128 0x6
 6600 1f0b 08       		.byte	0x8
 6601 1f0c 881E0000 		.long	0x1e88
 6602 1f10 27       		.uleb128 0x27
 6603 1f11 97000000 		.secrel32	.LASF14
 6604 1f15 191F0000 		.long	0x1f19
 6605 1f19 17       		.uleb128 0x17
 6606 1f1a 0A1F0000 		.long	0x1f0a
 6607 1f1e 28       		.uleb128 0x28
 6608 1f1f 7000     		.ascii "p\0"
 6609 1f21 01       		.byte	0x1
 6610 1f22 0A       		.byte	0xa
 6611 1f23 71040000 		.long	0x471
 6612 1f27 29       		.uleb128 0x29
 6613 1f28 2A       		.uleb128 0x2a
 6614 1f29 8E000000 		.secrel32	.LASF15
 6615 1f2d 76040000 		.long	0x476
 6616 1f31 00       		.byte	0
 6617 1f32 00       		.byte	0
 6618 1f33 00       		.byte	0
 6619 1f34 2B       		.uleb128 0x2b
 6620 1f35 6B657900 		.ascii "key\0"
 6621 1f39 01       		.byte	0x1
 6622 1f3a 0A       		.byte	0xa
 6623 1f3b 2F1E0000 		.long	0x1e2f
 6624 1f3f 08       		.uleb128 0x8
 6625 1f40 F2       		.byte	0xf2
 6626 1f41 201E0000 		.secrel32	.Ldebug_info0+7712
 6627 1f45 00       		.sleb128 0
 6628 1f46 93       		.byte	0x93
 6629 1f47 08       		.uleb128 0x8
 6630 1f48 2B       		.uleb128 0x2b
 6631 1f49 7400     		.ascii "t\0"
 6632 1f4b 01       		.byte	0x1
 6633 1f4c 0C       		.byte	0xc
 6634 1f4d 7E020000 		.long	0x27e
 6635 1f51 03       		.uleb128 0x3
 6636 1f52 91       		.byte	0x91
 6637 1f53 907F     		.sleb128 -112
 6638 1f55 2C       		.uleb128 0x2c
 6639 1f56 636E7400 		.ascii "cnt\0"
 6640 1f5a 01       		.byte	0x1
 6641 1f5b 0E       		.byte	0xe
 6642 1f5c 18220000 		.long	0x2218
 6643 1f60 1F200000 		.secrel32	.LLST112
 6644 1f64 2D       		.uleb128 0x2d
 6645 1f65 7000     		.ascii "p\0"
 6646 1f67 01       		.byte	0x1
 6647 1f68 0E       		.byte	0xe
 6648 1f69 35090000 		.long	0x935
 6649 1f6d 2E       		.uleb128 0x2e
 6650 1f6e 5D000000 		.secrel32	.LASF16
 6651 1f72 01       		.byte	0x1
 6652 1f73 11       		.byte	0x11
 6653 1f74 74020000 		.long	0x274
 6654 1f78 57200000 		.secrel32	.LLST113
 6655 1f7c 2F       		.uleb128 0x2f
 6656 1f7d 7B040000 		.long	0x47b
 6657 1f81 1C000000 		.quad	.LBB556
 6657      00000000 
 6658 1f89 60090000 		.secrel32	.Ldebug_ranges0+0x960
 6659 1f8d 01       		.byte	0x1
 6660 1f8e 0C       		.byte	0xc
 6661 1f8f 3A200000 		.long	0x203a
 6662 1f93 30       		.uleb128 0x30
 6663 1f94 89040000 		.long	0x489
 6664 1f98 7A200000 		.secrel32	.LLST114
 6665 1f9c 2F       		.uleb128 0x2f
 6666 1f9d DE030000 		.long	0x3de
 6667 1fa1 36000000 		.quad	.LBB558
 6667      00000000 
 6668 1fa9 A0090000 		.secrel32	.Ldebug_ranges0+0x9a0
 6669 1fad 02       		.byte	0x2
 6670 1fae 2E       		.byte	0x2e
 6671 1faf 29200000 		.long	0x2029
 6672 1fb3 30       		.uleb128 0x30
 6673 1fb4 EC030000 		.long	0x3ec
 6674 1fb8 DC200000 		.secrel32	.LLST115
 6675 1fbc 31       		.uleb128 0x31
 6676 1fbd A7030000 		.long	0x3a7
 6677 1fc1 36000000 		.quad	.LBB560
 6677      00000000 
 6678 1fc9 13000000 		.quad	.LBE560-.LBB560
 6678      00000000 
 6679 1fd1 02       		.byte	0x2
 6680 1fd2 36       		.byte	0x36
 6681 1fd3 F41F0000 		.long	0x1ff4
 6682 1fd7 30       		.uleb128 0x30
 6683 1fd8 B5030000 		.long	0x3b5
 6684 1fdc DC200000 		.secrel32	.LLST115
 6685 1fe0 32       		.uleb128 0x32
 6686 1fe1 49000000 		.quad	.LVL196
 6686      00000000 
 6687 1fe9 02       		.uleb128 0x2
 6688 1fea 73       		.byte	0x73
 6689 1feb 00       		.sleb128 0
 6690 1fec 33       		.uleb128 0x33
 6691 1fed 01       		.uleb128 0x1
 6692 1fee 52       		.byte	0x52
 6693 1fef 02       		.uleb128 0x2
 6694 1ff0 7E       		.byte	0x7e
 6695 1ff1 00       		.sleb128 0
 6696 1ff2 00       		.byte	0
 6697 1ff3 00       		.byte	0
 6698 1ff4 34       		.uleb128 0x34
 6699 1ff5 C5030000 		.long	0x3c5
 6700 1ff9 49000000 		.quad	.LBB562
 6700      00000000 
 6701 2001 09000000 		.quad	.LBE562-.LBB562
 6701      00000000 
 6702 2009 02       		.byte	0x2
 6703 200a 37       		.byte	0x37
 6704 200b 30       		.uleb128 0x30
 6705 200c D3030000 		.long	0x3d3
 6706 2010 28210000 		.secrel32	.LLST117
 6707 2014 32       		.uleb128 0x32
 6708 2015 52000000 		.quad	.LVL197
 6708      00000000 
 6709 201d 02       		.uleb128 0x2
 6710 201e 73       		.byte	0x73
 6711 201f 00       		.sleb128 0
 6712 2020 33       		.uleb128 0x33
 6713 2021 01       		.uleb128 0x1
 6714 2022 52       		.byte	0x52
 6715 2023 02       		.uleb128 0x2
 6716 2024 7E       		.byte	0x7e
 6717 2025 08       		.sleb128 8
 6718 2026 00       		.byte	0
 6719 2027 00       		.byte	0
 6720 2028 00       		.byte	0
 6721 2029 35       		.uleb128 0x35
 6722 202a 36000000 		.quad	.LVL195
 6722      00000000 
 6723 2032 33       		.uleb128 0x33
 6724 2033 01       		.uleb128 0x1
 6725 2034 52       		.byte	0x52
 6726 2035 02       		.uleb128 0x2
 6727 2036 7E       		.byte	0x7e
 6728 2037 10       		.sleb128 16
 6729 2038 00       		.byte	0
 6730 2039 00       		.byte	0
 6731 203a 2F       		.uleb128 0x2f
 6732 203b A7030000 		.long	0x3a7
 6733 203f 56000000 		.quad	.LBB569
 6733      00000000 
 6734 2047 D0090000 		.secrel32	.Ldebug_ranges0+0x9d0
 6735 204b 01       		.byte	0x1
 6736 204c 0C       		.byte	0xc
 6737 204d 6E200000 		.long	0x206e
 6738 2051 30       		.uleb128 0x30
 6739 2052 B5030000 		.long	0x3b5
 6740 2056 74210000 		.secrel32	.LLST118
 6741 205a 32       		.uleb128 0x32
 6742 205b 66000000 		.quad	.LVL199
 6742      00000000 
 6743 2063 02       		.uleb128 0x2
 6744 2064 73       		.byte	0x73
 6745 2065 00       		.sleb128 0
 6746 2066 33       		.uleb128 0x33
 6747 2067 01       		.uleb128 0x1
 6748 2068 52       		.byte	0x52
 6749 2069 02       		.uleb128 0x2
 6750 206a 7E       		.byte	0x7e
 6751 206b 00       		.sleb128 0
 6752 206c 00       		.byte	0
 6753 206d 00       		.byte	0
 6754 206e 3E       		.uleb128 0x3e
 6755 206f A5000000 		.quad	.LBB574
 6755      00000000 
 6756 2077 21000000 		.quad	.LBE574-.LBB574
 6756      00000000 
 6757 207f D2200000 		.long	0x20d2
 6758 2083 2C       		.uleb128 0x2c
 6759 2084 6900     		.ascii "i\0"
 6760 2086 01       		.byte	0x1
 6761 2087 0F       		.byte	0xf
 6762 2088 9C000000 		.long	0x9c
 6763 208c C0210000 		.secrel32	.LLST119
 6764 2090 34       		.uleb128 0x34
 6765 2091 B91E0000 		.long	0x1eb9
 6766 2095 B0000000 		.quad	.LBB575
 6766      00000000 
 6767 209d 0C000000 		.quad	.LBE575-.LBB575
 6767      00000000 
 6768 20a5 01       		.byte	0x1
 6769 20a6 10       		.byte	0x10
 6770 20a7 30       		.uleb128 0x30
 6771 20a8 1E1F0000 		.long	0x1f1e
 6772 20ac E4210000 		.secrel32	.LLST120
 6773 20b0 30       		.uleb128 0x30
 6774 20b1 101F0000 		.long	0x1f10
 6775 20b5 1C220000 		.secrel32	.LLST121
 6776 20b9 37       		.uleb128 0x37
 6777 20ba B0000000 		.quad	.LBB576
 6777      00000000 
 6778 20c2 0C000000 		.quad	.LBE576-.LBB576
 6778      00000000 
 6779 20ca 38       		.uleb128 0x38
 6780 20cb 281F0000 		.long	0x1f28
 6781 20cf 00       		.byte	0
 6782 20d0 00       		.byte	0
 6783 20d1 00       		.byte	0
 6784 20d2 31       		.uleb128 0x31
 6785 20d3 C5030000 		.long	0x3c5
 6786 20d7 C6000000 		.quad	.LBB577
 6786      00000000 
 6787 20df 0A000000 		.quad	.LBE577-.LBB577
 6787      00000000 
 6788 20e7 01       		.byte	0x1
 6789 20e8 11       		.byte	0x11
 6790 20e9 0C210000 		.long	0x210c
 6791 20ed 30       		.uleb128 0x30
 6792 20ee D3030000 		.long	0x3d3
 6793 20f2 44220000 		.secrel32	.LLST122
 6794 20f6 32       		.uleb128 0x32
 6795 20f7 D0000000 		.quad	.LVL205
 6795      00000000 
 6796 20ff 04       		.uleb128 0x4
 6797 2100 91       		.byte	0x91
 6798 2101 987F     		.sleb128 -104
 6799 2103 06       		.byte	0x6
 6800 2104 33       		.uleb128 0x33
 6801 2105 01       		.uleb128 0x1
 6802 2106 52       		.byte	0x52
 6803 2107 02       		.uleb128 0x2
 6804 2108 7E       		.byte	0x7e
 6805 2109 08       		.sleb128 8
 6806 210a 00       		.byte	0
 6807 210b 00       		.byte	0
 6808 210c 2F       		.uleb128 0x2f
 6809 210d 17040000 		.long	0x417
 6810 2111 D0000000 		.quad	.LBB579
 6810      00000000 
 6811 2119 000A0000 		.secrel32	.Ldebug_ranges0+0xa00
 6812 211d 01       		.byte	0x1
 6813 211e 11       		.byte	0x11
 6814 211f 2D210000 		.long	0x212d
 6815 2123 30       		.uleb128 0x30
 6816 2124 25040000 		.long	0x425
 6817 2128 90220000 		.secrel32	.LLST123
 6818 212c 00       		.byte	0
 6819 212d 3E       		.uleb128 0x3e
 6820 212e 64010000 		.quad	.LBB583
 6820      00000000 
 6821 2136 15000000 		.quad	.LBE583-.LBB583
 6821      00000000 
 6822 213e 74210000 		.long	0x2174
 6823 2142 2C       		.uleb128 0x2c
 6824 2143 6900     		.ascii "i\0"
 6825 2145 01       		.byte	0x1
 6826 2146 15       		.byte	0x15
 6827 2147 9C000000 		.long	0x9c
 6828 214b DC220000 		.secrel32	.LLST124
 6829 214f 2C       		.uleb128 0x2c
 6830 2150 73756D00 		.ascii "sum\0"
 6831 2154 01       		.byte	0x1
 6832 2155 15       		.byte	0x15
 6833 2156 9C000000 		.long	0x9c
 6834 215a 00230000 		.secrel32	.LLST125
 6835 215e 1F       		.uleb128 0x1f
 6836 215f 300A0000 		.secrel32	.Ldebug_ranges0+0xa30
 6837 2163 2C       		.uleb128 0x2c
 6838 2164 746D7000 		.ascii "tmp\0"
 6839 2168 01       		.byte	0x1
 6840 2169 17       		.byte	0x17
 6841 216a AA000000 		.long	0xaa
 6842 216e 4A230000 		.secrel32	.LLST126
 6843 2172 00       		.byte	0
 6844 2173 00       		.byte	0
 6845 2174 3E       		.uleb128 0x3e
 6846 2175 79010000 		.quad	.LBB586
 6846      00000000 
 6847 217d 39000000 		.quad	.LBE586-.LBB586
 6847      00000000 
 6848 2185 D9210000 		.long	0x21d9
 6849 2189 2C       		.uleb128 0x2c
 6850 218a 6900     		.ascii "i\0"
 6851 218c 01       		.byte	0x1
 6852 218d 1D       		.byte	0x1d
 6853 218e 9C000000 		.long	0x9c
 6854 2192 6D230000 		.secrel32	.LLST127
 6855 2196 1F       		.uleb128 0x1f
 6856 2197 600A0000 		.secrel32	.Ldebug_ranges0+0xa60
 6857 219b 2D       		.uleb128 0x2d
 6858 219c 62696E00 		.ascii "bin\0"
 6859 21a0 01       		.byte	0x1
 6860 21a1 1F       		.byte	0x1f
 6861 21a2 AA000000 		.long	0xaa
 6862 21a6 39       		.uleb128 0x39
 6863 21a7 B91E0000 		.long	0x1eb9
 6864 21ab 80010000 		.quad	.LBB588
 6864      00000000 
 6865 21b3 A00A0000 		.secrel32	.Ldebug_ranges0+0xaa0
 6866 21b7 01       		.byte	0x1
 6867 21b8 1F       		.byte	0x1f
 6868 21b9 30       		.uleb128 0x30
 6869 21ba 1E1F0000 		.long	0x1f1e
 6870 21be A4230000 		.secrel32	.LLST128
 6871 21c2 30       		.uleb128 0x30
 6872 21c3 101F0000 		.long	0x1f10
 6873 21c7 E8230000 		.secrel32	.LLST129
 6874 21cb 1F       		.uleb128 0x1f
 6875 21cc A00A0000 		.secrel32	.Ldebug_ranges0+0xaa0
 6876 21d0 38       		.uleb128 0x38
 6877 21d1 281F0000 		.long	0x1f28
 6878 21d5 00       		.byte	0
 6879 21d6 00       		.byte	0
 6880 21d7 00       		.byte	0
 6881 21d8 00       		.byte	0
 6882 21d9 3A       		.uleb128 0x3a
 6883 21da 58010000 		.quad	.LVL208
 6883      00000000 
 6884 21e2 382B0000 		.long	0x2b38
 6885 21e6 33       		.uleb128 0x33
 6886 21e7 01       		.uleb128 0x1
 6887 21e8 52       		.byte	0x52
 6888 21e9 09       		.uleb128 0x9
 6889 21ea 03       		.byte	0x3
 6890 21eb 00000000 		.quad	.LC3
 6890      00000000 
 6891 21f3 00       		.byte	0
 6892 21f4 00       		.byte	0
 6893 21f5 3A       		.uleb128 0x3a
 6894 21f6 A1000000 		.quad	.LVL201
 6894      00000000 
 6895 21fe 5D2B0000 		.long	0x2b5d
 6896 2202 33       		.uleb128 0x33
 6897 2203 01       		.uleb128 0x1
 6898 2204 52       		.byte	0x52
 6899 2205 02       		.uleb128 0x2
 6900 2206 73       		.byte	0x73
 6901 2207 08       		.sleb128 8
 6902 2208 33       		.uleb128 0x33
 6903 2209 01       		.uleb128 0x1
 6904 220a 51       		.byte	0x51
 6905 220b 01       		.uleb128 0x1
 6906 220c 30       		.byte	0x30
 6907 220d 33       		.uleb128 0x33
 6908 220e 01       		.uleb128 0x1
 6909 220f 58       		.byte	0x58
 6910 2210 05       		.uleb128 0x5
 6911 2211 0C       		.byte	0xc
 6912 2212 F8FF7F00 		.long	0x7ffff8
 6913 2216 00       		.byte	0
 6914 2217 00       		.byte	0
 6915 2218 3B       		.uleb128 0x3b
 6916 2219 AA000000 		.long	0xaa
 6917 221d 2D220000 		.long	0x222d
 6918 2221 3C       		.uleb128 0x3c
 6919 2222 19010000 		.long	0x119
 6920 2226 05       		.uleb128 0x5
 6921 2227 0C       		.byte	0xc
 6922 2228 FFFF0F00 		.long	0xfffff
 6923 222c 00       		.byte	0
 6924 222d 41       		.uleb128 0x41
 6925 222e 6D61696E 		.ascii "main\0"
 6925      00
 6926 2233 03       		.byte	0x3
 6927 2234 07       		.byte	0x7
 6928 2235 EB000000 		.long	0xeb
 6929 2239 00000000 		.quad	.LFB3006
 6929      00000000 
 6930 2241 CE0D0000 		.quad	.LFE3006-.LFB3006
 6930      00000000 
 6931 2249 01       		.uleb128 0x1
 6932 224a 9C       		.byte	0x9c
 6933 224b 332B0000 		.long	0x2b33
 6934 224f 1F       		.uleb128 0x1f
 6935 2250 D00A0000 		.secrel32	.Ldebug_ranges0+0xad0
 6936 2254 42       		.uleb128 0x42
 6937 2255 44415441 		.ascii "DATASET\0"
 6937      53455400 
 6938 225d 03       		.byte	0x3
 6939 225e 0A       		.byte	0xa
 6940 225f 332B0000 		.long	0x2b33
 6941 2263 00004006 		.long	0x6400000
 6942 2267 2C       		.uleb128 0x2c
 6943 2268 6B657973 		.ascii "keys\0"
 6943      00
 6944 226d 03       		.byte	0x3
 6945 226e 0C       		.byte	0xc
 6946 226f B1010000 		.long	0x1b1
 6947 2273 10240000 		.secrel32	.LLST130
 6948 2277 2C       		.uleb128 0x2c
 6949 2278 6F75746B 		.ascii "outkeys\0"
 6949      65797300 
 6950 2280 03       		.byte	0x3
 6951 2281 0C       		.byte	0xc
 6952 2282 B1010000 		.long	0x1b1
 6953 2286 59240000 		.secrel32	.LLST131
 6954 228a 2C       		.uleb128 0x2c
 6955 228b 64617461 		.ascii "data\0"
 6955      00
 6956 2290 03       		.byte	0x3
 6957 2291 0D       		.byte	0xd
 6958 2292 B1010000 		.long	0x1b1
 6959 2296 A2240000 		.secrel32	.LLST132
 6960 229a 2C       		.uleb128 0x2c
 6961 229b 6F757464 		.ascii "outdata\0"
 6961      61746100 
 6962 22a3 03       		.byte	0x3
 6963 22a4 0D       		.byte	0xd
 6964 22a5 B1010000 		.long	0x1b1
 6965 22a9 EB240000 		.secrel32	.LLST133
 6966 22ad 2B       		.uleb128 0x2b
 6967 22ae 7400     		.ascii "t\0"
 6968 22b0 03       		.byte	0x3
 6969 22b1 0E       		.byte	0xe
 6970 22b2 7E020000 		.long	0x27e
 6971 22b6 03       		.uleb128 0x3
 6972 22b7 91       		.byte	0x91
 6973 22b8 907E     		.sleb128 -240
 6974 22ba 2E       		.uleb128 0x2e
 6975 22bb 5D000000 		.secrel32	.LASF16
 6976 22bf 03       		.byte	0x3
 6977 22c0 0E       		.byte	0xe
 6978 22c1 74020000 		.long	0x274
 6979 22c5 34250000 		.secrel32	.LLST134
 6980 22c9 2F       		.uleb128 0x2f
 6981 22ca 7B040000 		.long	0x47b
 6982 22ce 55000000 		.quad	.LBB661
 6982      00000000 
 6983 22d6 000B0000 		.secrel32	.Ldebug_ranges0+0xb00
 6984 22da 03       		.byte	0x3
 6985 22db 0E       		.byte	0xe
 6986 22dc 8B230000 		.long	0x238b
 6987 22e0 30       		.uleb128 0x30
 6988 22e1 89040000 		.long	0x489
 6989 22e5 B6250000 		.secrel32	.LLST135
 6990 22e9 31       		.uleb128 0x31
 6991 22ea DE030000 		.long	0x3de
 6992 22ee A6000000 		.quad	.LBB663
 6992      00000000 
 6993 22f6 20000000 		.quad	.LBE663-.LBB663
 6993      00000000 
 6994 22fe 02       		.byte	0x2
 6995 22ff 2E       		.byte	0x2e
 6996 2300 7A230000 		.long	0x237a
 6997 2304 30       		.uleb128 0x30
 6998 2305 EC030000 		.long	0x3ec
 6999 2309 02260000 		.secrel32	.LLST136
 7000 230d 31       		.uleb128 0x31
 7001 230e A7030000 		.long	0x3a7
 7002 2312 A6000000 		.quad	.LBB665
 7002      00000000 
 7003 231a 0C000000 		.quad	.LBE665-.LBB665
 7003      00000000 
 7004 2322 02       		.byte	0x2
 7005 2323 36       		.byte	0x36
 7006 2324 45230000 		.long	0x2345
 7007 2328 30       		.uleb128 0x30
 7008 2329 B5030000 		.long	0x3b5
 7009 232d 02260000 		.secrel32	.LLST136
 7010 2331 32       		.uleb128 0x32
 7011 2332 B2000000 		.quad	.LVL233
 7011      00000000 
 7012 233a 02       		.uleb128 0x2
 7013 233b 74       		.byte	0x74
 7014 233c 00       		.sleb128 0
 7015 233d 33       		.uleb128 0x33
 7016 233e 01       		.uleb128 0x1
 7017 233f 52       		.byte	0x52
 7018 2340 02       		.uleb128 0x2
 7019 2341 73       		.byte	0x73
 7020 2342 00       		.sleb128 0
 7021 2343 00       		.byte	0
 7022 2344 00       		.byte	0
 7023 2345 34       		.uleb128 0x34
 7024 2346 C5030000 		.long	0x3c5
 7025 234a B2000000 		.quad	.LBB667
 7025      00000000 
 7026 2352 06000000 		.quad	.LBE667-.LBB667
 7026      00000000 
 7027 235a 02       		.byte	0x2
 7028 235b 37       		.byte	0x37
 7029 235c 30       		.uleb128 0x30
 7030 235d D3030000 		.long	0x3d3
 7031 2361 4E260000 		.secrel32	.LLST138
 7032 2365 32       		.uleb128 0x32
 7033 2366 B8000000 		.quad	.LVL234
 7033      00000000 
 7034 236e 02       		.uleb128 0x2
 7035 236f 74       		.byte	0x74
 7036 2370 00       		.sleb128 0
 7037 2371 33       		.uleb128 0x33
 7038 2372 01       		.uleb128 0x1
 7039 2373 52       		.byte	0x52
 7040 2374 02       		.uleb128 0x2
 7041 2375 73       		.byte	0x73
 7042 2376 08       		.sleb128 8
 7043 2377 00       		.byte	0
 7044 2378 00       		.byte	0
 7045 2379 00       		.byte	0
 7046 237a 35       		.uleb128 0x35
 7047 237b A6000000 		.quad	.LVL232
 7047      00000000 
 7048 2383 33       		.uleb128 0x33
 7049 2384 01       		.uleb128 0x1
 7050 2385 52       		.byte	0x52
 7051 2386 02       		.uleb128 0x2
 7052 2387 73       		.byte	0x73
 7053 2388 10       		.sleb128 16
 7054 2389 00       		.byte	0
 7055 238a 00       		.byte	0
 7056 238b 36       		.uleb128 0x36
 7057 238c 600B0000 		.secrel32	.Ldebug_ranges0+0xb60
 7058 2390 A2230000 		.long	0x23a2
 7059 2394 2C       		.uleb128 0x2c
 7060 2395 6900     		.ascii "i\0"
 7061 2397 03       		.byte	0x3
 7062 2398 10       		.byte	0x10
 7063 2399 9C000000 		.long	0x9c
 7064 239d 9A260000 		.secrel32	.LLST139
 7065 23a1 00       		.byte	0
 7066 23a2 31       		.uleb128 0x31
 7067 23a3 A7030000 		.long	0x3a7
 7068 23a7 DF010000 		.quad	.LBB678
 7068      00000000 
 7069 23af 05000000 		.quad	.LBE678-.LBB678
 7069      00000000 
 7070 23b7 03       		.byte	0x3
 7071 23b8 12       		.byte	0x12
 7072 23b9 D7230000 		.long	0x23d7
 7073 23bd 30       		.uleb128 0x30
 7074 23be B5030000 		.long	0x3b5
 7075 23c2 5C270000 		.secrel32	.LLST140
 7076 23c6 35       		.uleb128 0x35
 7077 23c7 E4010000 		.quad	.LVL244
 7077      00000000 
 7078 23cf 33       		.uleb128 0x33
 7079 23d0 01       		.uleb128 0x1
 7080 23d1 52       		.byte	0x52
 7081 23d2 02       		.uleb128 0x2
 7082 23d3 73       		.byte	0x73
 7083 23d4 00       		.sleb128 0
 7084 23d5 00       		.byte	0
 7085 23d6 00       		.byte	0
 7086 23d7 31       		.uleb128 0x31
 7087 23d8 C5030000 		.long	0x3c5
 7088 23dc FE010000 		.quad	.LBB680
 7088      00000000 
 7089 23e4 06000000 		.quad	.LBE680-.LBB680
 7089      00000000 
 7090 23ec 03       		.byte	0x3
 7091 23ed 14       		.byte	0x14
 7092 23ee 0C240000 		.long	0x240c
 7093 23f2 30       		.uleb128 0x30
 7094 23f3 D3030000 		.long	0x3d3
 7095 23f7 BB270000 		.secrel32	.LLST141
 7096 23fb 35       		.uleb128 0x35
 7097 23fc 04020000 		.quad	.LVL246
 7097      00000000 
 7098 2404 33       		.uleb128 0x33
 7099 2405 01       		.uleb128 0x1
 7100 2406 52       		.byte	0x52
 7101 2407 02       		.uleb128 0x2
 7102 2408 73       		.byte	0x73
 7103 2409 08       		.sleb128 8
 7104 240a 00       		.byte	0
 7105 240b 00       		.byte	0
 7106 240c 2F       		.uleb128 0x2f
 7107 240d 17040000 		.long	0x417
 7108 2411 04020000 		.quad	.LBB682
 7108      00000000 
 7109 2419 A00B0000 		.secrel32	.Ldebug_ranges0+0xba0
 7110 241d 03       		.byte	0x3
 7111 241e 14       		.byte	0x14
 7112 241f 2D240000 		.long	0x242d
 7113 2423 30       		.uleb128 0x30
 7114 2424 25040000 		.long	0x425
 7115 2428 1A280000 		.secrel32	.LLST142
 7116 242c 00       		.byte	0
 7117 242d 2F       		.uleb128 0x2f
 7118 242e 17040000 		.long	0x417
 7119 2432 5F020000 		.quad	.LBB690
 7119      00000000 
 7120 243a F00B0000 		.secrel32	.Ldebug_ranges0+0xbf0
 7121 243e 03       		.byte	0x3
 7122 243f 16       		.byte	0x16
 7123 2440 4E240000 		.long	0x244e
 7124 2444 30       		.uleb128 0x30
 7125 2445 25040000 		.long	0x425
 7126 2449 79280000 		.secrel32	.LLST143
 7127 244d 00       		.byte	0
 7128 244e 36       		.uleb128 0x36
 7129 244f 400C0000 		.secrel32	.Ldebug_ranges0+0xc40
 7130 2453 65240000 		.long	0x2465
 7131 2457 2C       		.uleb128 0x2c
 7132 2458 6900     		.ascii "i\0"
 7133 245a 03       		.byte	0x3
 7134 245b 18       		.byte	0x18
 7135 245c 9C000000 		.long	0x9c
 7136 2460 D8280000 		.secrel32	.LLST144
 7137 2464 00       		.byte	0
 7138 2465 2F       		.uleb128 0x2f
 7139 2466 A7030000 		.long	0x3a7
 7140 246a DE030000 		.quad	.LBB700
 7140      00000000 
 7141 2472 800C0000 		.secrel32	.Ldebug_ranges0+0xc80
 7142 2476 03       		.byte	0x3
 7143 2477 1A       		.byte	0x1a
 7144 2478 96240000 		.long	0x2496
 7145 247c 30       		.uleb128 0x30
 7146 247d B5030000 		.long	0x3b5
 7147 2481 9A290000 		.secrel32	.LLST145
 7148 2485 35       		.uleb128 0x35
 7149 2486 E8030000 		.quad	.LVL259
 7149      00000000 
 7150 248e 33       		.uleb128 0x33
 7151 248f 01       		.uleb128 0x1
 7152 2490 52       		.byte	0x52
 7153 2491 02       		.uleb128 0x2
 7154 2492 73       		.byte	0x73
 7155 2493 00       		.sleb128 0
 7156 2494 00       		.byte	0
 7157 2495 00       		.byte	0
 7158 2496 31       		.uleb128 0x31
 7159 2497 C5030000 		.long	0x3c5
 7160 249b 02040000 		.quad	.LBB704
 7160      00000000 
 7161 24a3 06000000 		.quad	.LBE704-.LBB704
 7161      00000000 
 7162 24ab 03       		.byte	0x3
 7163 24ac 1C       		.byte	0x1c
 7164 24ad CB240000 		.long	0x24cb
 7165 24b1 30       		.uleb128 0x30
 7166 24b2 D3030000 		.long	0x3d3
 7167 24b6 0C2A0000 		.secrel32	.LLST146
 7168 24ba 35       		.uleb128 0x35
 7169 24bb 08040000 		.quad	.LVL261
 7169      00000000 
 7170 24c3 33       		.uleb128 0x33
 7171 24c4 01       		.uleb128 0x1
 7172 24c5 52       		.byte	0x52
 7173 24c6 02       		.uleb128 0x2
 7174 24c7 73       		.byte	0x73
 7175 24c8 08       		.sleb128 8
 7176 24c9 00       		.byte	0
 7177 24ca 00       		.byte	0
 7178 24cb 2F       		.uleb128 0x2f
 7179 24cc 17040000 		.long	0x417
 7180 24d0 08040000 		.quad	.LBB706
 7180      00000000 
 7181 24d8 B00C0000 		.secrel32	.Ldebug_ranges0+0xcb0
 7182 24dc 03       		.byte	0x3
 7183 24dd 1C       		.byte	0x1c
 7184 24de EC240000 		.long	0x24ec
 7185 24e2 30       		.uleb128 0x30
 7186 24e3 25040000 		.long	0x425
 7187 24e7 7E2A0000 		.secrel32	.LLST147
 7188 24eb 00       		.byte	0
 7189 24ec 2F       		.uleb128 0x2f
 7190 24ed 17040000 		.long	0x417
 7191 24f1 4D040000 		.quad	.LBB712
 7191      00000000 
 7192 24f9 F00C0000 		.secrel32	.Ldebug_ranges0+0xcf0
 7193 24fd 03       		.byte	0x3
 7194 24fe 1E       		.byte	0x1e
 7195 24ff 0D250000 		.long	0x250d
 7196 2503 30       		.uleb128 0x30
 7197 2504 25040000 		.long	0x425
 7198 2508 F02A0000 		.secrel32	.LLST148
 7199 250c 00       		.byte	0
 7200 250d 36       		.uleb128 0x36
 7201 250e 200D0000 		.secrel32	.Ldebug_ranges0+0xd20
 7202 2512 24250000 		.long	0x2524
 7203 2516 2C       		.uleb128 0x2c
 7204 2517 6900     		.ascii "i\0"
 7205 2519 03       		.byte	0x3
 7206 251a 20       		.byte	0x20
 7207 251b 9C000000 		.long	0x9c
 7208 251f 622B0000 		.secrel32	.LLST149
 7209 2523 00       		.byte	0
 7210 2524 2F       		.uleb128 0x2f
 7211 2525 A7030000 		.long	0x3a7
 7212 2529 B0050000 		.quad	.LBB718
 7212      00000000 
 7213 2531 600D0000 		.secrel32	.Ldebug_ranges0+0xd60
 7214 2535 03       		.byte	0x3
 7215 2536 22       		.byte	0x22
 7216 2537 55250000 		.long	0x2555
 7217 253b 30       		.uleb128 0x30
 7218 253c B5030000 		.long	0x3b5
 7219 2540 242C0000 		.secrel32	.LLST150
 7220 2544 35       		.uleb128 0x35
 7221 2545 BA050000 		.quad	.LVL274
 7221      00000000 
 7222 254d 33       		.uleb128 0x33
 7223 254e 01       		.uleb128 0x1
 7224 254f 52       		.byte	0x52
 7225 2550 02       		.uleb128 0x2
 7226 2551 73       		.byte	0x73
 7227 2552 00       		.sleb128 0
 7228 2553 00       		.byte	0
 7229 2554 00       		.byte	0
 7230 2555 31       		.uleb128 0x31
 7231 2556 C5030000 		.long	0x3c5
 7232 255a D4050000 		.quad	.LBB722
 7232      00000000 
 7233 2562 06000000 		.quad	.LBE722-.LBB722
 7233      00000000 
 7234 256a 03       		.byte	0x3
 7235 256b 24       		.byte	0x24
 7236 256c 8A250000 		.long	0x258a
 7237 2570 30       		.uleb128 0x30
 7238 2571 D3030000 		.long	0x3d3
 7239 2575 A92C0000 		.secrel32	.LLST151
 7240 2579 35       		.uleb128 0x35
 7241 257a DA050000 		.quad	.LVL276
 7241      00000000 
 7242 2582 33       		.uleb128 0x33
 7243 2583 01       		.uleb128 0x1
 7244 2584 52       		.byte	0x52
 7245 2585 02       		.uleb128 0x2
 7246 2586 73       		.byte	0x73
 7247 2587 08       		.sleb128 8
 7248 2588 00       		.byte	0
 7249 2589 00       		.byte	0
 7250 258a 2F       		.uleb128 0x2f
 7251 258b 17040000 		.long	0x417
 7252 258f DA050000 		.quad	.LBB724
 7252      00000000 
 7253 2597 900D0000 		.secrel32	.Ldebug_ranges0+0xd90
 7254 259b 03       		.byte	0x3
 7255 259c 24       		.byte	0x24
 7256 259d AB250000 		.long	0x25ab
 7257 25a1 30       		.uleb128 0x30
 7258 25a2 25040000 		.long	0x425
 7259 25a6 2E2D0000 		.secrel32	.LLST152
 7260 25aa 00       		.byte	0
 7261 25ab 2F       		.uleb128 0x2f
 7262 25ac 17040000 		.long	0x417
 7263 25b0 1F060000 		.quad	.LBB730
 7263      00000000 
 7264 25b8 D00D0000 		.secrel32	.Ldebug_ranges0+0xdd0
 7265 25bc 03       		.byte	0x3
 7266 25bd 26       		.byte	0x26
 7267 25be CC250000 		.long	0x25cc
 7268 25c2 30       		.uleb128 0x30
 7269 25c3 25040000 		.long	0x425
 7270 25c7 B32D0000 		.secrel32	.LLST153
 7271 25cb 00       		.byte	0
 7272 25cc 36       		.uleb128 0x36
 7273 25cd 000E0000 		.secrel32	.Ldebug_ranges0+0xe00
 7274 25d1 E3250000 		.long	0x25e3
 7275 25d5 2C       		.uleb128 0x2c
 7276 25d6 6900     		.ascii "i\0"
 7277 25d8 03       		.byte	0x3
 7278 25d9 28       		.byte	0x28
 7279 25da 9C000000 		.long	0x9c
 7280 25de 382E0000 		.secrel32	.LLST154
 7281 25e2 00       		.byte	0
 7282 25e3 2F       		.uleb128 0x2f
 7283 25e4 A7030000 		.long	0x3a7
 7284 25e8 82070000 		.quad	.LBB736
 7284      00000000 
 7285 25f0 400E0000 		.secrel32	.Ldebug_ranges0+0xe40
 7286 25f4 03       		.byte	0x3
 7287 25f5 2A       		.byte	0x2a
 7288 25f6 14260000 		.long	0x2614
 7289 25fa 30       		.uleb128 0x30
 7290 25fb B5030000 		.long	0x3b5
 7291 25ff FA2E0000 		.secrel32	.LLST155
 7292 2603 35       		.uleb128 0x35
 7293 2604 8C070000 		.quad	.LVL289
 7293      00000000 
 7294 260c 33       		.uleb128 0x33
 7295 260d 01       		.uleb128 0x1
 7296 260e 52       		.byte	0x52
 7297 260f 02       		.uleb128 0x2
 7298 2610 73       		.byte	0x73
 7299 2611 00       		.sleb128 0
 7300 2612 00       		.byte	0
 7301 2613 00       		.byte	0
 7302 2614 31       		.uleb128 0x31
 7303 2615 C5030000 		.long	0x3c5
 7304 2619 A6070000 		.quad	.LBB740
 7304      00000000 
 7305 2621 06000000 		.quad	.LBE740-.LBB740
 7305      00000000 
 7306 2629 03       		.byte	0x3
 7307 262a 2C       		.byte	0x2c
 7308 262b 49260000 		.long	0x2649
 7309 262f 30       		.uleb128 0x30
 7310 2630 D3030000 		.long	0x3d3
 7311 2634 6C2F0000 		.secrel32	.LLST156
 7312 2638 35       		.uleb128 0x35
 7313 2639 AC070000 		.quad	.LVL291
 7313      00000000 
 7314 2641 33       		.uleb128 0x33
 7315 2642 01       		.uleb128 0x1
 7316 2643 52       		.byte	0x52
 7317 2644 02       		.uleb128 0x2
 7318 2645 73       		.byte	0x73
 7319 2646 08       		.sleb128 8
 7320 2647 00       		.byte	0
 7321 2648 00       		.byte	0
 7322 2649 2F       		.uleb128 0x2f
 7323 264a 17040000 		.long	0x417
 7324 264e AC070000 		.quad	.LBB742
 7324      00000000 
 7325 2656 700E0000 		.secrel32	.Ldebug_ranges0+0xe70
 7326 265a 03       		.byte	0x3
 7327 265b 2C       		.byte	0x2c
 7328 265c 6A260000 		.long	0x266a
 7329 2660 30       		.uleb128 0x30
 7330 2661 25040000 		.long	0x425
 7331 2665 DE2F0000 		.secrel32	.LLST157
 7332 2669 00       		.byte	0
 7333 266a 2F       		.uleb128 0x2f
 7334 266b 17040000 		.long	0x417
 7335 266f F1070000 		.quad	.LBB748
 7335      00000000 
 7336 2677 B00E0000 		.secrel32	.Ldebug_ranges0+0xeb0
 7337 267b 03       		.byte	0x3
 7338 267c 2E       		.byte	0x2e
 7339 267d 8B260000 		.long	0x268b
 7340 2681 30       		.uleb128 0x30
 7341 2682 25040000 		.long	0x425
 7342 2686 50300000 		.secrel32	.LLST158
 7343 268a 00       		.byte	0
 7344 268b 36       		.uleb128 0x36
 7345 268c E00E0000 		.secrel32	.Ldebug_ranges0+0xee0
 7346 2690 A2260000 		.long	0x26a2
 7347 2694 2C       		.uleb128 0x2c
 7348 2695 6900     		.ascii "i\0"
 7349 2697 03       		.byte	0x3
 7350 2698 30       		.byte	0x30
 7351 2699 9C000000 		.long	0x9c
 7352 269d C2300000 		.secrel32	.LLST159
 7353 26a1 00       		.byte	0
 7354 26a2 2F       		.uleb128 0x2f
 7355 26a3 A7030000 		.long	0x3a7
 7356 26a7 5E090000 		.quad	.LBB754
 7356      00000000 
 7357 26af 200F0000 		.secrel32	.Ldebug_ranges0+0xf20
 7358 26b3 03       		.byte	0x3
 7359 26b4 32       		.byte	0x32
 7360 26b5 D3260000 		.long	0x26d3
 7361 26b9 30       		.uleb128 0x30
 7362 26ba B5030000 		.long	0x3b5
 7363 26be 84310000 		.secrel32	.LLST160
 7364 26c2 35       		.uleb128 0x35
 7365 26c3 68090000 		.quad	.LVL304
 7365      00000000 
 7366 26cb 33       		.uleb128 0x33
 7367 26cc 01       		.uleb128 0x1
 7368 26cd 52       		.byte	0x52
 7369 26ce 02       		.uleb128 0x2
 7370 26cf 73       		.byte	0x73
 7371 26d0 00       		.sleb128 0
 7372 26d1 00       		.byte	0
 7373 26d2 00       		.byte	0
 7374 26d3 31       		.uleb128 0x31
 7375 26d4 C5030000 		.long	0x3c5
 7376 26d8 82090000 		.quad	.LBB758
 7376      00000000 
 7377 26e0 06000000 		.quad	.LBE758-.LBB758
 7377      00000000 
 7378 26e8 03       		.byte	0x3
 7379 26e9 34       		.byte	0x34
 7380 26ea 08270000 		.long	0x2708
 7381 26ee 30       		.uleb128 0x30
 7382 26ef D3030000 		.long	0x3d3
 7383 26f3 F6310000 		.secrel32	.LLST161
 7384 26f7 35       		.uleb128 0x35
 7385 26f8 88090000 		.quad	.LVL306
 7385      00000000 
 7386 2700 33       		.uleb128 0x33
 7387 2701 01       		.uleb128 0x1
 7388 2702 52       		.byte	0x52
 7389 2703 02       		.uleb128 0x2
 7390 2704 73       		.byte	0x73
 7391 2705 08       		.sleb128 8
 7392 2706 00       		.byte	0
 7393 2707 00       		.byte	0
 7394 2708 2F       		.uleb128 0x2f
 7395 2709 17040000 		.long	0x417
 7396 270d 88090000 		.quad	.LBB760
 7396      00000000 
 7397 2715 500F0000 		.secrel32	.Ldebug_ranges0+0xf50
 7398 2719 03       		.byte	0x3
 7399 271a 34       		.byte	0x34
 7400 271b 29270000 		.long	0x2729
 7401 271f 30       		.uleb128 0x30
 7402 2720 25040000 		.long	0x425
 7403 2724 68320000 		.secrel32	.LLST162
 7404 2728 00       		.byte	0
 7405 2729 2F       		.uleb128 0x2f
 7406 272a 17040000 		.long	0x417
 7407 272e CD090000 		.quad	.LBB766
 7407      00000000 
 7408 2736 900F0000 		.secrel32	.Ldebug_ranges0+0xf90
 7409 273a 03       		.byte	0x3
 7410 273b 36       		.byte	0x36
 7411 273c 4A270000 		.long	0x274a
 7412 2740 30       		.uleb128 0x30
 7413 2741 25040000 		.long	0x425
 7414 2745 DA320000 		.secrel32	.LLST163
 7415 2749 00       		.byte	0
 7416 274a 36       		.uleb128 0x36
 7417 274b C00F0000 		.secrel32	.Ldebug_ranges0+0xfc0
 7418 274f 61270000 		.long	0x2761
 7419 2753 2C       		.uleb128 0x2c
 7420 2754 6900     		.ascii "i\0"
 7421 2756 03       		.byte	0x3
 7422 2757 38       		.byte	0x38
 7423 2758 9C000000 		.long	0x9c
 7424 275c 4C330000 		.secrel32	.LLST164
 7425 2760 00       		.byte	0
 7426 2761 31       		.uleb128 0x31
 7427 2762 A7030000 		.long	0x3a7
 7428 2766 300B0000 		.quad	.LBB772
 7428      00000000 
 7429 276e 05000000 		.quad	.LBE772-.LBB772
 7429      00000000 
 7430 2776 03       		.byte	0x3
 7431 2777 3A       		.byte	0x3a
 7432 2778 96270000 		.long	0x2796
 7433 277c 30       		.uleb128 0x30
 7434 277d B5030000 		.long	0x3b5
 7435 2781 0E340000 		.secrel32	.LLST165
 7436 2785 35       		.uleb128 0x35
 7437 2786 350B0000 		.quad	.LVL319
 7437      00000000 
 7438 278e 33       		.uleb128 0x33
 7439 278f 01       		.uleb128 0x1
 7440 2790 52       		.byte	0x52
 7441 2791 02       		.uleb128 0x2
 7442 2792 73       		.byte	0x73
 7443 2793 00       		.sleb128 0
 7444 2794 00       		.byte	0
 7445 2795 00       		.byte	0
 7446 2796 31       		.uleb128 0x31
 7447 2797 C5030000 		.long	0x3c5
 7448 279b 4F0B0000 		.quad	.LBB774
 7448      00000000 
 7449 27a3 06000000 		.quad	.LBE774-.LBB774
 7449      00000000 
 7450 27ab 03       		.byte	0x3
 7451 27ac 3C       		.byte	0x3c
 7452 27ad CB270000 		.long	0x27cb
 7453 27b1 30       		.uleb128 0x30
 7454 27b2 D3030000 		.long	0x3d3
 7455 27b6 47340000 		.secrel32	.LLST166
 7456 27ba 35       		.uleb128 0x35
 7457 27bb 550B0000 		.quad	.LVL321
 7457      00000000 
 7458 27c3 33       		.uleb128 0x33
 7459 27c4 01       		.uleb128 0x1
 7460 27c5 52       		.byte	0x52
 7461 27c6 02       		.uleb128 0x2
 7462 27c7 73       		.byte	0x73
 7463 27c8 08       		.sleb128 8
 7464 27c9 00       		.byte	0
 7465 27ca 00       		.byte	0
 7466 27cb 2F       		.uleb128 0x2f
 7467 27cc 17040000 		.long	0x417
 7468 27d0 550B0000 		.quad	.LBB776
 7468      00000000 
 7469 27d8 10100000 		.secrel32	.Ldebug_ranges0+0x1010
 7470 27dc 03       		.byte	0x3
 7471 27dd 3C       		.byte	0x3c
 7472 27de EC270000 		.long	0x27ec
 7473 27e2 30       		.uleb128 0x30
 7474 27e3 25040000 		.long	0x425
 7475 27e7 80340000 		.secrel32	.LLST167
 7476 27eb 00       		.byte	0
 7477 27ec 2F       		.uleb128 0x2f
 7478 27ed 17040000 		.long	0x417
 7479 27f1 9A0B0000 		.quad	.LBB782
 7479      00000000 
 7480 27f9 50100000 		.secrel32	.Ldebug_ranges0+0x1050
 7481 27fd 03       		.byte	0x3
 7482 27fe 3E       		.byte	0x3e
 7483 27ff 0D280000 		.long	0x280d
 7484 2803 30       		.uleb128 0x30
 7485 2804 25040000 		.long	0x425
 7486 2808 B9340000 		.secrel32	.LLST168
 7487 280c 00       		.byte	0
 7488 280d 43       		.uleb128 0x43
 7489 280e 64000000 		.quad	.LVL224
 7489      00000000 
 7490 2816 7D2B0000 		.long	0x2b7d
 7491 281a 26280000 		.long	0x2826
 7492 281e 33       		.uleb128 0x33
 7493 281f 01       		.uleb128 0x1
 7494 2820 52       		.byte	0x52
 7495 2821 03       		.uleb128 0x3
 7496 2822 49       		.byte	0x49
 7497 2823 48       		.byte	0x48
 7498 2824 24       		.byte	0x24
 7499 2825 00       		.byte	0
 7500 2826 43       		.uleb128 0x43
 7501 2827 71000000 		.quad	.LVL226
 7501      00000000 
 7502 282f 7D2B0000 		.long	0x2b7d
 7503 2833 3F280000 		.long	0x283f
 7504 2837 33       		.uleb128 0x33
 7505 2838 01       		.uleb128 0x1
 7506 2839 52       		.byte	0x52
 7507 283a 03       		.uleb128 0x3
 7508 283b 49       		.byte	0x49
 7509 283c 48       		.byte	0x48
 7510 283d 24       		.byte	0x24
 7511 283e 00       		.byte	0
 7512 283f 43       		.uleb128 0x43
 7513 2840 85000000 		.quad	.LVL228
 7513      00000000 
 7514 2848 7D2B0000 		.long	0x2b7d
 7515 284c 58280000 		.long	0x2858
 7516 2850 33       		.uleb128 0x33
 7517 2851 01       		.uleb128 0x1
 7518 2852 52       		.byte	0x52
 7519 2853 03       		.uleb128 0x3
 7520 2854 49       		.byte	0x49
 7521 2855 48       		.byte	0x48
 7522 2856 24       		.byte	0x24
 7523 2857 00       		.byte	0
 7524 2858 43       		.uleb128 0x43
 7525 2859 99000000 		.quad	.LVL230
 7525      00000000 
 7526 2861 7D2B0000 		.long	0x2b7d
 7527 2865 71280000 		.long	0x2871
 7528 2869 33       		.uleb128 0x33
 7529 286a 01       		.uleb128 0x1
 7530 286b 52       		.byte	0x52
 7531 286c 03       		.uleb128 0x3
 7532 286d 49       		.byte	0x49
 7533 286e 48       		.byte	0x48
 7534 286f 24       		.byte	0x24
 7535 2870 00       		.byte	0
 7536 2871 43       		.uleb128 0x43
 7537 2872 FE010000 		.quad	.LVL245
 7537      00000000 
 7538 287a 94040000 		.long	0x494
 7539 287e A3280000 		.long	0x28a3
 7540 2882 33       		.uleb128 0x33
 7541 2883 01       		.uleb128 0x1
 7542 2884 52       		.byte	0x52
 7543 2885 02       		.uleb128 0x2
 7544 2886 7D       		.byte	0x7d
 7545 2887 00       		.sleb128 0
 7546 2888 33       		.uleb128 0x33
 7547 2889 01       		.uleb128 0x1
 7548 288a 51       		.byte	0x51
 7549 288b 02       		.uleb128 0x2
 7550 288c 75       		.byte	0x75
 7551 288d 00       		.sleb128 0
 7552 288e 33       		.uleb128 0x33
 7553 288f 01       		.uleb128 0x1
 7554 2890 58       		.byte	0x58
 7555 2891 02       		.uleb128 0x2
 7556 2892 76       		.byte	0x76
 7557 2893 00       		.sleb128 0
 7558 2894 33       		.uleb128 0x33
 7559 2895 01       		.uleb128 0x1
 7560 2896 59       		.byte	0x59
 7561 2897 02       		.uleb128 0x2
 7562 2898 7C       		.byte	0x7c
 7563 2899 00       		.sleb128 0
 7564 289a 33       		.uleb128 0x33
 7565 289b 02       		.uleb128 0x2
 7566 289c 77       		.byte	0x77
 7567 289d 20       		.sleb128 32
 7568 289e 03       		.uleb128 0x3
 7569 289f 49       		.byte	0x49
 7570 28a0 46       		.byte	0x46
 7571 28a1 24       		.byte	0x24
 7572 28a2 00       		.byte	0
 7573 28a3 43       		.uleb128 0x43
 7574 28a4 5F020000 		.quad	.LVL248
 7574      00000000 
 7575 28ac 382B0000 		.long	0x2b38
 7576 28b0 C8280000 		.long	0x28c8
 7577 28b4 33       		.uleb128 0x33
 7578 28b5 01       		.uleb128 0x1
 7579 28b6 52       		.byte	0x52
 7580 28b7 09       		.uleb128 0x9
 7581 28b8 03       		.byte	0x3
 7582 28b9 39000000 		.quad	.LC8
 7582      00000000 
 7583 28c1 33       		.uleb128 0x33
 7584 28c2 01       		.uleb128 0x1
 7585 28c3 51       		.byte	0x51
 7586 28c4 02       		.uleb128 0x2
 7587 28c5 08       		.byte	0x8
 7588 28c6 64       		.byte	0x64
 7589 28c7 00       		.byte	0
 7590 28c8 43       		.uleb128 0x43
 7591 28c9 D3020000 		.quad	.LVL250
 7591      00000000 
 7592 28d1 382B0000 		.long	0x2b38
 7593 28d5 E7280000 		.long	0x28e7
 7594 28d9 33       		.uleb128 0x33
 7595 28da 01       		.uleb128 0x1
 7596 28db 52       		.byte	0x52
 7597 28dc 09       		.uleb128 0x9
 7598 28dd 03       		.byte	0x3
 7599 28de 48000000 		.quad	.LC9
 7599      00000000 
 7600 28e6 00       		.byte	0
 7601 28e7 43       		.uleb128 0x43
 7602 28e8 02040000 		.quad	.LVL260
 7602      00000000 
 7603 28f0 4C090000 		.long	0x94c
 7604 28f4 19290000 		.long	0x2919
 7605 28f8 33       		.uleb128 0x33
 7606 28f9 01       		.uleb128 0x1
 7607 28fa 52       		.byte	0x52
 7608 28fb 02       		.uleb128 0x2
 7609 28fc 7D       		.byte	0x7d
 7610 28fd 00       		.sleb128 0
 7611 28fe 33       		.uleb128 0x33
 7612 28ff 01       		.uleb128 0x1
 7613 2900 51       		.byte	0x51
 7614 2901 02       		.uleb128 0x2
 7615 2902 75       		.byte	0x75
 7616 2903 00       		.sleb128 0
 7617 2904 33       		.uleb128 0x33
 7618 2905 01       		.uleb128 0x1
 7619 2906 58       		.byte	0x58
 7620 2907 02       		.uleb128 0x2
 7621 2908 76       		.byte	0x76
 7622 2909 00       		.sleb128 0
 7623 290a 33       		.uleb128 0x33
 7624 290b 01       		.uleb128 0x1
 7625 290c 59       		.byte	0x59
 7626 290d 02       		.uleb128 0x2
 7627 290e 7C       		.byte	0x7c
 7628 290f 00       		.sleb128 0
 7629 2910 33       		.uleb128 0x33
 7630 2911 02       		.uleb128 0x2
 7631 2912 77       		.byte	0x77
 7632 2913 20       		.sleb128 32
 7633 2914 03       		.uleb128 0x3
 7634 2915 49       		.byte	0x49
 7635 2916 46       		.byte	0x46
 7636 2917 24       		.byte	0x24
 7637 2918 00       		.byte	0
 7638 2919 43       		.uleb128 0x43
 7639 291a 4D040000 		.quad	.LVL263
 7639      00000000 
 7640 2922 382B0000 		.long	0x2b38
 7641 2926 3E290000 		.long	0x293e
 7642 292a 33       		.uleb128 0x33
 7643 292b 01       		.uleb128 0x1
 7644 292c 52       		.byte	0x52
 7645 292d 09       		.uleb128 0x9
 7646 292e 03       		.byte	0x3
 7647 292f 39000000 		.quad	.LC8
 7647      00000000 
 7648 2937 33       		.uleb128 0x33
 7649 2938 01       		.uleb128 0x1
 7650 2939 51       		.byte	0x51
 7651 293a 02       		.uleb128 0x2
 7652 293b 08       		.byte	0x8
 7653 293c 64       		.byte	0x64
 7654 293d 00       		.byte	0
 7655 293e 43       		.uleb128 0x43
 7656 293f AF040000 		.quad	.LVL265
 7656      00000000 
 7657 2947 382B0000 		.long	0x2b38
 7658 294b 5D290000 		.long	0x295d
 7659 294f 33       		.uleb128 0x33
 7660 2950 01       		.uleb128 0x1
 7661 2951 52       		.byte	0x52
 7662 2952 09       		.uleb128 0x9
 7663 2953 03       		.byte	0x3
 7664 2954 48000000 		.quad	.LC9
 7664      00000000 
 7665 295c 00       		.byte	0
 7666 295d 43       		.uleb128 0x43
 7667 295e D4050000 		.quad	.LVL275
 7667      00000000 
 7668 2966 170E0000 		.long	0xe17
 7669 296a 8F290000 		.long	0x298f
 7670 296e 33       		.uleb128 0x33
 7671 296f 01       		.uleb128 0x1
 7672 2970 52       		.byte	0x52
 7673 2971 02       		.uleb128 0x2
 7674 2972 7D       		.byte	0x7d
 7675 2973 00       		.sleb128 0
 7676 2974 33       		.uleb128 0x33
 7677 2975 01       		.uleb128 0x1
 7678 2976 51       		.byte	0x51
 7679 2977 02       		.uleb128 0x2
 7680 2978 75       		.byte	0x75
 7681 2979 00       		.sleb128 0
 7682 297a 33       		.uleb128 0x33
 7683 297b 01       		.uleb128 0x1
 7684 297c 58       		.byte	0x58
 7685 297d 02       		.uleb128 0x2
 7686 297e 76       		.byte	0x76
 7687 297f 00       		.sleb128 0
 7688 2980 33       		.uleb128 0x33
 7689 2981 01       		.uleb128 0x1
 7690 2982 59       		.byte	0x59
 7691 2983 02       		.uleb128 0x2
 7692 2984 7C       		.byte	0x7c
 7693 2985 00       		.sleb128 0
 7694 2986 33       		.uleb128 0x33
 7695 2987 02       		.uleb128 0x2
 7696 2988 77       		.byte	0x77
 7697 2989 20       		.sleb128 32
 7698 298a 03       		.uleb128 0x3
 7699 298b 49       		.byte	0x49
 7700 298c 46       		.byte	0x46
 7701 298d 24       		.byte	0x24
 7702 298e 00       		.byte	0
 7703 298f 43       		.uleb128 0x43
 7704 2990 1F060000 		.quad	.LVL278
 7704      00000000 
 7705 2998 382B0000 		.long	0x2b38
 7706 299c B4290000 		.long	0x29b4
 7707 29a0 33       		.uleb128 0x33
 7708 29a1 01       		.uleb128 0x1
 7709 29a2 52       		.byte	0x52
 7710 29a3 09       		.uleb128 0x9
 7711 29a4 03       		.byte	0x3
 7712 29a5 39000000 		.quad	.LC8
 7712      00000000 
 7713 29ad 33       		.uleb128 0x33
 7714 29ae 01       		.uleb128 0x1
 7715 29af 51       		.byte	0x51
 7716 29b0 02       		.uleb128 0x2
 7717 29b1 08       		.byte	0x8
 7718 29b2 64       		.byte	0x64
 7719 29b3 00       		.byte	0
 7720 29b4 43       		.uleb128 0x43
 7721 29b5 81060000 		.quad	.LVL280
 7721      00000000 
 7722 29bd 382B0000 		.long	0x2b38
 7723 29c1 D3290000 		.long	0x29d3
 7724 29c5 33       		.uleb128 0x33
 7725 29c6 01       		.uleb128 0x1
 7726 29c7 52       		.byte	0x52
 7727 29c8 09       		.uleb128 0x9
 7728 29c9 03       		.byte	0x3
 7729 29ca 48000000 		.quad	.LC9
 7729      00000000 
 7730 29d2 00       		.byte	0
 7731 29d3 43       		.uleb128 0x43
 7732 29d4 A6070000 		.quad	.LVL290
 7732      00000000 
 7733 29dc 1F130000 		.long	0x131f
 7734 29e0 052A0000 		.long	0x2a05
 7735 29e4 33       		.uleb128 0x33
 7736 29e5 01       		.uleb128 0x1
 7737 29e6 52       		.byte	0x52
 7738 29e7 02       		.uleb128 0x2
 7739 29e8 7D       		.byte	0x7d
 7740 29e9 00       		.sleb128 0
 7741 29ea 33       		.uleb128 0x33
 7742 29eb 01       		.uleb128 0x1
 7743 29ec 51       		.byte	0x51
 7744 29ed 02       		.uleb128 0x2
 7745 29ee 75       		.byte	0x75
 7746 29ef 00       		.sleb128 0
 7747 29f0 33       		.uleb128 0x33
 7748 29f1 01       		.uleb128 0x1
 7749 29f2 58       		.byte	0x58
 7750 29f3 02       		.uleb128 0x2
 7751 29f4 76       		.byte	0x76
 7752 29f5 00       		.sleb128 0
 7753 29f6 33       		.uleb128 0x33
 7754 29f7 01       		.uleb128 0x1
 7755 29f8 59       		.byte	0x59
 7756 29f9 02       		.uleb128 0x2
 7757 29fa 7C       		.byte	0x7c
 7758 29fb 00       		.sleb128 0
 7759 29fc 33       		.uleb128 0x33
 7760 29fd 02       		.uleb128 0x2
 7761 29fe 77       		.byte	0x77
 7762 29ff 20       		.sleb128 32
 7763 2a00 03       		.uleb128 0x3
 7764 2a01 49       		.byte	0x49
 7765 2a02 46       		.byte	0x46
 7766 2a03 24       		.byte	0x24
 7767 2a04 00       		.byte	0
 7768 2a05 43       		.uleb128 0x43
 7769 2a06 F1070000 		.quad	.LVL293
 7769      00000000 
 7770 2a0e 382B0000 		.long	0x2b38
 7771 2a12 2A2A0000 		.long	0x2a2a
 7772 2a16 33       		.uleb128 0x33
 7773 2a17 01       		.uleb128 0x1
 7774 2a18 52       		.byte	0x52
 7775 2a19 09       		.uleb128 0x9
 7776 2a1a 03       		.byte	0x3
 7777 2a1b 39000000 		.quad	.LC8
 7777      00000000 
 7778 2a23 33       		.uleb128 0x33
 7779 2a24 01       		.uleb128 0x1
 7780 2a25 51       		.byte	0x51
 7781 2a26 02       		.uleb128 0x2
 7782 2a27 08       		.byte	0x8
 7783 2a28 64       		.byte	0x64
 7784 2a29 00       		.byte	0
 7785 2a2a 43       		.uleb128 0x43
 7786 2a2b 53080000 		.quad	.LVL295
 7786      00000000 
 7787 2a33 382B0000 		.long	0x2b38
 7788 2a37 492A0000 		.long	0x2a49
 7789 2a3b 33       		.uleb128 0x33
 7790 2a3c 01       		.uleb128 0x1
 7791 2a3d 52       		.byte	0x52
 7792 2a3e 09       		.uleb128 0x9
 7793 2a3f 03       		.byte	0x3
 7794 2a40 48000000 		.quad	.LC9
 7794      00000000 
 7795 2a48 00       		.byte	0
 7796 2a49 43       		.uleb128 0x43
 7797 2a4a 82090000 		.quad	.LVL305
 7797      00000000 
 7798 2a52 1B180000 		.long	0x181b
 7799 2a56 7B2A0000 		.long	0x2a7b
 7800 2a5a 33       		.uleb128 0x33
 7801 2a5b 01       		.uleb128 0x1
 7802 2a5c 52       		.byte	0x52
 7803 2a5d 02       		.uleb128 0x2
 7804 2a5e 7D       		.byte	0x7d
 7805 2a5f 00       		.sleb128 0
 7806 2a60 33       		.uleb128 0x33
 7807 2a61 01       		.uleb128 0x1
 7808 2a62 51       		.byte	0x51
 7809 2a63 02       		.uleb128 0x2
 7810 2a64 75       		.byte	0x75
 7811 2a65 00       		.sleb128 0
 7812 2a66 33       		.uleb128 0x33
 7813 2a67 01       		.uleb128 0x1
 7814 2a68 58       		.byte	0x58
 7815 2a69 02       		.uleb128 0x2
 7816 2a6a 76       		.byte	0x76
 7817 2a6b 00       		.sleb128 0
 7818 2a6c 33       		.uleb128 0x33
 7819 2a6d 01       		.uleb128 0x1
 7820 2a6e 59       		.byte	0x59
 7821 2a6f 02       		.uleb128 0x2
 7822 2a70 7C       		.byte	0x7c
 7823 2a71 00       		.sleb128 0
 7824 2a72 33       		.uleb128 0x33
 7825 2a73 02       		.uleb128 0x2
 7826 2a74 77       		.byte	0x77
 7827 2a75 20       		.sleb128 32
 7828 2a76 03       		.uleb128 0x3
 7829 2a77 49       		.byte	0x49
 7830 2a78 46       		.byte	0x46
 7831 2a79 24       		.byte	0x24
 7832 2a7a 00       		.byte	0
 7833 2a7b 43       		.uleb128 0x43
 7834 2a7c CD090000 		.quad	.LVL308
 7834      00000000 
 7835 2a84 382B0000 		.long	0x2b38
 7836 2a88 A02A0000 		.long	0x2aa0
 7837 2a8c 33       		.uleb128 0x33
 7838 2a8d 01       		.uleb128 0x1
 7839 2a8e 52       		.byte	0x52
 7840 2a8f 09       		.uleb128 0x9
 7841 2a90 03       		.byte	0x3
 7842 2a91 39000000 		.quad	.LC8
 7842      00000000 
 7843 2a99 33       		.uleb128 0x33
 7844 2a9a 01       		.uleb128 0x1
 7845 2a9b 51       		.byte	0x51
 7846 2a9c 02       		.uleb128 0x2
 7847 2a9d 08       		.byte	0x8
 7848 2a9e 64       		.byte	0x64
 7849 2a9f 00       		.byte	0
 7850 2aa0 43       		.uleb128 0x43
 7851 2aa1 2F0A0000 		.quad	.LVL310
 7851      00000000 
 7852 2aa9 382B0000 		.long	0x2b38
 7853 2aad BF2A0000 		.long	0x2abf
 7854 2ab1 33       		.uleb128 0x33
 7855 2ab2 01       		.uleb128 0x1
 7856 2ab3 52       		.byte	0x52
 7857 2ab4 09       		.uleb128 0x9
 7858 2ab5 03       		.byte	0x3
 7859 2ab6 48000000 		.quad	.LC9
 7859      00000000 
 7860 2abe 00       		.byte	0
 7861 2abf 43       		.uleb128 0x43
 7862 2ac0 4F0B0000 		.quad	.LVL320
 7862      00000000 
 7863 2ac8 2B1D0000 		.long	0x1d2b
 7864 2acc F12A0000 		.long	0x2af1
 7865 2ad0 33       		.uleb128 0x33
 7866 2ad1 01       		.uleb128 0x1
 7867 2ad2 52       		.byte	0x52
 7868 2ad3 02       		.uleb128 0x2
 7869 2ad4 7D       		.byte	0x7d
 7870 2ad5 00       		.sleb128 0
 7871 2ad6 33       		.uleb128 0x33
 7872 2ad7 01       		.uleb128 0x1
 7873 2ad8 51       		.byte	0x51
 7874 2ad9 02       		.uleb128 0x2
 7875 2ada 75       		.byte	0x75
 7876 2adb 00       		.sleb128 0
 7877 2adc 33       		.uleb128 0x33
 7878 2add 01       		.uleb128 0x1
 7879 2ade 58       		.byte	0x58
 7880 2adf 02       		.uleb128 0x2
 7881 2ae0 76       		.byte	0x76
 7882 2ae1 00       		.sleb128 0
 7883 2ae2 33       		.uleb128 0x33
 7884 2ae3 01       		.uleb128 0x1
 7885 2ae4 59       		.byte	0x59
 7886 2ae5 02       		.uleb128 0x2
 7887 2ae6 7C       		.byte	0x7c
 7888 2ae7 00       		.sleb128 0
 7889 2ae8 33       		.uleb128 0x33
 7890 2ae9 02       		.uleb128 0x2
 7891 2aea 77       		.byte	0x77
 7892 2aeb 20       		.sleb128 32
 7893 2aec 03       		.uleb128 0x3
 7894 2aed 49       		.byte	0x49
 7895 2aee 46       		.byte	0x46
 7896 2aef 24       		.byte	0x24
 7897 2af0 00       		.byte	0
 7898 2af1 43       		.uleb128 0x43
 7899 2af2 9A0B0000 		.quad	.LVL323
 7899      00000000 
 7900 2afa 382B0000 		.long	0x2b38
 7901 2afe 162B0000 		.long	0x2b16
 7902 2b02 33       		.uleb128 0x33
 7903 2b03 01       		.uleb128 0x1
 7904 2b04 52       		.byte	0x52
 7905 2b05 09       		.uleb128 0x9
 7906 2b06 03       		.byte	0x3
 7907 2b07 39000000 		.quad	.LC8
 7907      00000000 
 7908 2b0f 33       		.uleb128 0x33
 7909 2b10 01       		.uleb128 0x1
 7910 2b11 51       		.byte	0x51
 7911 2b12 02       		.uleb128 0x2
 7912 2b13 08       		.byte	0x8
 7913 2b14 64       		.byte	0x64
 7914 2b15 00       		.byte	0
 7915 2b16 3A       		.uleb128 0x3a
 7916 2b17 F90B0000 		.quad	.LVL325
 7916      00000000 
 7917 2b1f 382B0000 		.long	0x2b38
 7918 2b23 33       		.uleb128 0x33
 7919 2b24 01       		.uleb128 0x1
 7920 2b25 52       		.byte	0x52
 7921 2b26 09       		.uleb128 0x9
 7922 2b27 03       		.byte	0x3
 7923 2b28 48000000 		.quad	.LC9
 7923      00000000 
 7924 2b30 00       		.byte	0
 7925 2b31 00       		.byte	0
 7926 2b32 00       		.byte	0
 7927 2b33 17       		.uleb128 0x17
 7928 2b34 89010000 		.long	0x189
 7929 2b38 44       		.uleb128 0x44
 7930 2b39 7072696E 		.ascii "printf\0"
 7930      746600
 7931 2b40 08       		.byte	0x8
 7932 2b41 7A01     		.word	0x17a
 7933 2b43 EB000000 		.long	0xeb
 7934 2b47 522B0000 		.long	0x2b52
 7935 2b4b 24       		.uleb128 0x24
 7936 2b4c 522B0000 		.long	0x2b52
 7937 2b50 45       		.uleb128 0x45
 7938 2b51 00       		.byte	0
 7939 2b52 06       		.uleb128 0x6
 7940 2b53 08       		.byte	0x8
 7941 2b54 582B0000 		.long	0x2b58
 7942 2b58 17       		.uleb128 0x17
 7943 2b59 94000000 		.long	0x94
 7944 2b5d 46       		.uleb128 0x46
 7945 2b5e 6D656D73 		.ascii "memset\0"
 7945      657400
 7946 2b65 99010000 		.long	0x199
 7947 2b69 7D2B0000 		.long	0x2b7d
 7948 2b6d 24       		.uleb128 0x24
 7949 2b6e 99010000 		.long	0x199
 7950 2b72 24       		.uleb128 0x24
 7951 2b73 EB000000 		.long	0xeb
 7952 2b77 24       		.uleb128 0x24
 7953 2b78 19010000 		.long	0x119
 7954 2b7c 00       		.byte	0
 7955 2b7d 47       		.uleb128 0x47
 7956 2b7e 6F706572 		.ascii "operator new []\0"
 7956      61746F72 
 7956      206E6577 
 7956      205B5D00 
 7957 2b8e 5F5A6E61 		.ascii "_Znay\0"
 7957      7900
 7958 2b94 99010000 		.long	0x199
 7959 2b98 24       		.uleb128 0x24
 7960 2b99 AA000000 		.long	0xaa
 7961 2b9d 00       		.byte	0
 7962 2b9e 00       		.byte	0
 7963              		.section	.debug_abbrev,"dr"
 7964              	.Ldebug_abbrev0:
 7965 0000 01       		.uleb128 0x1
 7966 0001 11       		.uleb128 0x11
 7967 0002 01       		.byte	0x1
 7968 0003 25       		.uleb128 0x25
 7969 0004 08       		.uleb128 0x8
 7970 0005 13       		.uleb128 0x13
 7971 0006 0B       		.uleb128 0xb
 7972 0007 03       		.uleb128 0x3
 7973 0008 08       		.uleb128 0x8
 7974 0009 1B       		.uleb128 0x1b
 7975 000a 08       		.uleb128 0x8
 7976 000b 55       		.uleb128 0x55
 7977 000c 17       		.uleb128 0x17
 7978 000d 11       		.uleb128 0x11
 7979 000e 01       		.uleb128 0x1
 7980 000f 10       		.uleb128 0x10
 7981 0010 17       		.uleb128 0x17
 7982 0011 00       		.byte	0
 7983 0012 00       		.byte	0
 7984 0013 02       		.uleb128 0x2
 7985 0014 24       		.uleb128 0x24
 7986 0015 00       		.byte	0
 7987 0016 0B       		.uleb128 0xb
 7988 0017 0B       		.uleb128 0xb
 7989 0018 3E       		.uleb128 0x3e
 7990 0019 0B       		.uleb128 0xb
 7991 001a 03       		.uleb128 0x3
 7992 001b 08       		.uleb128 0x8
 7993 001c 00       		.byte	0
 7994 001d 00       		.byte	0
 7995 001e 03       		.uleb128 0x3
 7996 001f 16       		.uleb128 0x16
 7997 0020 00       		.byte	0
 7998 0021 03       		.uleb128 0x3
 7999 0022 08       		.uleb128 0x8
 8000 0023 3A       		.uleb128 0x3a
 8001 0024 0B       		.uleb128 0xb
 8002 0025 3B       		.uleb128 0x3b
 8003 0026 0B       		.uleb128 0xb
 8004 0027 49       		.uleb128 0x49
 8005 0028 13       		.uleb128 0x13
 8006 0029 00       		.byte	0
 8007 002a 00       		.byte	0
 8008 002b 04       		.uleb128 0x4
 8009 002c 3B       		.uleb128 0x3b
 8010 002d 00       		.byte	0
 8011 002e 03       		.uleb128 0x3
 8012 002f 08       		.uleb128 0x8
 8013 0030 00       		.byte	0
 8014 0031 00       		.byte	0
 8015 0032 05       		.uleb128 0x5
 8016 0033 0F       		.uleb128 0xf
 8017 0034 00       		.byte	0
 8018 0035 0B       		.uleb128 0xb
 8019 0036 0B       		.uleb128 0xb
 8020 0037 00       		.byte	0
 8021 0038 00       		.byte	0
 8022 0039 06       		.uleb128 0x6
 8023 003a 0F       		.uleb128 0xf
 8024 003b 00       		.byte	0
 8025 003c 0B       		.uleb128 0xb
 8026 003d 0B       		.uleb128 0xb
 8027 003e 49       		.uleb128 0x49
 8028 003f 13       		.uleb128 0x13
 8029 0040 00       		.byte	0
 8030 0041 00       		.byte	0
 8031 0042 07       		.uleb128 0x7
 8032 0043 16       		.uleb128 0x16
 8033 0044 00       		.byte	0
 8034 0045 03       		.uleb128 0x3
 8035 0046 08       		.uleb128 0x8
 8036 0047 3A       		.uleb128 0x3a
 8037 0048 0B       		.uleb128 0xb
 8038 0049 3B       		.uleb128 0x3b
 8039 004a 05       		.uleb128 0x5
 8040 004b 49       		.uleb128 0x49
 8041 004c 13       		.uleb128 0x13
 8042 004d 00       		.byte	0
 8043 004e 00       		.byte	0
 8044 004f 08       		.uleb128 0x8
 8045 0050 17       		.uleb128 0x17
 8046 0051 01       		.byte	0x1
 8047 0052 03       		.uleb128 0x3
 8048 0053 08       		.uleb128 0x8
 8049 0054 0B       		.uleb128 0xb
 8050 0055 0B       		.uleb128 0xb
 8051 0056 3A       		.uleb128 0x3a
 8052 0057 0B       		.uleb128 0xb
 8053 0058 3B       		.uleb128 0x3b
 8054 0059 05       		.uleb128 0x5
 8055 005a 01       		.uleb128 0x1
 8056 005b 13       		.uleb128 0x13
 8057 005c 00       		.byte	0
 8058 005d 00       		.byte	0
 8059 005e 09       		.uleb128 0x9
 8060 005f 13       		.uleb128 0x13
 8061 0060 01       		.byte	0x1
 8062 0061 0B       		.uleb128 0xb
 8063 0062 0B       		.uleb128 0xb
 8064 0063 3A       		.uleb128 0x3a
 8065 0064 0B       		.uleb128 0xb
 8066 0065 3B       		.uleb128 0x3b
 8067 0066 05       		.uleb128 0x5
 8068 0067 01       		.uleb128 0x1
 8069 0068 13       		.uleb128 0x13
 8070 0069 00       		.byte	0
 8071 006a 00       		.byte	0
 8072 006b 0A       		.uleb128 0xa
 8073 006c 0D       		.uleb128 0xd
 8074 006d 00       		.byte	0
 8075 006e 03       		.uleb128 0x3
 8076 006f 08       		.uleb128 0x8
 8077 0070 3A       		.uleb128 0x3a
 8078 0071 0B       		.uleb128 0xb
 8079 0072 3B       		.uleb128 0x3b
 8080 0073 05       		.uleb128 0x5
 8081 0074 49       		.uleb128 0x49
 8082 0075 13       		.uleb128 0x13
 8083 0076 38       		.uleb128 0x38
 8084 0077 0B       		.uleb128 0xb
 8085 0078 00       		.byte	0
 8086 0079 00       		.byte	0
 8087 007a 0B       		.uleb128 0xb
 8088 007b 0D       		.uleb128 0xd
 8089 007c 00       		.byte	0
 8090 007d 03       		.uleb128 0x3
 8091 007e 0E       		.uleb128 0xe
 8092 007f 3A       		.uleb128 0x3a
 8093 0080 0B       		.uleb128 0xb
 8094 0081 3B       		.uleb128 0x3b
 8095 0082 05       		.uleb128 0x5
 8096 0083 49       		.uleb128 0x49
 8097 0084 13       		.uleb128 0x13
 8098 0085 38       		.uleb128 0x38
 8099 0086 0B       		.uleb128 0xb
 8100 0087 00       		.byte	0
 8101 0088 00       		.byte	0
 8102 0089 0C       		.uleb128 0xc
 8103 008a 0D       		.uleb128 0xd
 8104 008b 00       		.byte	0
 8105 008c 49       		.uleb128 0x49
 8106 008d 13       		.uleb128 0x13
 8107 008e 00       		.byte	0
 8108 008f 00       		.byte	0
 8109 0090 0D       		.uleb128 0xd
 8110 0091 0D       		.uleb128 0xd
 8111 0092 00       		.byte	0
 8112 0093 03       		.uleb128 0x3
 8113 0094 08       		.uleb128 0x8
 8114 0095 3A       		.uleb128 0x3a
 8115 0096 0B       		.uleb128 0xb
 8116 0097 3B       		.uleb128 0x3b
 8117 0098 05       		.uleb128 0x5
 8118 0099 49       		.uleb128 0x49
 8119 009a 13       		.uleb128 0x13
 8120 009b 00       		.byte	0
 8121 009c 00       		.byte	0
 8122 009d 0E       		.uleb128 0xe
 8123 009e 13       		.uleb128 0x13
 8124 009f 01       		.byte	0x1
 8125 00a0 03       		.uleb128 0x3
 8126 00a1 08       		.uleb128 0x8
 8127 00a2 0B       		.uleb128 0xb
 8128 00a3 0B       		.uleb128 0xb
 8129 00a4 3A       		.uleb128 0x3a
 8130 00a5 0B       		.uleb128 0xb
 8131 00a6 3B       		.uleb128 0x3b
 8132 00a7 0B       		.uleb128 0xb
 8133 00a8 01       		.uleb128 0x1
 8134 00a9 13       		.uleb128 0x13
 8135 00aa 00       		.byte	0
 8136 00ab 00       		.byte	0
 8137 00ac 0F       		.uleb128 0xf
 8138 00ad 0D       		.uleb128 0xd
 8139 00ae 00       		.byte	0
 8140 00af 03       		.uleb128 0x3
 8141 00b0 08       		.uleb128 0x8
 8142 00b1 3A       		.uleb128 0x3a
 8143 00b2 0B       		.uleb128 0xb
 8144 00b3 3B       		.uleb128 0x3b
 8145 00b4 0B       		.uleb128 0xb
 8146 00b5 49       		.uleb128 0x49
 8147 00b6 13       		.uleb128 0x13
 8148 00b7 38       		.uleb128 0x38
 8149 00b8 0B       		.uleb128 0xb
 8150 00b9 32       		.uleb128 0x32
 8151 00ba 0B       		.uleb128 0xb
 8152 00bb 00       		.byte	0
 8153 00bc 00       		.byte	0
 8154 00bd 10       		.uleb128 0x10
 8155 00be 2E       		.uleb128 0x2e
 8156 00bf 01       		.byte	0x1
 8157 00c0 3F       		.uleb128 0x3f
 8158 00c1 19       		.uleb128 0x19
 8159 00c2 03       		.uleb128 0x3
 8160 00c3 08       		.uleb128 0x8
 8161 00c4 3A       		.uleb128 0x3a
 8162 00c5 0B       		.uleb128 0xb
 8163 00c6 3B       		.uleb128 0x3b
 8164 00c7 0B       		.uleb128 0xb
 8165 00c8 6E       		.uleb128 0x6e
 8166 00c9 08       		.uleb128 0x8
 8167 00ca 3C       		.uleb128 0x3c
 8168 00cb 19       		.uleb128 0x19
 8169 00cc 64       		.uleb128 0x64
 8170 00cd 13       		.uleb128 0x13
 8171 00ce 01       		.uleb128 0x1
 8172 00cf 13       		.uleb128 0x13
 8173 00d0 00       		.byte	0
 8174 00d1 00       		.byte	0
 8175 00d2 11       		.uleb128 0x11
 8176 00d3 05       		.uleb128 0x5
 8177 00d4 00       		.byte	0
 8178 00d5 49       		.uleb128 0x49
 8179 00d6 13       		.uleb128 0x13
 8180 00d7 34       		.uleb128 0x34
 8181 00d8 19       		.uleb128 0x19
 8182 00d9 00       		.byte	0
 8183 00da 00       		.byte	0
 8184 00db 12       		.uleb128 0x12
 8185 00dc 2E       		.uleb128 0x2e
 8186 00dd 01       		.byte	0x1
 8187 00de 3F       		.uleb128 0x3f
 8188 00df 19       		.uleb128 0x19
 8189 00e0 03       		.uleb128 0x3
 8190 00e1 08       		.uleb128 0x8
 8191 00e2 3A       		.uleb128 0x3a
 8192 00e3 0B       		.uleb128 0xb
 8193 00e4 3B       		.uleb128 0x3b
 8194 00e5 0B       		.uleb128 0xb
 8195 00e6 6E       		.uleb128 0x6e
 8196 00e7 08       		.uleb128 0x8
 8197 00e8 49       		.uleb128 0x49
 8198 00e9 13       		.uleb128 0x13
 8199 00ea 3C       		.uleb128 0x3c
 8200 00eb 19       		.uleb128 0x19
 8201 00ec 64       		.uleb128 0x64
 8202 00ed 13       		.uleb128 0x13
 8203 00ee 01       		.uleb128 0x1
 8204 00ef 13       		.uleb128 0x13
 8205 00f0 00       		.byte	0
 8206 00f1 00       		.byte	0
 8207 00f2 13       		.uleb128 0x13
 8208 00f3 2E       		.uleb128 0x2e
 8209 00f4 01       		.byte	0x1
 8210 00f5 3F       		.uleb128 0x3f
 8211 00f6 19       		.uleb128 0x19
 8212 00f7 03       		.uleb128 0x3
 8213 00f8 08       		.uleb128 0x8
 8214 00f9 3A       		.uleb128 0x3a
 8215 00fa 0B       		.uleb128 0xb
 8216 00fb 3B       		.uleb128 0x3b
 8217 00fc 0B       		.uleb128 0xb
 8218 00fd 3C       		.uleb128 0x3c
 8219 00fe 19       		.uleb128 0x19
 8220 00ff 64       		.uleb128 0x64
 8221 0100 13       		.uleb128 0x13
 8222 0101 01       		.uleb128 0x1
 8223 0102 13       		.uleb128 0x13
 8224 0103 00       		.byte	0
 8225 0104 00       		.byte	0
 8226 0105 14       		.uleb128 0x14
 8227 0106 2E       		.uleb128 0x2e
 8228 0107 01       		.byte	0x1
 8229 0108 3F       		.uleb128 0x3f
 8230 0109 19       		.uleb128 0x19
 8231 010a 03       		.uleb128 0x3
 8232 010b 08       		.uleb128 0x8
 8233 010c 3A       		.uleb128 0x3a
 8234 010d 0B       		.uleb128 0xb
 8235 010e 3B       		.uleb128 0x3b
 8236 010f 0B       		.uleb128 0xb
 8237 0110 6E       		.uleb128 0x6e
 8238 0111 08       		.uleb128 0x8
 8239 0112 49       		.uleb128 0x49
 8240 0113 13       		.uleb128 0x13
 8241 0114 32       		.uleb128 0x32
 8242 0115 0B       		.uleb128 0xb
 8243 0116 3C       		.uleb128 0x3c
 8244 0117 19       		.uleb128 0x19
 8245 0118 64       		.uleb128 0x64
 8246 0119 13       		.uleb128 0x13
 8247 011a 00       		.byte	0
 8248 011b 00       		.byte	0
 8249 011c 15       		.uleb128 0x15
 8250 011d 2E       		.uleb128 0x2e
 8251 011e 01       		.byte	0x1
 8252 011f 47       		.uleb128 0x47
 8253 0120 13       		.uleb128 0x13
 8254 0121 20       		.uleb128 0x20
 8255 0122 0B       		.uleb128 0xb
 8256 0123 64       		.uleb128 0x64
 8257 0124 13       		.uleb128 0x13
 8258 0125 01       		.uleb128 0x1
 8259 0126 13       		.uleb128 0x13
 8260 0127 00       		.byte	0
 8261 0128 00       		.byte	0
 8262 0129 16       		.uleb128 0x16
 8263 012a 05       		.uleb128 0x5
 8264 012b 00       		.byte	0
 8265 012c 03       		.uleb128 0x3
 8266 012d 08       		.uleb128 0x8
 8267 012e 49       		.uleb128 0x49
 8268 012f 13       		.uleb128 0x13
 8269 0130 34       		.uleb128 0x34
 8270 0131 19       		.uleb128 0x19
 8271 0132 00       		.byte	0
 8272 0133 00       		.byte	0
 8273 0134 17       		.uleb128 0x17
 8274 0135 26       		.uleb128 0x26
 8275 0136 00       		.byte	0
 8276 0137 49       		.uleb128 0x49
 8277 0138 13       		.uleb128 0x13
 8278 0139 00       		.byte	0
 8279 013a 00       		.byte	0
 8280 013b 18       		.uleb128 0x18
 8281 013c 10       		.uleb128 0x10
 8282 013d 00       		.byte	0
 8283 013e 0B       		.uleb128 0xb
 8284 013f 0B       		.uleb128 0xb
 8285 0140 49       		.uleb128 0x49
 8286 0141 13       		.uleb128 0x13
 8287 0142 00       		.byte	0
 8288 0143 00       		.byte	0
 8289 0144 19       		.uleb128 0x19
 8290 0145 2E       		.uleb128 0x2e
 8291 0146 01       		.byte	0x1
 8292 0147 3F       		.uleb128 0x3f
 8293 0148 19       		.uleb128 0x19
 8294 0149 03       		.uleb128 0x3
 8295 014a 08       		.uleb128 0x8
 8296 014b 3A       		.uleb128 0x3a
 8297 014c 0B       		.uleb128 0xb
 8298 014d 3B       		.uleb128 0x3b
 8299 014e 0B       		.uleb128 0xb
 8300 014f 6E       		.uleb128 0x6e
 8301 0150 08       		.uleb128 0x8
 8302 0151 11       		.uleb128 0x11
 8303 0152 01       		.uleb128 0x1
 8304 0153 12       		.uleb128 0x12
 8305 0154 07       		.uleb128 0x7
 8306 0155 40       		.uleb128 0x40
 8307 0156 18       		.uleb128 0x18
 8308 0157 9742     		.uleb128 0x2117
 8309 0159 19       		.uleb128 0x19
 8310 015a 01       		.uleb128 0x1
 8311 015b 13       		.uleb128 0x13
 8312 015c 00       		.byte	0
 8313 015d 00       		.byte	0
 8314 015e 1A       		.uleb128 0x1a
 8315 015f 2F       		.uleb128 0x2f
 8316 0160 00       		.byte	0
 8317 0161 03       		.uleb128 0x3
 8318 0162 08       		.uleb128 0x8
 8319 0163 49       		.uleb128 0x49
 8320 0164 13       		.uleb128 0x13
 8321 0165 00       		.byte	0
 8322 0166 00       		.byte	0
 8323 0167 1B       		.uleb128 0x1b
 8324 0168 2F       		.uleb128 0x2f
 8325 0169 00       		.byte	0
 8326 016a 03       		.uleb128 0x3
 8327 016b 0E       		.uleb128 0xe
 8328 016c 49       		.uleb128 0x49
 8329 016d 13       		.uleb128 0x13
 8330 016e 00       		.byte	0
 8331 016f 00       		.byte	0
 8332 0170 1C       		.uleb128 0x1c
 8333 0171 30       		.uleb128 0x30
 8334 0172 00       		.byte	0
 8335 0173 03       		.uleb128 0x3
 8336 0174 0E       		.uleb128 0xe
 8337 0175 49       		.uleb128 0x49
 8338 0176 13       		.uleb128 0x13
 8339 0177 1C       		.uleb128 0x1c
 8340 0178 0B       		.uleb128 0xb
 8341 0179 00       		.byte	0
 8342 017a 00       		.byte	0
 8343 017b 1D       		.uleb128 0x1d
 8344 017c 05       		.uleb128 0x5
 8345 017d 00       		.byte	0
 8346 017e 03       		.uleb128 0x3
 8347 017f 0E       		.uleb128 0xe
 8348 0180 3A       		.uleb128 0x3a
 8349 0181 0B       		.uleb128 0xb
 8350 0182 3B       		.uleb128 0x3b
 8351 0183 0B       		.uleb128 0xb
 8352 0184 49       		.uleb128 0x49
 8353 0185 13       		.uleb128 0x13
 8354 0186 02       		.uleb128 0x2
 8355 0187 17       		.uleb128 0x17
 8356 0188 00       		.byte	0
 8357 0189 00       		.byte	0
 8358 018a 1E       		.uleb128 0x1e
 8359 018b 05       		.uleb128 0x5
 8360 018c 00       		.byte	0
 8361 018d 03       		.uleb128 0x3
 8362 018e 0E       		.uleb128 0xe
 8363 018f 3A       		.uleb128 0x3a
 8364 0190 0B       		.uleb128 0xb
 8365 0191 3B       		.uleb128 0x3b
 8366 0192 0B       		.uleb128 0xb
 8367 0193 49       		.uleb128 0x49
 8368 0194 13       		.uleb128 0x13
 8369 0195 02       		.uleb128 0x2
 8370 0196 18       		.uleb128 0x18
 8371 0197 00       		.byte	0
 8372 0198 00       		.byte	0
 8373 0199 1F       		.uleb128 0x1f
 8374 019a 0B       		.uleb128 0xb
 8375 019b 01       		.byte	0x1
 8376 019c 55       		.uleb128 0x55
 8377 019d 17       		.uleb128 0x17
 8378 019e 00       		.byte	0
 8379 019f 00       		.byte	0
 8380 01a0 20       		.uleb128 0x20
 8381 01a1 34       		.uleb128 0x34
 8382 01a2 00       		.byte	0
 8383 01a3 03       		.uleb128 0x3
 8384 01a4 0E       		.uleb128 0xe
 8385 01a5 3A       		.uleb128 0x3a
 8386 01a6 0B       		.uleb128 0xb
 8387 01a7 3B       		.uleb128 0x3b
 8388 01a8 0B       		.uleb128 0xb
 8389 01a9 49       		.uleb128 0x49
 8390 01aa 13       		.uleb128 0x13
 8391 01ab 1C       		.uleb128 0x1c
 8392 01ac 0B       		.uleb128 0xb
 8393 01ad 00       		.byte	0
 8394 01ae 00       		.byte	0
 8395 01af 21       		.uleb128 0x21
 8396 01b0 13       		.uleb128 0x13
 8397 01b1 01       		.byte	0x1
 8398 01b2 03       		.uleb128 0x3
 8399 01b3 0E       		.uleb128 0xe
 8400 01b4 0B       		.uleb128 0xb
 8401 01b5 0B       		.uleb128 0xb
 8402 01b6 3A       		.uleb128 0x3a
 8403 01b7 0B       		.uleb128 0xb
 8404 01b8 3B       		.uleb128 0x3b
 8405 01b9 0B       		.uleb128 0xb
 8406 01ba 01       		.uleb128 0x1
 8407 01bb 13       		.uleb128 0x13
 8408 01bc 00       		.byte	0
 8409 01bd 00       		.byte	0
 8410 01be 22       		.uleb128 0x22
 8411 01bf 0D       		.uleb128 0xd
 8412 01c0 00       		.byte	0
 8413 01c1 03       		.uleb128 0x3
 8414 01c2 0E       		.uleb128 0xe
 8415 01c3 3A       		.uleb128 0x3a
 8416 01c4 0B       		.uleb128 0xb
 8417 01c5 3B       		.uleb128 0x3b
 8418 01c6 0B       		.uleb128 0xb
 8419 01c7 49       		.uleb128 0x49
 8420 01c8 13       		.uleb128 0x13
 8421 01c9 38       		.uleb128 0x38
 8422 01ca 0B       		.uleb128 0xb
 8423 01cb 00       		.byte	0
 8424 01cc 00       		.byte	0
 8425 01cd 23       		.uleb128 0x23
 8426 01ce 2E       		.uleb128 0x2e
 8427 01cf 01       		.byte	0x1
 8428 01d0 3F       		.uleb128 0x3f
 8429 01d1 19       		.uleb128 0x19
 8430 01d2 03       		.uleb128 0x3
 8431 01d3 0E       		.uleb128 0xe
 8432 01d4 34       		.uleb128 0x34
 8433 01d5 19       		.uleb128 0x19
 8434 01d6 3C       		.uleb128 0x3c
 8435 01d7 19       		.uleb128 0x19
 8436 01d8 64       		.uleb128 0x64
 8437 01d9 13       		.uleb128 0x13
 8438 01da 01       		.uleb128 0x1
 8439 01db 13       		.uleb128 0x13
 8440 01dc 00       		.byte	0
 8441 01dd 00       		.byte	0
 8442 01de 24       		.uleb128 0x24
 8443 01df 05       		.uleb128 0x5
 8444 01e0 00       		.byte	0
 8445 01e1 49       		.uleb128 0x49
 8446 01e2 13       		.uleb128 0x13
 8447 01e3 00       		.byte	0
 8448 01e4 00       		.byte	0
 8449 01e5 25       		.uleb128 0x25
 8450 01e6 42       		.uleb128 0x42
 8451 01e7 00       		.byte	0
 8452 01e8 0B       		.uleb128 0xb
 8453 01e9 0B       		.uleb128 0xb
 8454 01ea 49       		.uleb128 0x49
 8455 01eb 13       		.uleb128 0x13
 8456 01ec 00       		.byte	0
 8457 01ed 00       		.byte	0
 8458 01ee 26       		.uleb128 0x26
 8459 01ef 2E       		.uleb128 0x2e
 8460 01f0 01       		.byte	0x1
 8461 01f1 3F       		.uleb128 0x3f
 8462 01f2 19       		.uleb128 0x19
 8463 01f3 03       		.uleb128 0x3
 8464 01f4 0E       		.uleb128 0xe
 8465 01f5 6E       		.uleb128 0x6e
 8466 01f6 08       		.uleb128 0x8
 8467 01f7 49       		.uleb128 0x49
 8468 01f8 13       		.uleb128 0x13
 8469 01f9 34       		.uleb128 0x34
 8470 01fa 19       		.uleb128 0x19
 8471 01fb 20       		.uleb128 0x20
 8472 01fc 0B       		.uleb128 0xb
 8473 01fd 64       		.uleb128 0x64
 8474 01fe 13       		.uleb128 0x13
 8475 01ff 00       		.byte	0
 8476 0200 00       		.byte	0
 8477 0201 27       		.uleb128 0x27
 8478 0202 05       		.uleb128 0x5
 8479 0203 00       		.byte	0
 8480 0204 03       		.uleb128 0x3
 8481 0205 0E       		.uleb128 0xe
 8482 0206 49       		.uleb128 0x49
 8483 0207 13       		.uleb128 0x13
 8484 0208 34       		.uleb128 0x34
 8485 0209 19       		.uleb128 0x19
 8486 020a 00       		.byte	0
 8487 020b 00       		.byte	0
 8488 020c 28       		.uleb128 0x28
 8489 020d 05       		.uleb128 0x5
 8490 020e 00       		.byte	0
 8491 020f 03       		.uleb128 0x3
 8492 0210 08       		.uleb128 0x8
 8493 0211 3A       		.uleb128 0x3a
 8494 0212 0B       		.uleb128 0xb
 8495 0213 3B       		.uleb128 0x3b
 8496 0214 0B       		.uleb128 0xb
 8497 0215 49       		.uleb128 0x49
 8498 0216 13       		.uleb128 0x13
 8499 0217 00       		.byte	0
 8500 0218 00       		.byte	0
 8501 0219 29       		.uleb128 0x29
 8502 021a 0B       		.uleb128 0xb
 8503 021b 01       		.byte	0x1
 8504 021c 00       		.byte	0
 8505 021d 00       		.byte	0
 8506 021e 2A       		.uleb128 0x2a
 8507 021f 34       		.uleb128 0x34
 8508 0220 00       		.byte	0
 8509 0221 03       		.uleb128 0x3
 8510 0222 0E       		.uleb128 0xe
 8511 0223 49       		.uleb128 0x49
 8512 0224 13       		.uleb128 0x13
 8513 0225 34       		.uleb128 0x34
 8514 0226 19       		.uleb128 0x19
 8515 0227 00       		.byte	0
 8516 0228 00       		.byte	0
 8517 0229 2B       		.uleb128 0x2b
 8518 022a 34       		.uleb128 0x34
 8519 022b 00       		.byte	0
 8520 022c 03       		.uleb128 0x3
 8521 022d 08       		.uleb128 0x8
 8522 022e 3A       		.uleb128 0x3a
 8523 022f 0B       		.uleb128 0xb
 8524 0230 3B       		.uleb128 0x3b
 8525 0231 0B       		.uleb128 0xb
 8526 0232 49       		.uleb128 0x49
 8527 0233 13       		.uleb128 0x13
 8528 0234 02       		.uleb128 0x2
 8529 0235 18       		.uleb128 0x18
 8530 0236 00       		.byte	0
 8531 0237 00       		.byte	0
 8532 0238 2C       		.uleb128 0x2c
 8533 0239 34       		.uleb128 0x34
 8534 023a 00       		.byte	0
 8535 023b 03       		.uleb128 0x3
 8536 023c 08       		.uleb128 0x8
 8537 023d 3A       		.uleb128 0x3a
 8538 023e 0B       		.uleb128 0xb
 8539 023f 3B       		.uleb128 0x3b
 8540 0240 0B       		.uleb128 0xb
 8541 0241 49       		.uleb128 0x49
 8542 0242 13       		.uleb128 0x13
 8543 0243 02       		.uleb128 0x2
 8544 0244 17       		.uleb128 0x17
 8545 0245 00       		.byte	0
 8546 0246 00       		.byte	0
 8547 0247 2D       		.uleb128 0x2d
 8548 0248 34       		.uleb128 0x34
 8549 0249 00       		.byte	0
 8550 024a 03       		.uleb128 0x3
 8551 024b 08       		.uleb128 0x8
 8552 024c 3A       		.uleb128 0x3a
 8553 024d 0B       		.uleb128 0xb
 8554 024e 3B       		.uleb128 0x3b
 8555 024f 0B       		.uleb128 0xb
 8556 0250 49       		.uleb128 0x49
 8557 0251 13       		.uleb128 0x13
 8558 0252 00       		.byte	0
 8559 0253 00       		.byte	0
 8560 0254 2E       		.uleb128 0x2e
 8561 0255 34       		.uleb128 0x34
 8562 0256 00       		.byte	0
 8563 0257 03       		.uleb128 0x3
 8564 0258 0E       		.uleb128 0xe
 8565 0259 3A       		.uleb128 0x3a
 8566 025a 0B       		.uleb128 0xb
 8567 025b 3B       		.uleb128 0x3b
 8568 025c 0B       		.uleb128 0xb
 8569 025d 49       		.uleb128 0x49
 8570 025e 13       		.uleb128 0x13
 8571 025f 02       		.uleb128 0x2
 8572 0260 17       		.uleb128 0x17
 8573 0261 00       		.byte	0
 8574 0262 00       		.byte	0
 8575 0263 2F       		.uleb128 0x2f
 8576 0264 1D       		.uleb128 0x1d
 8577 0265 01       		.byte	0x1
 8578 0266 31       		.uleb128 0x31
 8579 0267 13       		.uleb128 0x13
 8580 0268 52       		.uleb128 0x52
 8581 0269 01       		.uleb128 0x1
 8582 026a 55       		.uleb128 0x55
 8583 026b 17       		.uleb128 0x17
 8584 026c 58       		.uleb128 0x58
 8585 026d 0B       		.uleb128 0xb
 8586 026e 59       		.uleb128 0x59
 8587 026f 0B       		.uleb128 0xb
 8588 0270 01       		.uleb128 0x1
 8589 0271 13       		.uleb128 0x13
 8590 0272 00       		.byte	0
 8591 0273 00       		.byte	0
 8592 0274 30       		.uleb128 0x30
 8593 0275 05       		.uleb128 0x5
 8594 0276 00       		.byte	0
 8595 0277 31       		.uleb128 0x31
 8596 0278 13       		.uleb128 0x13
 8597 0279 02       		.uleb128 0x2
 8598 027a 17       		.uleb128 0x17
 8599 027b 00       		.byte	0
 8600 027c 00       		.byte	0
 8601 027d 31       		.uleb128 0x31
 8602 027e 1D       		.uleb128 0x1d
 8603 027f 01       		.byte	0x1
 8604 0280 31       		.uleb128 0x31
 8605 0281 13       		.uleb128 0x13
 8606 0282 11       		.uleb128 0x11
 8607 0283 01       		.uleb128 0x1
 8608 0284 12       		.uleb128 0x12
 8609 0285 07       		.uleb128 0x7
 8610 0286 58       		.uleb128 0x58
 8611 0287 0B       		.uleb128 0xb
 8612 0288 59       		.uleb128 0x59
 8613 0289 0B       		.uleb128 0xb
 8614 028a 01       		.uleb128 0x1
 8615 028b 13       		.uleb128 0x13
 8616 028c 00       		.byte	0
 8617 028d 00       		.byte	0
 8618 028e 32       		.uleb128 0x32
 8619 028f 898201   		.uleb128 0x4109
 8620 0292 01       		.byte	0x1
 8621 0293 11       		.uleb128 0x11
 8622 0294 01       		.uleb128 0x1
 8623 0295 9342     		.uleb128 0x2113
 8624 0297 18       		.uleb128 0x18
 8625 0298 00       		.byte	0
 8626 0299 00       		.byte	0
 8627 029a 33       		.uleb128 0x33
 8628 029b 8A8201   		.uleb128 0x410a
 8629 029e 00       		.byte	0
 8630 029f 02       		.uleb128 0x2
 8631 02a0 18       		.uleb128 0x18
 8632 02a1 9142     		.uleb128 0x2111
 8633 02a3 18       		.uleb128 0x18
 8634 02a4 00       		.byte	0
 8635 02a5 00       		.byte	0
 8636 02a6 34       		.uleb128 0x34
 8637 02a7 1D       		.uleb128 0x1d
 8638 02a8 01       		.byte	0x1
 8639 02a9 31       		.uleb128 0x31
 8640 02aa 13       		.uleb128 0x13
 8641 02ab 11       		.uleb128 0x11
 8642 02ac 01       		.uleb128 0x1
 8643 02ad 12       		.uleb128 0x12
 8644 02ae 07       		.uleb128 0x7
 8645 02af 58       		.uleb128 0x58
 8646 02b0 0B       		.uleb128 0xb
 8647 02b1 59       		.uleb128 0x59
 8648 02b2 0B       		.uleb128 0xb
 8649 02b3 00       		.byte	0
 8650 02b4 00       		.byte	0
 8651 02b5 35       		.uleb128 0x35
 8652 02b6 898201   		.uleb128 0x4109
 8653 02b9 01       		.byte	0x1
 8654 02ba 11       		.uleb128 0x11
 8655 02bb 01       		.uleb128 0x1
 8656 02bc 00       		.byte	0
 8657 02bd 00       		.byte	0
 8658 02be 36       		.uleb128 0x36
 8659 02bf 0B       		.uleb128 0xb
 8660 02c0 01       		.byte	0x1
 8661 02c1 55       		.uleb128 0x55
 8662 02c2 17       		.uleb128 0x17
 8663 02c3 01       		.uleb128 0x1
 8664 02c4 13       		.uleb128 0x13
 8665 02c5 00       		.byte	0
 8666 02c6 00       		.byte	0
 8667 02c7 37       		.uleb128 0x37
 8668 02c8 0B       		.uleb128 0xb
 8669 02c9 01       		.byte	0x1
 8670 02ca 11       		.uleb128 0x11
 8671 02cb 01       		.uleb128 0x1
 8672 02cc 12       		.uleb128 0x12
 8673 02cd 07       		.uleb128 0x7
 8674 02ce 00       		.byte	0
 8675 02cf 00       		.byte	0
 8676 02d0 38       		.uleb128 0x38
 8677 02d1 34       		.uleb128 0x34
 8678 02d2 00       		.byte	0
 8679 02d3 31       		.uleb128 0x31
 8680 02d4 13       		.uleb128 0x13
 8681 02d5 00       		.byte	0
 8682 02d6 00       		.byte	0
 8683 02d7 39       		.uleb128 0x39
 8684 02d8 1D       		.uleb128 0x1d
 8685 02d9 01       		.byte	0x1
 8686 02da 31       		.uleb128 0x31
 8687 02db 13       		.uleb128 0x13
 8688 02dc 52       		.uleb128 0x52
 8689 02dd 01       		.uleb128 0x1
 8690 02de 55       		.uleb128 0x55
 8691 02df 17       		.uleb128 0x17
 8692 02e0 58       		.uleb128 0x58
 8693 02e1 0B       		.uleb128 0xb
 8694 02e2 59       		.uleb128 0x59
 8695 02e3 0B       		.uleb128 0xb
 8696 02e4 00       		.byte	0
 8697 02e5 00       		.byte	0
 8698 02e6 3A       		.uleb128 0x3a
 8699 02e7 898201   		.uleb128 0x4109
 8700 02ea 01       		.byte	0x1
 8701 02eb 11       		.uleb128 0x11
 8702 02ec 01       		.uleb128 0x1
 8703 02ed 31       		.uleb128 0x31
 8704 02ee 13       		.uleb128 0x13
 8705 02ef 00       		.byte	0
 8706 02f0 00       		.byte	0
 8707 02f1 3B       		.uleb128 0x3b
 8708 02f2 01       		.uleb128 0x1
 8709 02f3 01       		.byte	0x1
 8710 02f4 49       		.uleb128 0x49
 8711 02f5 13       		.uleb128 0x13
 8712 02f6 01       		.uleb128 0x1
 8713 02f7 13       		.uleb128 0x13
 8714 02f8 00       		.byte	0
 8715 02f9 00       		.byte	0
 8716 02fa 3C       		.uleb128 0x3c
 8717 02fb 21       		.uleb128 0x21
 8718 02fc 00       		.byte	0
 8719 02fd 49       		.uleb128 0x49
 8720 02fe 13       		.uleb128 0x13
 8721 02ff 2F       		.uleb128 0x2f
 8722 0300 18       		.uleb128 0x18
 8723 0301 00       		.byte	0
 8724 0302 00       		.byte	0
 8725 0303 3D       		.uleb128 0x3d
 8726 0304 05       		.uleb128 0x5
 8727 0305 00       		.byte	0
 8728 0306 31       		.uleb128 0x31
 8729 0307 13       		.uleb128 0x13
 8730 0308 02       		.uleb128 0x2
 8731 0309 18       		.uleb128 0x18
 8732 030a 00       		.byte	0
 8733 030b 00       		.byte	0
 8734 030c 3E       		.uleb128 0x3e
 8735 030d 0B       		.uleb128 0xb
 8736 030e 01       		.byte	0x1
 8737 030f 11       		.uleb128 0x11
 8738 0310 01       		.uleb128 0x1
 8739 0311 12       		.uleb128 0x12
 8740 0312 07       		.uleb128 0x7
 8741 0313 01       		.uleb128 0x1
 8742 0314 13       		.uleb128 0x13
 8743 0315 00       		.byte	0
 8744 0316 00       		.byte	0
 8745 0317 3F       		.uleb128 0x3f
 8746 0318 34       		.uleb128 0x34
 8747 0319 00       		.byte	0
 8748 031a 03       		.uleb128 0x3
 8749 031b 0E       		.uleb128 0xe
 8750 031c 3A       		.uleb128 0x3a
 8751 031d 0B       		.uleb128 0xb
 8752 031e 3B       		.uleb128 0x3b
 8753 031f 0B       		.uleb128 0xb
 8754 0320 49       		.uleb128 0x49
 8755 0321 13       		.uleb128 0x13
 8756 0322 1C       		.uleb128 0x1c
 8757 0323 05       		.uleb128 0x5
 8758 0324 00       		.byte	0
 8759 0325 00       		.byte	0
 8760 0326 40       		.uleb128 0x40
 8761 0327 34       		.uleb128 0x34
 8762 0328 00       		.byte	0
 8763 0329 03       		.uleb128 0x3
 8764 032a 0E       		.uleb128 0xe
 8765 032b 3A       		.uleb128 0x3a
 8766 032c 0B       		.uleb128 0xb
 8767 032d 3B       		.uleb128 0x3b
 8768 032e 0B       		.uleb128 0xb
 8769 032f 49       		.uleb128 0x49
 8770 0330 13       		.uleb128 0x13
 8771 0331 1C       		.uleb128 0x1c
 8772 0332 06       		.uleb128 0x6
 8773 0333 00       		.byte	0
 8774 0334 00       		.byte	0
 8775 0335 41       		.uleb128 0x41
 8776 0336 2E       		.uleb128 0x2e
 8777 0337 01       		.byte	0x1
 8778 0338 3F       		.uleb128 0x3f
 8779 0339 19       		.uleb128 0x19
 8780 033a 03       		.uleb128 0x3
 8781 033b 08       		.uleb128 0x8
 8782 033c 3A       		.uleb128 0x3a
 8783 033d 0B       		.uleb128 0xb
 8784 033e 3B       		.uleb128 0x3b
 8785 033f 0B       		.uleb128 0xb
 8786 0340 49       		.uleb128 0x49
 8787 0341 13       		.uleb128 0x13
 8788 0342 11       		.uleb128 0x11
 8789 0343 01       		.uleb128 0x1
 8790 0344 12       		.uleb128 0x12
 8791 0345 07       		.uleb128 0x7
 8792 0346 40       		.uleb128 0x40
 8793 0347 18       		.uleb128 0x18
 8794 0348 9642     		.uleb128 0x2116
 8795 034a 19       		.uleb128 0x19
 8796 034b 01       		.uleb128 0x1
 8797 034c 13       		.uleb128 0x13
 8798 034d 00       		.byte	0
 8799 034e 00       		.byte	0
 8800 034f 42       		.uleb128 0x42
 8801 0350 34       		.uleb128 0x34
 8802 0351 00       		.byte	0
 8803 0352 03       		.uleb128 0x3
 8804 0353 08       		.uleb128 0x8
 8805 0354 3A       		.uleb128 0x3a
 8806 0355 0B       		.uleb128 0xb
 8807 0356 3B       		.uleb128 0x3b
 8808 0357 0B       		.uleb128 0xb
 8809 0358 49       		.uleb128 0x49
 8810 0359 13       		.uleb128 0x13
 8811 035a 1C       		.uleb128 0x1c
 8812 035b 06       		.uleb128 0x6
 8813 035c 00       		.byte	0
 8814 035d 00       		.byte	0
 8815 035e 43       		.uleb128 0x43
 8816 035f 898201   		.uleb128 0x4109
 8817 0362 01       		.byte	0x1
 8818 0363 11       		.uleb128 0x11
 8819 0364 01       		.uleb128 0x1
 8820 0365 31       		.uleb128 0x31
 8821 0366 13       		.uleb128 0x13
 8822 0367 01       		.uleb128 0x1
 8823 0368 13       		.uleb128 0x13
 8824 0369 00       		.byte	0
 8825 036a 00       		.byte	0
 8826 036b 44       		.uleb128 0x44
 8827 036c 2E       		.uleb128 0x2e
 8828 036d 01       		.byte	0x1
 8829 036e 3F       		.uleb128 0x3f
 8830 036f 19       		.uleb128 0x19
 8831 0370 03       		.uleb128 0x3
 8832 0371 08       		.uleb128 0x8
 8833 0372 3A       		.uleb128 0x3a
 8834 0373 0B       		.uleb128 0xb
 8835 0374 3B       		.uleb128 0x3b
 8836 0375 05       		.uleb128 0x5
 8837 0376 49       		.uleb128 0x49
 8838 0377 13       		.uleb128 0x13
 8839 0378 3C       		.uleb128 0x3c
 8840 0379 19       		.uleb128 0x19
 8841 037a 01       		.uleb128 0x1
 8842 037b 13       		.uleb128 0x13
 8843 037c 00       		.byte	0
 8844 037d 00       		.byte	0
 8845 037e 45       		.uleb128 0x45
 8846 037f 18       		.uleb128 0x18
 8847 0380 00       		.byte	0
 8848 0381 00       		.byte	0
 8849 0382 00       		.byte	0
 8850 0383 46       		.uleb128 0x46
 8851 0384 2E       		.uleb128 0x2e
 8852 0385 01       		.byte	0x1
 8853 0386 3F       		.uleb128 0x3f
 8854 0387 19       		.uleb128 0x19
 8855 0388 03       		.uleb128 0x3
 8856 0389 08       		.uleb128 0x8
 8857 038a 49       		.uleb128 0x49
 8858 038b 13       		.uleb128 0x13
 8859 038c 34       		.uleb128 0x34
 8860 038d 19       		.uleb128 0x19
 8861 038e 3C       		.uleb128 0x3c
 8862 038f 19       		.uleb128 0x19
 8863 0390 01       		.uleb128 0x1
 8864 0391 13       		.uleb128 0x13
 8865 0392 00       		.byte	0
 8866 0393 00       		.byte	0
 8867 0394 47       		.uleb128 0x47
 8868 0395 2E       		.uleb128 0x2e
 8869 0396 01       		.byte	0x1
 8870 0397 3F       		.uleb128 0x3f
 8871 0398 19       		.uleb128 0x19
 8872 0399 03       		.uleb128 0x3
 8873 039a 08       		.uleb128 0x8
 8874 039b 6E       		.uleb128 0x6e
 8875 039c 08       		.uleb128 0x8
 8876 039d 49       		.uleb128 0x49
 8877 039e 13       		.uleb128 0x13
 8878 039f 34       		.uleb128 0x34
 8879 03a0 19       		.uleb128 0x19
 8880 03a1 3C       		.uleb128 0x3c
 8881 03a2 19       		.uleb128 0x19
 8882 03a3 00       		.byte	0
 8883 03a4 00       		.byte	0
 8884 03a5 00       		.byte	0
 8885              		.section	.debug_loc,"dr"
 8886              	.Ldebug_loc0:
 8887              	.LLST0:
 8888 0000 00000000 		.quad	.LVL0
 8888      00000000 
 8889 0008 38000000 		.quad	.LVL3
 8889      00000000 
 8890 0010 0100     		.word	0x1
 8891 0012 52       		.byte	0x52
 8892 0013 38000000 		.quad	.LVL3
 8892      00000000 
 8893 001b D7020000 		.quad	.LVL56
 8893      00000000 
 8894 0023 0100     		.word	0x1
 8895 0025 5C       		.byte	0x5c
 8896 0026 D7020000 		.quad	.LVL56
 8896      00000000 
 8897 002e DF020000 		.quad	.LVL60
 8897      00000000 
 8898 0036 0400     		.word	0x4
 8899 0038 F3       		.byte	0xf3
 8900 0039 01       		.uleb128 0x1
 8901 003a 52       		.byte	0x52
 8902 003b 9F       		.byte	0x9f
 8903 003c DF020000 		.quad	.LVL60
 8903      00000000 
 8904 0044 01030000 		.quad	.LFE3007
 8904      00000000 
 8905 004c 0100     		.word	0x1
 8906 004e 5C       		.byte	0x5c
 8907 004f 00000000 		.quad	0
 8907      00000000 
 8908 0057 00000000 		.quad	0
 8908      00000000 
 8909              	.LLST1:
 8910 005f 00000000 		.quad	.LVL0
 8910      00000000 
 8911 0067 3D000000 		.quad	.LVL4-1
 8911      00000000 
 8912 006f 0100     		.word	0x1
 8913 0071 51       		.byte	0x51
 8914 0072 3D000000 		.quad	.LVL4-1
 8914      00000000 
 8915 007a DB020000 		.quad	.LVL57
 8915      00000000 
 8916 0082 0100     		.word	0x1
 8917 0084 5E       		.byte	0x5e
 8918 0085 DB020000 		.quad	.LVL57
 8918      00000000 
 8919 008d DF020000 		.quad	.LVL60
 8919      00000000 
 8920 0095 0400     		.word	0x4
 8921 0097 F3       		.byte	0xf3
 8922 0098 01       		.uleb128 0x1
 8923 0099 51       		.byte	0x51
 8924 009a 9F       		.byte	0x9f
 8925 009b DF020000 		.quad	.LVL60
 8925      00000000 
 8926 00a3 01030000 		.quad	.LFE3007
 8926      00000000 
 8927 00ab 0100     		.word	0x1
 8928 00ad 5E       		.byte	0x5e
 8929 00ae 00000000 		.quad	0
 8929      00000000 
 8930 00b6 00000000 		.quad	0
 8930      00000000 
 8931              	.LLST2:
 8932 00be 00000000 		.quad	.LVL0
 8932      00000000 
 8933 00c6 3D000000 		.quad	.LVL4-1
 8933      00000000 
 8934 00ce 0100     		.word	0x1
 8935 00d0 58       		.byte	0x58
 8936 00d1 3D000000 		.quad	.LVL4-1
 8936      00000000 
 8937 00d9 DD020000 		.quad	.LVL58
 8937      00000000 
 8938 00e1 0100     		.word	0x1
 8939 00e3 5F       		.byte	0x5f
 8940 00e4 DD020000 		.quad	.LVL58
 8940      00000000 
 8941 00ec DF020000 		.quad	.LVL60
 8941      00000000 
 8942 00f4 0400     		.word	0x4
 8943 00f6 F3       		.byte	0xf3
 8944 00f7 01       		.uleb128 0x1
 8945 00f8 58       		.byte	0x58
 8946 00f9 9F       		.byte	0x9f
 8947 00fa DF020000 		.quad	.LVL60
 8947      00000000 
 8948 0102 01030000 		.quad	.LFE3007
 8948      00000000 
 8949 010a 0100     		.word	0x1
 8950 010c 5F       		.byte	0x5f
 8951 010d 00000000 		.quad	0
 8951      00000000 
 8952 0115 00000000 		.quad	0
 8952      00000000 
 8953              	.LLST3:
 8954 011d 00000000 		.quad	.LVL0
 8954      00000000 
 8955 0125 3D000000 		.quad	.LVL4-1
 8955      00000000 
 8956 012d 0100     		.word	0x1
 8957 012f 59       		.byte	0x59
 8958 0130 3D000000 		.quad	.LVL4-1
 8958      00000000 
 8959 0138 CF000000 		.quad	.LVL15
 8959      00000000 
 8960 0140 0300     		.word	0x3
 8961 0142 91       		.byte	0x91
 8962 0143 987F     		.sleb128 -104
 8963 0145 CF000000 		.quad	.LVL15
 8963      00000000 
 8964 014d 01030000 		.quad	.LFE3007
 8964      00000000 
 8965 0155 0400     		.word	0x4
 8966 0157 F3       		.byte	0xf3
 8967 0158 01       		.uleb128 0x1
 8968 0159 59       		.byte	0x59
 8969 015a 9F       		.byte	0x9f
 8970 015b 00000000 		.quad	0
 8970      00000000 
 8971 0163 00000000 		.quad	0
 8971      00000000 
 8972              	.LLST4:
 8973 016b 94000000 		.quad	.LVL9
 8973      00000000 
 8974 0173 D4020000 		.quad	.LVL55
 8974      00000000 
 8975 017b 0200     		.word	0x2
 8976 017d 74       		.byte	0x74
 8977 017e 00       		.sleb128 0
 8978 017f D4020000 		.quad	.LVL55
 8978      00000000 
 8979 0187 DE020000 		.quad	.LVL59
 8979      00000000 
 8980 018f 0700     		.word	0x7
 8981 0191 76       		.byte	0x76
 8982 0192 977E     		.sleb128 -233
 8983 0194 33       		.byte	0x33
 8984 0195 25       		.byte	0x25
 8985 0196 33       		.byte	0x33
 8986 0197 24       		.byte	0x24
 8987 0198 DE020000 		.quad	.LVL59
 8987      00000000 
 8988 01a0 DF020000 		.quad	.LVL60
 8988      00000000 
 8989 01a8 0700     		.word	0x7
 8990 01aa 91       		.byte	0x91
 8991 01ab E77D     		.sleb128 -281
 8992 01ad 33       		.byte	0x33
 8993 01ae 25       		.byte	0x25
 8994 01af 33       		.byte	0x33
 8995 01b0 24       		.byte	0x24
 8996 01b1 DF020000 		.quad	.LVL60
 8996      00000000 
 8997 01b9 01030000 		.quad	.LFE3007
 8997      00000000 
 8998 01c1 0200     		.word	0x2
 8999 01c3 74       		.byte	0x74
 9000 01c4 00       		.sleb128 0
 9001 01c5 00000000 		.quad	0
 9001      00000000 
 9002 01cd 00000000 		.quad	0
 9002      00000000 
 9003              	.LLST5:
 9004 01d5 42010000 		.quad	.LVL18
 9004      00000000 
 9005 01dd 4E010000 		.quad	.LVL19
 9005      00000000 
 9006 01e5 0100     		.word	0x1
 9007 01e7 62       		.byte	0x62
 9008 01e8 00000000 		.quad	0
 9008      00000000 
 9009 01f0 00000000 		.quad	0
 9009      00000000 
 9010              	.LLST6:
 9011 01f8 18000000 		.quad	.LVL1
 9011      00000000 
 9012 0200 20000000 		.quad	.LVL2
 9012      00000000 
 9013 0208 0400     		.word	0x4
 9014 020a 91       		.byte	0x91
 9015 020b B07F     		.sleb128 -80
 9016 020d 9F       		.byte	0x9f
 9017 020e 20000000 		.quad	.LVL2
 9017      00000000 
 9018 0216 3D000000 		.quad	.LVL4-1
 9018      00000000 
 9019 021e 0100     		.word	0x1
 9020 0220 50       		.byte	0x50
 9021 0221 3D000000 		.quad	.LVL4-1
 9021      00000000 
 9022 0229 A7000000 		.quad	.LVL10
 9022      00000000 
 9023 0231 0100     		.word	0x1
 9024 0233 55       		.byte	0x55
 9025 0234 A7000000 		.quad	.LVL10
 9025      00000000 
 9026 023c 2B010000 		.quad	.LVL17
 9026      00000000 
 9027 0244 0300     		.word	0x3
 9028 0246 91       		.byte	0x91
 9029 0247 A87F     		.sleb128 -88
 9030 0249 2B010000 		.quad	.LVL17
 9030      00000000 
 9031 0251 DF020000 		.quad	.LVL60
 9031      00000000 
 9032 0259 0400     		.word	0x4
 9033 025b 91       		.byte	0x91
 9034 025c B07F     		.sleb128 -80
 9035 025e 9F       		.byte	0x9f
 9036 025f DF020000 		.quad	.LVL60
 9036      00000000 
 9037 0267 01030000 		.quad	.LFE3007
 9037      00000000 
 9038 026f 0300     		.word	0x3
 9039 0271 91       		.byte	0x91
 9040 0272 A87F     		.sleb128 -88
 9041 0274 00000000 		.quad	0
 9041      00000000 
 9042 027c 00000000 		.quad	0
 9042      00000000 
 9043              	.LLST7:
 9044 0284 3E000000 		.quad	.LVL4
 9044      00000000 
 9045 028c A7000000 		.quad	.LVL10
 9045      00000000 
 9046 0294 0100     		.word	0x1
 9047 0296 55       		.byte	0x55
 9048 0297 A7000000 		.quad	.LVL10
 9048      00000000 
 9049 029f 2B010000 		.quad	.LVL17
 9049      00000000 
 9050 02a7 0300     		.word	0x3
 9051 02a9 91       		.byte	0x91
 9052 02aa A87F     		.sleb128 -88
 9053 02ac 2B010000 		.quad	.LVL17
 9053      00000000 
 9054 02b4 DF020000 		.quad	.LVL60
 9054      00000000 
 9055 02bc 0400     		.word	0x4
 9056 02be 91       		.byte	0x91
 9057 02bf B07F     		.sleb128 -80
 9058 02c1 9F       		.byte	0x9f
 9059 02c2 DF020000 		.quad	.LVL60
 9059      00000000 
 9060 02ca 01030000 		.quad	.LFE3007
 9060      00000000 
 9061 02d2 0300     		.word	0x3
 9062 02d4 91       		.byte	0x91
 9063 02d5 A87F     		.sleb128 -88
 9064 02d7 00000000 		.quad	0
 9064      00000000 
 9065 02df 00000000 		.quad	0
 9065      00000000 
 9066              	.LLST9:
 9067 02e7 51000000 		.quad	.LVL5
 9067      00000000 
 9068 02ef A7000000 		.quad	.LVL10
 9068      00000000 
 9069 02f7 0100     		.word	0x1
 9070 02f9 55       		.byte	0x55
 9071 02fa A7000000 		.quad	.LVL10
 9071      00000000 
 9072 0302 2B010000 		.quad	.LVL17
 9072      00000000 
 9073 030a 0300     		.word	0x3
 9074 030c 91       		.byte	0x91
 9075 030d A87F     		.sleb128 -88
 9076 030f 2B010000 		.quad	.LVL17
 9076      00000000 
 9077 0317 DF020000 		.quad	.LVL60
 9077      00000000 
 9078 031f 0400     		.word	0x4
 9079 0321 91       		.byte	0x91
 9080 0322 B07F     		.sleb128 -80
 9081 0324 9F       		.byte	0x9f
 9082 0325 DF020000 		.quad	.LVL60
 9082      00000000 
 9083 032d 01030000 		.quad	.LFE3007
 9083      00000000 
 9084 0335 0300     		.word	0x3
 9085 0337 91       		.byte	0x91
 9086 0338 A87F     		.sleb128 -88
 9087 033a 00000000 		.quad	0
 9087      00000000 
 9088 0342 00000000 		.quad	0
 9088      00000000 
 9089              	.LLST10:
 9090 034a 69000000 		.quad	.LVL7
 9090      00000000 
 9091 0352 A7000000 		.quad	.LVL10
 9091      00000000 
 9092 035a 0100     		.word	0x1
 9093 035c 55       		.byte	0x55
 9094 035d A7000000 		.quad	.LVL10
 9094      00000000 
 9095 0365 2B010000 		.quad	.LVL17
 9095      00000000 
 9096 036d 0300     		.word	0x3
 9097 036f 91       		.byte	0x91
 9098 0370 A87F     		.sleb128 -88
 9099 0372 2B010000 		.quad	.LVL17
 9099      00000000 
 9100 037a DF020000 		.quad	.LVL60
 9100      00000000 
 9101 0382 0400     		.word	0x4
 9102 0384 91       		.byte	0x91
 9103 0385 B07F     		.sleb128 -80
 9104 0387 9F       		.byte	0x9f
 9105 0388 DF020000 		.quad	.LVL60
 9105      00000000 
 9106 0390 01030000 		.quad	.LFE3007
 9106      00000000 
 9107 0398 0300     		.word	0x3
 9108 039a 91       		.byte	0x91
 9109 039b A87F     		.sleb128 -88
 9110 039d 00000000 		.quad	0
 9110      00000000 
 9111 03a5 00000000 		.quad	0
 9111      00000000 
 9112              	.LLST11:
 9113 03ad AD000000 		.quad	.LVL11
 9113      00000000 
 9114 03b5 B3000000 		.quad	.LVL12
 9114      00000000 
 9115 03bd 0200     		.word	0x2
 9116 03bf 30       		.byte	0x30
 9117 03c0 9F       		.byte	0x9f
 9118 03c1 00000000 		.quad	0
 9118      00000000 
 9119 03c9 00000000 		.quad	0
 9119      00000000 
 9120              	.LLST12:
 9121 03d1 B3000000 		.quad	.LVL12
 9121      00000000 
 9122 03d9 BA000000 		.quad	.LVL13
 9122      00000000 
 9123 03e1 0100     		.word	0x1
 9124 03e3 51       		.byte	0x51
 9125 03e4 BA000000 		.quad	.LVL13
 9125      00000000 
 9126 03ec C7000000 		.quad	.LVL14
 9126      00000000 
 9127 03f4 0300     		.word	0x3
 9128 03f6 71       		.byte	0x71
 9129 03f7 7C       		.sleb128 -4
 9130 03f8 9F       		.byte	0x9f
 9131 03f9 00000000 		.quad	0
 9131      00000000 
 9132 0401 00000000 		.quad	0
 9132      00000000 
 9133              	.LLST13:
 9134 0409 B3000000 		.quad	.LVL12
 9134      00000000 
 9135 0411 C7000000 		.quad	.LVL14
 9135      00000000 
 9136 0419 0600     		.word	0x6
 9137 041b F2       		.byte	0xf2
 9138 041c 93060000 		.secrel32	.Ldebug_info0+1683
 9139 0420 00       		.sleb128 0
 9140 0421 00000000 		.quad	0
 9140      00000000 
 9141 0429 00000000 		.quad	0
 9141      00000000 
 9142              	.LLST14:
 9143 0431 CF000000 		.quad	.LVL15
 9143      00000000 
 9144 0439 2B010000 		.quad	.LVL17
 9144      00000000 
 9145 0441 0300     		.word	0x3
 9146 0443 91       		.byte	0x91
 9147 0444 A87F     		.sleb128 -88
 9148 0446 2B010000 		.quad	.LVL17
 9148      00000000 
 9149 044e DF020000 		.quad	.LVL60
 9149      00000000 
 9150 0456 0400     		.word	0x4
 9151 0458 91       		.byte	0x91
 9152 0459 B07F     		.sleb128 -80
 9153 045b 9F       		.byte	0x9f
 9154 045c DF020000 		.quad	.LVL60
 9154      00000000 
 9155 0464 01030000 		.quad	.LFE3007
 9155      00000000 
 9156 046c 0300     		.word	0x3
 9157 046e 91       		.byte	0x91
 9158 046f A87F     		.sleb128 -88
 9159 0471 00000000 		.quad	0
 9159      00000000 
 9160 0479 00000000 		.quad	0
 9160      00000000 
 9161              	.LLST15:
 9162 0481 D9000000 		.quad	.LVL16
 9162      00000000 
 9163 0489 2B010000 		.quad	.LVL17
 9163      00000000 
 9164 0491 0300     		.word	0x3
 9165 0493 91       		.byte	0x91
 9166 0494 A87F     		.sleb128 -88
 9167 0496 2B010000 		.quad	.LVL17
 9167      00000000 
 9168 049e DF020000 		.quad	.LVL60
 9168      00000000 
 9169 04a6 0400     		.word	0x4
 9170 04a8 91       		.byte	0x91
 9171 04a9 B07F     		.sleb128 -80
 9172 04ab 9F       		.byte	0x9f
 9173 04ac DF020000 		.quad	.LVL60
 9173      00000000 
 9174 04b4 01030000 		.quad	.LFE3007
 9174      00000000 
 9175 04bc 0300     		.word	0x3
 9176 04be 91       		.byte	0x91
 9177 04bf A87F     		.sleb128 -88
 9178 04c1 00000000 		.quad	0
 9178      00000000 
 9179 04c9 00000000 		.quad	0
 9179      00000000 
 9180              	.LLST16:
 9181 04d1 69010000 		.quad	.LVL20
 9181      00000000 
 9182 04d9 7D010000 		.quad	.LVL22
 9182      00000000 
 9183 04e1 0200     		.word	0x2
 9184 04e3 30       		.byte	0x30
 9185 04e4 9F       		.byte	0x9f
 9186 04e5 7D010000 		.quad	.LVL22
 9186      00000000 
 9187 04ed 94010000 		.quad	.LVL24
 9187      00000000 
 9188 04f5 0200     		.word	0x2
 9189 04f7 31       		.byte	0x31
 9190 04f8 9F       		.byte	0x9f
 9191 04f9 94010000 		.quad	.LVL24
 9191      00000000 
 9192 0501 A7010000 		.quad	.LVL26
 9192      00000000 
 9193 0509 0200     		.word	0x2
 9194 050b 32       		.byte	0x32
 9195 050c 9F       		.byte	0x9f
 9196 050d A7010000 		.quad	.LVL26
 9196      00000000 
 9197 0515 BA010000 		.quad	.LVL28
 9197      00000000 
 9198 051d 0200     		.word	0x2
 9199 051f 33       		.byte	0x33
 9200 0520 9F       		.byte	0x9f
 9201 0521 BA010000 		.quad	.LVL28
 9201      00000000 
 9202 0529 CD010000 		.quad	.LVL30
 9202      00000000 
 9203 0531 0200     		.word	0x2
 9204 0533 34       		.byte	0x34
 9205 0534 9F       		.byte	0x9f
 9206 0535 CD010000 		.quad	.LVL30
 9206      00000000 
 9207 053d E0010000 		.quad	.LVL32
 9207      00000000 
 9208 0545 0200     		.word	0x2
 9209 0547 35       		.byte	0x35
 9210 0548 9F       		.byte	0x9f
 9211 0549 E0010000 		.quad	.LVL32
 9211      00000000 
 9212 0551 F3010000 		.quad	.LVL34
 9212      00000000 
 9213 0559 0200     		.word	0x2
 9214 055b 36       		.byte	0x36
 9215 055c 9F       		.byte	0x9f
 9216 055d F3010000 		.quad	.LVL34
 9216      00000000 
 9217 0565 06020000 		.quad	.LVL36
 9217      00000000 
 9218 056d 0200     		.word	0x2
 9219 056f 37       		.byte	0x37
 9220 0570 9F       		.byte	0x9f
 9221 0571 06020000 		.quad	.LVL36
 9221      00000000 
 9222 0579 19020000 		.quad	.LVL38
 9222      00000000 
 9223 0581 0200     		.word	0x2
 9224 0583 38       		.byte	0x38
 9225 0584 9F       		.byte	0x9f
 9226 0585 19020000 		.quad	.LVL38
 9226      00000000 
 9227 058d 2C020000 		.quad	.LVL40
 9227      00000000 
 9228 0595 0200     		.word	0x2
 9229 0597 39       		.byte	0x39
 9230 0598 9F       		.byte	0x9f
 9231 0599 2C020000 		.quad	.LVL40
 9231      00000000 
 9232 05a1 3F020000 		.quad	.LVL42
 9232      00000000 
 9233 05a9 0200     		.word	0x2
 9234 05ab 3A       		.byte	0x3a
 9235 05ac 9F       		.byte	0x9f
 9236 05ad 3F020000 		.quad	.LVL42
 9236      00000000 
 9237 05b5 52020000 		.quad	.LVL44
 9237      00000000 
 9238 05bd 0200     		.word	0x2
 9239 05bf 3B       		.byte	0x3b
 9240 05c0 9F       		.byte	0x9f
 9241 05c1 52020000 		.quad	.LVL44
 9241      00000000 
 9242 05c9 65020000 		.quad	.LVL46
 9242      00000000 
 9243 05d1 0200     		.word	0x2
 9244 05d3 3C       		.byte	0x3c
 9245 05d4 9F       		.byte	0x9f
 9246 05d5 65020000 		.quad	.LVL46
 9246      00000000 
 9247 05dd 78020000 		.quad	.LVL48
 9247      00000000 
 9248 05e5 0200     		.word	0x2
 9249 05e7 3D       		.byte	0x3d
 9250 05e8 9F       		.byte	0x9f
 9251 05e9 78020000 		.quad	.LVL48
 9251      00000000 
 9252 05f1 8B020000 		.quad	.LVL50
 9252      00000000 
 9253 05f9 0200     		.word	0x2
 9254 05fb 3E       		.byte	0x3e
 9255 05fc 9F       		.byte	0x9f
 9256 05fd 8B020000 		.quad	.LVL50
 9256      00000000 
 9257 0605 98020000 		.quad	.LVL51
 9257      00000000 
 9258 060d 0200     		.word	0x2
 9259 060f 3F       		.byte	0x3f
 9260 0610 9F       		.byte	0x9f
 9261 0611 98020000 		.quad	.LVL51
 9261      00000000 
 9262 0619 DF020000 		.quad	.LVL60
 9262      00000000 
 9263 0621 0200     		.word	0x2
 9264 0623 40       		.byte	0x40
 9265 0624 9F       		.byte	0x9f
 9266 0625 00000000 		.quad	0
 9266      00000000 
 9267 062d 00000000 		.quad	0
 9267      00000000 
 9268              	.LLST17:
 9269 0635 69010000 		.quad	.LVL20
 9269      00000000 
 9270 063d 7D010000 		.quad	.LVL22
 9270      00000000 
 9271 0645 0200     		.word	0x2
 9272 0647 30       		.byte	0x30
 9273 0648 9F       		.byte	0x9f
 9274 0649 7D010000 		.quad	.LVL22
 9274      00000000 
 9275 0651 94010000 		.quad	.LVL24
 9275      00000000 
 9276 0659 0100     		.word	0x1
 9277 065b 51       		.byte	0x51
 9278 065c 94010000 		.quad	.LVL24
 9278      00000000 
 9279 0664 A7010000 		.quad	.LVL26
 9279      00000000 
 9280 066c 0100     		.word	0x1
 9281 066e 50       		.byte	0x50
 9282 066f A7010000 		.quad	.LVL26
 9282      00000000 
 9283 0677 BA010000 		.quad	.LVL28
 9283      00000000 
 9284 067f 0100     		.word	0x1
 9285 0681 51       		.byte	0x51
 9286 0682 BA010000 		.quad	.LVL28
 9286      00000000 
 9287 068a CD010000 		.quad	.LVL30
 9287      00000000 
 9288 0692 0100     		.word	0x1
 9289 0694 50       		.byte	0x50
 9290 0695 CD010000 		.quad	.LVL30
 9290      00000000 
 9291 069d E0010000 		.quad	.LVL32
 9291      00000000 
 9292 06a5 0100     		.word	0x1
 9293 06a7 51       		.byte	0x51
 9294 06a8 E0010000 		.quad	.LVL32
 9294      00000000 
 9295 06b0 F3010000 		.quad	.LVL34
 9295      00000000 
 9296 06b8 0100     		.word	0x1
 9297 06ba 50       		.byte	0x50
 9298 06bb F3010000 		.quad	.LVL34
 9298      00000000 
 9299 06c3 06020000 		.quad	.LVL36
 9299      00000000 
 9300 06cb 0100     		.word	0x1
 9301 06cd 51       		.byte	0x51
 9302 06ce 06020000 		.quad	.LVL36
 9302      00000000 
 9303 06d6 19020000 		.quad	.LVL38
 9303      00000000 
 9304 06de 0100     		.word	0x1
 9305 06e0 50       		.byte	0x50
 9306 06e1 19020000 		.quad	.LVL38
 9306      00000000 
 9307 06e9 2C020000 		.quad	.LVL40
 9307      00000000 
 9308 06f1 0100     		.word	0x1
 9309 06f3 51       		.byte	0x51
 9310 06f4 2C020000 		.quad	.LVL40
 9310      00000000 
 9311 06fc 3F020000 		.quad	.LVL42
 9311      00000000 
 9312 0704 0100     		.word	0x1
 9313 0706 50       		.byte	0x50
 9314 0707 3F020000 		.quad	.LVL42
 9314      00000000 
 9315 070f 52020000 		.quad	.LVL44
 9315      00000000 
 9316 0717 0100     		.word	0x1
 9317 0719 51       		.byte	0x51
 9318 071a 52020000 		.quad	.LVL44
 9318      00000000 
 9319 0722 65020000 		.quad	.LVL46
 9319      00000000 
 9320 072a 0100     		.word	0x1
 9321 072c 50       		.byte	0x50
 9322 072d 65020000 		.quad	.LVL46
 9322      00000000 
 9323 0735 78020000 		.quad	.LVL48
 9323      00000000 
 9324 073d 0100     		.word	0x1
 9325 073f 51       		.byte	0x51
 9326 0740 78020000 		.quad	.LVL48
 9326      00000000 
 9327 0748 8B020000 		.quad	.LVL50
 9327      00000000 
 9328 0750 0100     		.word	0x1
 9329 0752 50       		.byte	0x50
 9330 0753 8B020000 		.quad	.LVL50
 9330      00000000 
 9331 075b 98020000 		.quad	.LVL51
 9331      00000000 
 9332 0763 0100     		.word	0x1
 9333 0765 51       		.byte	0x51
 9334 0766 00000000 		.quad	0
 9334      00000000 
 9335 076e 00000000 		.quad	0
 9335      00000000 
 9336              	.LLST18:
 9337 0776 71010000 		.quad	.LVL21
 9337      00000000 
 9338 077e 8C010000 		.quad	.LVL23
 9338      00000000 
 9339 0786 0100     		.word	0x1
 9340 0788 51       		.byte	0x51
 9341 0789 8C010000 		.quad	.LVL23
 9341      00000000 
 9342 0791 9F010000 		.quad	.LVL25
 9342      00000000 
 9343 0799 0100     		.word	0x1
 9344 079b 50       		.byte	0x50
 9345 079c 9F010000 		.quad	.LVL25
 9345      00000000 
 9346 07a4 B2010000 		.quad	.LVL27
 9346      00000000 
 9347 07ac 0100     		.word	0x1
 9348 07ae 51       		.byte	0x51
 9349 07af B2010000 		.quad	.LVL27
 9349      00000000 
 9350 07b7 C5010000 		.quad	.LVL29
 9350      00000000 
 9351 07bf 0100     		.word	0x1
 9352 07c1 50       		.byte	0x50
 9353 07c2 C5010000 		.quad	.LVL29
 9353      00000000 
 9354 07ca D8010000 		.quad	.LVL31
 9354      00000000 
 9355 07d2 0100     		.word	0x1
 9356 07d4 51       		.byte	0x51
 9357 07d5 D8010000 		.quad	.LVL31
 9357      00000000 
 9358 07dd EB010000 		.quad	.LVL33
 9358      00000000 
 9359 07e5 0100     		.word	0x1
 9360 07e7 50       		.byte	0x50
 9361 07e8 EB010000 		.quad	.LVL33
 9361      00000000 
 9362 07f0 FE010000 		.quad	.LVL35
 9362      00000000 
 9363 07f8 0100     		.word	0x1
 9364 07fa 51       		.byte	0x51
 9365 07fb FE010000 		.quad	.LVL35
 9365      00000000 
 9366 0803 11020000 		.quad	.LVL37
 9366      00000000 
 9367 080b 0100     		.word	0x1
 9368 080d 50       		.byte	0x50
 9369 080e 11020000 		.quad	.LVL37
 9369      00000000 
 9370 0816 24020000 		.quad	.LVL39
 9370      00000000 
 9371 081e 0100     		.word	0x1
 9372 0820 51       		.byte	0x51
 9373 0821 24020000 		.quad	.LVL39
 9373      00000000 
 9374 0829 37020000 		.quad	.LVL41
 9374      00000000 
 9375 0831 0100     		.word	0x1
 9376 0833 50       		.byte	0x50
 9377 0834 37020000 		.quad	.LVL41
 9377      00000000 
 9378 083c 4A020000 		.quad	.LVL43
 9378      00000000 
 9379 0844 0100     		.word	0x1
 9380 0846 51       		.byte	0x51
 9381 0847 4A020000 		.quad	.LVL43
 9381      00000000 
 9382 084f 5D020000 		.quad	.LVL45
 9382      00000000 
 9383 0857 0100     		.word	0x1
 9384 0859 50       		.byte	0x50
 9385 085a 5D020000 		.quad	.LVL45
 9385      00000000 
 9386 0862 70020000 		.quad	.LVL47
 9386      00000000 
 9387 086a 0100     		.word	0x1
 9388 086c 51       		.byte	0x51
 9389 086d 70020000 		.quad	.LVL47
 9389      00000000 
 9390 0875 83020000 		.quad	.LVL49
 9390      00000000 
 9391 087d 0100     		.word	0x1
 9392 087f 50       		.byte	0x50
 9393 0880 83020000 		.quad	.LVL49
 9393      00000000 
 9394 0888 8B020000 		.quad	.LVL50
 9394      00000000 
 9395 0890 0100     		.word	0x1
 9396 0892 51       		.byte	0x51
 9397 0893 8B020000 		.quad	.LVL50
 9397      00000000 
 9398 089b 98020000 		.quad	.LVL51
 9398      00000000 
 9399 08a3 0800     		.word	0x8
 9400 08a5 74       		.byte	0x74
 9401 08a6 F800     		.sleb128 120
 9402 08a8 06       		.byte	0x6
 9403 08a9 71       		.byte	0x71
 9404 08aa 00       		.sleb128 0
 9405 08ab 22       		.byte	0x22
 9406 08ac 9F       		.byte	0x9f
 9407 08ad 00000000 		.quad	0
 9407      00000000 
 9408 08b5 00000000 		.quad	0
 9408      00000000 
 9409              	.LLST19:
 9410 08bd 98020000 		.quad	.LVL51
 9410      00000000 
 9411 08c5 9A020000 		.quad	.LVL52
 9411      00000000 
 9412 08cd 0200     		.word	0x2
 9413 08cf 30       		.byte	0x30
 9414 08d0 9F       		.byte	0x9f
 9415 08d1 9A020000 		.quad	.LVL52
 9415      00000000 
 9416 08d9 CE020000 		.quad	.LVL54
 9416      00000000 
 9417 08e1 0100     		.word	0x1
 9418 08e3 50       		.byte	0x50
 9419 08e4 00000000 		.quad	0
 9419      00000000 
 9420 08ec 00000000 		.quad	0
 9420      00000000 
 9421              	.LLST20:
 9422 08f4 9A020000 		.quad	.LVL52
 9422      00000000 
 9423 08fc BE020000 		.quad	.LVL53
 9423      00000000 
 9424 0904 0800     		.word	0x8
 9425 0906 70       		.byte	0x70
 9426 0907 00       		.sleb128 0
 9427 0908 32       		.byte	0x32
 9428 0909 24       		.byte	0x24
 9429 090a 7C       		.byte	0x7c
 9430 090b 00       		.sleb128 0
 9431 090c 22       		.byte	0x22
 9432 090d 9F       		.byte	0x9f
 9433 090e BE020000 		.quad	.LVL53
 9433      00000000 
 9434 0916 CE020000 		.quad	.LVL54
 9434      00000000 
 9435 091e 0800     		.word	0x8
 9436 0920 70       		.byte	0x70
 9437 0921 7F       		.sleb128 -1
 9438 0922 32       		.byte	0x32
 9439 0923 24       		.byte	0x24
 9440 0924 7C       		.byte	0x7c
 9441 0925 00       		.sleb128 0
 9442 0926 22       		.byte	0x22
 9443 0927 9F       		.byte	0x9f
 9444 0928 00000000 		.quad	0
 9444      00000000 
 9445 0930 00000000 		.quad	0
 9445      00000000 
 9446              	.LLST21:
 9447 0938 9A020000 		.quad	.LVL52
 9447      00000000 
 9448 0940 CE020000 		.quad	.LVL54
 9448      00000000 
 9449 0948 0600     		.word	0x6
 9450 094a F2       		.byte	0xf2
 9451 094b 93060000 		.secrel32	.Ldebug_info0+1683
 9452 094f 00       		.sleb128 0
 9453 0950 00000000 		.quad	0
 9453      00000000 
 9454 0958 00000000 		.quad	0
 9454      00000000 
 9455              	.LLST22:
 9456 0960 00000000 		.quad	.LVL61
 9456      00000000 
 9457 0968 37000000 		.quad	.LVL64
 9457      00000000 
 9458 0970 0100     		.word	0x1
 9459 0972 52       		.byte	0x52
 9460 0973 37000000 		.quad	.LVL64
 9460      00000000 
 9461 097b C5010000 		.quad	.LVL88
 9461      00000000 
 9462 0983 0100     		.word	0x1
 9463 0985 54       		.byte	0x54
 9464 0986 C5010000 		.quad	.LVL88
 9464      00000000 
 9465 098e D0010000 		.quad	.LVL93
 9465      00000000 
 9466 0996 0400     		.word	0x4
 9467 0998 F3       		.byte	0xf3
 9468 0999 01       		.uleb128 0x1
 9469 099a 52       		.byte	0x52
 9470 099b 9F       		.byte	0x9f
 9471 099c D0010000 		.quad	.LVL93
 9471      00000000 
 9472 09a4 F1010000 		.quad	.LFE3009
 9472      00000000 
 9473 09ac 0100     		.word	0x1
 9474 09ae 54       		.byte	0x54
 9475 09af 00000000 		.quad	0
 9475      00000000 
 9476 09b7 00000000 		.quad	0
 9476      00000000 
 9477              	.LLST23:
 9478 09bf 00000000 		.quad	.LVL61
 9478      00000000 
 9479 09c7 3C000000 		.quad	.LVL65-1
 9479      00000000 
 9480 09cf 0100     		.word	0x1
 9481 09d1 51       		.byte	0x51
 9482 09d2 3C000000 		.quad	.LVL65-1
 9482      00000000 
 9483 09da CA010000 		.quad	.LVL89
 9483      00000000 
 9484 09e2 0100     		.word	0x1
 9485 09e4 5D       		.byte	0x5d
 9486 09e5 CA010000 		.quad	.LVL89
 9486      00000000 
 9487 09ed D0010000 		.quad	.LVL93
 9487      00000000 
 9488 09f5 0400     		.word	0x4
 9489 09f7 F3       		.byte	0xf3
 9490 09f8 01       		.uleb128 0x1
 9491 09f9 51       		.byte	0x51
 9492 09fa 9F       		.byte	0x9f
 9493 09fb D0010000 		.quad	.LVL93
 9493      00000000 
 9494 0a03 F1010000 		.quad	.LFE3009
 9494      00000000 
 9495 0a0b 0100     		.word	0x1
 9496 0a0d 5D       		.byte	0x5d
 9497 0a0e 00000000 		.quad	0
 9497      00000000 
 9498 0a16 00000000 		.quad	0
 9498      00000000 
 9499              	.LLST24:
 9500 0a1e 00000000 		.quad	.LVL61
 9500      00000000 
 9501 0a26 3C000000 		.quad	.LVL65-1
 9501      00000000 
 9502 0a2e 0100     		.word	0x1
 9503 0a30 58       		.byte	0x58
 9504 0a31 3C000000 		.quad	.LVL65-1
 9504      00000000 
 9505 0a39 CE010000 		.quad	.LVL91
 9505      00000000 
 9506 0a41 0100     		.word	0x1
 9507 0a43 5F       		.byte	0x5f
 9508 0a44 CE010000 		.quad	.LVL91
 9508      00000000 
 9509 0a4c D0010000 		.quad	.LVL93
 9509      00000000 
 9510 0a54 0400     		.word	0x4
 9511 0a56 F3       		.byte	0xf3
 9512 0a57 01       		.uleb128 0x1
 9513 0a58 58       		.byte	0x58
 9514 0a59 9F       		.byte	0x9f
 9515 0a5a D0010000 		.quad	.LVL93
 9515      00000000 
 9516 0a62 F1010000 		.quad	.LFE3009
 9516      00000000 
 9517 0a6a 0100     		.word	0x1
 9518 0a6c 5F       		.byte	0x5f
 9519 0a6d 00000000 		.quad	0
 9519      00000000 
 9520 0a75 00000000 		.quad	0
 9520      00000000 
 9521              	.LLST25:
 9522 0a7d 00000000 		.quad	.LVL61
 9522      00000000 
 9523 0a85 3C000000 		.quad	.LVL65-1
 9523      00000000 
 9524 0a8d 0100     		.word	0x1
 9525 0a8f 59       		.byte	0x59
 9526 0a90 3C000000 		.quad	.LVL65-1
 9526      00000000 
 9527 0a98 CC010000 		.quad	.LVL90
 9527      00000000 
 9528 0aa0 0100     		.word	0x1
 9529 0aa2 5E       		.byte	0x5e
 9530 0aa3 CC010000 		.quad	.LVL90
 9530      00000000 
 9531 0aab D0010000 		.quad	.LVL93
 9531      00000000 
 9532 0ab3 0400     		.word	0x4
 9533 0ab5 F3       		.byte	0xf3
 9534 0ab6 01       		.uleb128 0x1
 9535 0ab7 59       		.byte	0x59
 9536 0ab8 9F       		.byte	0x9f
 9537 0ab9 D0010000 		.quad	.LVL93
 9537      00000000 
 9538 0ac1 F1010000 		.quad	.LFE3009
 9538      00000000 
 9539 0ac9 0100     		.word	0x1
 9540 0acb 5E       		.byte	0x5e
 9541 0acc 00000000 		.quad	0
 9541      00000000 
 9542 0ad4 00000000 		.quad	0
 9542      00000000 
 9543              	.LLST26:
 9544 0adc 8A000000 		.quad	.LVL70
 9544      00000000 
 9545 0ae4 C4010000 		.quad	.LVL87
 9545      00000000 
 9546 0aec 0200     		.word	0x2
 9547 0aee 73       		.byte	0x73
 9548 0aef 00       		.sleb128 0
 9549 0af0 C4010000 		.quad	.LVL87
 9549      00000000 
 9550 0af8 CF010000 		.quad	.LVL92
 9550      00000000 
 9551 0b00 0700     		.word	0x7
 9552 0b02 76       		.byte	0x76
 9553 0b03 977B     		.sleb128 -617
 9554 0b05 33       		.byte	0x33
 9555 0b06 25       		.byte	0x25
 9556 0b07 33       		.byte	0x33
 9557 0b08 24       		.byte	0x24
 9558 0b09 CF010000 		.quad	.LVL92
 9558      00000000 
 9559 0b11 D0010000 		.quad	.LVL93
 9559      00000000 
 9560 0b19 0700     		.word	0x7
 9561 0b1b 91       		.byte	0x91
 9562 0b1c F77A     		.sleb128 -649
 9563 0b1e 33       		.byte	0x33
 9564 0b1f 25       		.byte	0x25
 9565 0b20 33       		.byte	0x33
 9566 0b21 24       		.byte	0x24
 9567 0b22 D0010000 		.quad	.LVL93
 9567      00000000 
 9568 0b2a F1010000 		.quad	.LFE3009
 9568      00000000 
 9569 0b32 0200     		.word	0x2
 9570 0b34 73       		.byte	0x73
 9571 0b35 00       		.sleb128 0
 9572 0b36 00000000 		.quad	0
 9572      00000000 
 9573 0b3e 00000000 		.quad	0
 9573      00000000 
 9574              	.LLST27:
 9575 0b46 33010000 		.quad	.LVL77
 9575      00000000 
 9576 0b4e 3F010000 		.quad	.LVL78
 9576      00000000 
 9577 0b56 0100     		.word	0x1
 9578 0b58 62       		.byte	0x62
 9579 0b59 00000000 		.quad	0
 9579      00000000 
 9580 0b61 00000000 		.quad	0
 9580      00000000 
 9581              	.LLST28:
 9582 0b69 18000000 		.quad	.LVL62
 9582      00000000 
 9583 0b71 20000000 		.quad	.LVL63
 9583      00000000 
 9584 0b79 0400     		.word	0x4
 9585 0b7b 91       		.byte	0x91
 9586 0b7c A07F     		.sleb128 -96
 9587 0b7e 9F       		.byte	0x9f
 9588 0b7f 20000000 		.quad	.LVL63
 9588      00000000 
 9589 0b87 3C000000 		.quad	.LVL65-1
 9589      00000000 
 9590 0b8f 0100     		.word	0x1
 9591 0b91 50       		.byte	0x50
 9592 0b92 3C000000 		.quad	.LVL65-1
 9592      00000000 
 9593 0b9a A2000000 		.quad	.LVL71
 9593      00000000 
 9594 0ba2 0100     		.word	0x1
 9595 0ba4 55       		.byte	0x55
 9596 0ba5 A2000000 		.quad	.LVL71
 9596      00000000 
 9597 0bad F1010000 		.quad	.LFE3009
 9597      00000000 
 9598 0bb5 0300     		.word	0x3
 9599 0bb7 91       		.byte	0x91
 9600 0bb8 907F     		.sleb128 -112
 9601 0bba 00000000 		.quad	0
 9601      00000000 
 9602 0bc2 00000000 		.quad	0
 9602      00000000 
 9603              	.LLST29:
 9604 0bca 3D000000 		.quad	.LVL65
 9604      00000000 
 9605 0bd2 A2000000 		.quad	.LVL71
 9605      00000000 
 9606 0bda 0100     		.word	0x1
 9607 0bdc 55       		.byte	0x55
 9608 0bdd A2000000 		.quad	.LVL71
 9608      00000000 
 9609 0be5 F1010000 		.quad	.LFE3009
 9609      00000000 
 9610 0bed 0300     		.word	0x3
 9611 0bef 91       		.byte	0x91
 9612 0bf0 907F     		.sleb128 -112
 9613 0bf2 00000000 		.quad	0
 9613      00000000 
 9614 0bfa 00000000 		.quad	0
 9614      00000000 
 9615              	.LLST31:
 9616 0c02 50000000 		.quad	.LVL66
 9616      00000000 
 9617 0c0a A2000000 		.quad	.LVL71
 9617      00000000 
 9618 0c12 0100     		.word	0x1
 9619 0c14 55       		.byte	0x55
 9620 0c15 A2000000 		.quad	.LVL71
 9620      00000000 
 9621 0c1d F1010000 		.quad	.LFE3009
 9621      00000000 
 9622 0c25 0300     		.word	0x3
 9623 0c27 91       		.byte	0x91
 9624 0c28 907F     		.sleb128 -112
 9625 0c2a 00000000 		.quad	0
 9625      00000000 
 9626 0c32 00000000 		.quad	0
 9626      00000000 
 9627              	.LLST32:
 9628 0c3a 68000000 		.quad	.LVL68
 9628      00000000 
 9629 0c42 A2000000 		.quad	.LVL71
 9629      00000000 
 9630 0c4a 0100     		.word	0x1
 9631 0c4c 55       		.byte	0x55
 9632 0c4d A2000000 		.quad	.LVL71
 9632      00000000 
 9633 0c55 F1010000 		.quad	.LFE3009
 9633      00000000 
 9634 0c5d 0300     		.word	0x3
 9635 0c5f 91       		.byte	0x91
 9636 0c60 907F     		.sleb128 -112
 9637 0c62 00000000 		.quad	0
 9637      00000000 
 9638 0c6a 00000000 		.quad	0
 9638      00000000 
 9639              	.LLST33:
 9640 0c72 A8000000 		.quad	.LVL72
 9640      00000000 
 9641 0c7a AE000000 		.quad	.LVL73
 9641      00000000 
 9642 0c82 0200     		.word	0x2
 9643 0c84 30       		.byte	0x30
 9644 0c85 9F       		.byte	0x9f
 9645 0c86 00000000 		.quad	0
 9645      00000000 
 9646 0c8e 00000000 		.quad	0
 9646      00000000 
 9647              	.LLST34:
 9648 0c96 AE000000 		.quad	.LVL73
 9648      00000000 
 9649 0c9e B7000000 		.quad	.LVL74
 9649      00000000 
 9650 0ca6 0100     		.word	0x1
 9651 0ca8 51       		.byte	0x51
 9652 0ca9 B7000000 		.quad	.LVL74
 9652      00000000 
 9653 0cb1 C4000000 		.quad	.LVL75
 9653      00000000 
 9654 0cb9 0300     		.word	0x3
 9655 0cbb 71       		.byte	0x71
 9656 0cbc 7C       		.sleb128 -4
 9657 0cbd 9F       		.byte	0x9f
 9658 0cbe 00000000 		.quad	0
 9658      00000000 
 9659 0cc6 00000000 		.quad	0
 9659      00000000 
 9660              	.LLST35:
 9661 0cce AE000000 		.quad	.LVL73
 9661      00000000 
 9662 0cd6 C4000000 		.quad	.LVL75
 9662      00000000 
 9663 0cde 0600     		.word	0x6
 9664 0ce0 F2       		.byte	0xf2
 9665 0ce1 4B0B0000 		.secrel32	.Ldebug_info0+2891
 9666 0ce5 00       		.sleb128 0
 9667 0ce6 00000000 		.quad	0
 9667      00000000 
 9668 0cee 00000000 		.quad	0
 9668      00000000 
 9669              	.LLST36:
 9670 0cf6 5A010000 		.quad	.LVL79
 9670      00000000 
 9671 0cfe 66010000 		.quad	.LVL80
 9671      00000000 
 9672 0d06 0200     		.word	0x2
 9673 0d08 30       		.byte	0x30
 9674 0d09 9F       		.byte	0x9f
 9675 0d0a 00000000 		.quad	0
 9675      00000000 
 9676 0d12 00000000 		.quad	0
 9676      00000000 
 9677              	.LLST37:
 9678 0d1a 5A010000 		.quad	.LVL79
 9678      00000000 
 9679 0d22 66010000 		.quad	.LVL80
 9679      00000000 
 9680 0d2a 0200     		.word	0x2
 9681 0d2c 30       		.byte	0x30
 9682 0d2d 9F       		.byte	0x9f
 9683 0d2e 66010000 		.quad	.LVL80
 9683      00000000 
 9684 0d36 79010000 		.quad	.LVL82
 9684      00000000 
 9685 0d3e 0100     		.word	0x1
 9686 0d40 51       		.byte	0x51
 9687 0d41 79010000 		.quad	.LVL82
 9687      00000000 
 9688 0d49 8C010000 		.quad	.LVL84
 9688      00000000 
 9689 0d51 0100     		.word	0x1
 9690 0d53 52       		.byte	0x52
 9691 0d54 00000000 		.quad	0
 9691      00000000 
 9692 0d5c 00000000 		.quad	0
 9692      00000000 
 9693              	.LLST38:
 9694 0d64 76010000 		.quad	.LVL81
 9694      00000000 
 9695 0d6c 8C010000 		.quad	.LVL84
 9695      00000000 
 9696 0d74 0100     		.word	0x1
 9697 0d76 52       		.byte	0x52
 9698 0d77 00000000 		.quad	0
 9698      00000000 
 9699 0d7f 00000000 		.quad	0
 9699      00000000 
 9700              	.LLST39:
 9701 0d87 85010000 		.quad	.LVL83
 9701      00000000 
 9702 0d8f 8C010000 		.quad	.LVL84
 9702      00000000 
 9703 0d97 0200     		.word	0x2
 9704 0d99 30       		.byte	0x30
 9705 0d9a 9F       		.byte	0x9f
 9706 0d9b 8C010000 		.quad	.LVL84
 9706      00000000 
 9707 0da3 BF010000 		.quad	.LVL86
 9707      00000000 
 9708 0dab 0100     		.word	0x1
 9709 0dad 50       		.byte	0x50
 9710 0dae 00000000 		.quad	0
 9710      00000000 
 9711 0db6 00000000 		.quad	0
 9711      00000000 
 9712              	.LLST40:
 9713 0dbe 8C010000 		.quad	.LVL84
 9713      00000000 
 9714 0dc6 AF010000 		.quad	.LVL85
 9714      00000000 
 9715 0dce 0800     		.word	0x8
 9716 0dd0 70       		.byte	0x70
 9717 0dd1 00       		.sleb128 0
 9718 0dd2 32       		.byte	0x32
 9719 0dd3 24       		.byte	0x24
 9720 0dd4 74       		.byte	0x74
 9721 0dd5 00       		.sleb128 0
 9722 0dd6 22       		.byte	0x22
 9723 0dd7 9F       		.byte	0x9f
 9724 0dd8 AF010000 		.quad	.LVL85
 9724      00000000 
 9725 0de0 BF010000 		.quad	.LVL86
 9725      00000000 
 9726 0de8 0800     		.word	0x8
 9727 0dea 70       		.byte	0x70
 9728 0deb 7F       		.sleb128 -1
 9729 0dec 32       		.byte	0x32
 9730 0ded 24       		.byte	0x24
 9731 0dee 74       		.byte	0x74
 9732 0def 00       		.sleb128 0
 9733 0df0 22       		.byte	0x22
 9734 0df1 9F       		.byte	0x9f
 9735 0df2 00000000 		.quad	0
 9735      00000000 
 9736 0dfa 00000000 		.quad	0
 9736      00000000 
 9737              	.LLST41:
 9738 0e02 8C010000 		.quad	.LVL84
 9738      00000000 
 9739 0e0a BF010000 		.quad	.LVL86
 9739      00000000 
 9740 0e12 0600     		.word	0x6
 9741 0e14 F2       		.byte	0xf2
 9742 0e15 4B0B0000 		.secrel32	.Ldebug_info0+2891
 9743 0e19 00       		.sleb128 0
 9744 0e1a 00000000 		.quad	0
 9744      00000000 
 9745 0e22 00000000 		.quad	0
 9745      00000000 
 9746              	.LLST42:
 9747 0e2a 00000000 		.quad	.LVL94
 9747      00000000 
 9748 0e32 30000000 		.quad	.LVL97
 9748      00000000 
 9749 0e3a 0100     		.word	0x1
 9750 0e3c 52       		.byte	0x52
 9751 0e3d 30000000 		.quad	.LVL97
 9751      00000000 
 9752 0e45 B2010000 		.quad	.LVL120
 9752      00000000 
 9753 0e4d 0100     		.word	0x1
 9754 0e4f 54       		.byte	0x54
 9755 0e50 B2010000 		.quad	.LVL120
 9755      00000000 
 9756 0e58 BD010000 		.quad	.LVL126
 9756      00000000 
 9757 0e60 0400     		.word	0x4
 9758 0e62 F3       		.byte	0xf3
 9759 0e63 01       		.uleb128 0x1
 9760 0e64 52       		.byte	0x52
 9761 0e65 9F       		.byte	0x9f
 9762 0e66 BD010000 		.quad	.LVL126
 9762      00000000 
 9763 0e6e DE010000 		.quad	.LFE3011
 9763      00000000 
 9764 0e76 0100     		.word	0x1
 9765 0e78 54       		.byte	0x54
 9766 0e79 00000000 		.quad	0
 9766      00000000 
 9767 0e81 00000000 		.quad	0
 9767      00000000 
 9768              	.LLST43:
 9769 0e89 00000000 		.quad	.LVL94
 9769      00000000 
 9770 0e91 35000000 		.quad	.LVL98-1
 9770      00000000 
 9771 0e99 0100     		.word	0x1
 9772 0e9b 51       		.byte	0x51
 9773 0e9c 35000000 		.quad	.LVL98-1
 9773      00000000 
 9774 0ea4 B5010000 		.quad	.LVL121
 9774      00000000 
 9775 0eac 0100     		.word	0x1
 9776 0eae 5C       		.byte	0x5c
 9777 0eaf B5010000 		.quad	.LVL121
 9777      00000000 
 9778 0eb7 BD010000 		.quad	.LVL126
 9778      00000000 
 9779 0ebf 0400     		.word	0x4
 9780 0ec1 F3       		.byte	0xf3
 9781 0ec2 01       		.uleb128 0x1
 9782 0ec3 51       		.byte	0x51
 9783 0ec4 9F       		.byte	0x9f
 9784 0ec5 BD010000 		.quad	.LVL126
 9784      00000000 
 9785 0ecd DE010000 		.quad	.LFE3011
 9785      00000000 
 9786 0ed5 0100     		.word	0x1
 9787 0ed7 5C       		.byte	0x5c
 9788 0ed8 00000000 		.quad	0
 9788      00000000 
 9789 0ee0 00000000 		.quad	0
 9789      00000000 
 9790              	.LLST44:
 9791 0ee8 00000000 		.quad	.LVL94
 9791      00000000 
 9792 0ef0 35000000 		.quad	.LVL98-1
 9792      00000000 
 9793 0ef8 0100     		.word	0x1
 9794 0efa 58       		.byte	0x58
 9795 0efb 35000000 		.quad	.LVL98-1
 9795      00000000 
 9796 0f03 B7010000 		.quad	.LVL122
 9796      00000000 
 9797 0f0b 0100     		.word	0x1
 9798 0f0d 5D       		.byte	0x5d
 9799 0f0e B7010000 		.quad	.LVL122
 9799      00000000 
 9800 0f16 BD010000 		.quad	.LVL126
 9800      00000000 
 9801 0f1e 0400     		.word	0x4
 9802 0f20 F3       		.byte	0xf3
 9803 0f21 01       		.uleb128 0x1
 9804 0f22 58       		.byte	0x58
 9805 0f23 9F       		.byte	0x9f
 9806 0f24 BD010000 		.quad	.LVL126
 9806      00000000 
 9807 0f2c DE010000 		.quad	.LFE3011
 9807      00000000 
 9808 0f34 0100     		.word	0x1
 9809 0f36 5D       		.byte	0x5d
 9810 0f37 00000000 		.quad	0
 9810      00000000 
 9811 0f3f 00000000 		.quad	0
 9811      00000000 
 9812              	.LLST45:
 9813 0f47 00000000 		.quad	.LVL94
 9813      00000000 
 9814 0f4f 35000000 		.quad	.LVL98-1
 9814      00000000 
 9815 0f57 0100     		.word	0x1
 9816 0f59 59       		.byte	0x59
 9817 0f5a 35000000 		.quad	.LVL98-1
 9817      00000000 
 9818 0f62 BB010000 		.quad	.LVL124
 9818      00000000 
 9819 0f6a 0100     		.word	0x1
 9820 0f6c 5F       		.byte	0x5f
 9821 0f6d BB010000 		.quad	.LVL124
 9821      00000000 
 9822 0f75 BD010000 		.quad	.LVL126
 9822      00000000 
 9823 0f7d 0400     		.word	0x4
 9824 0f7f F3       		.byte	0xf3
 9825 0f80 01       		.uleb128 0x1
 9826 0f81 59       		.byte	0x59
 9827 0f82 9F       		.byte	0x9f
 9828 0f83 BD010000 		.quad	.LVL126
 9828      00000000 
 9829 0f8b DE010000 		.quad	.LFE3011
 9829      00000000 
 9830 0f93 0100     		.word	0x1
 9831 0f95 5F       		.byte	0x5f
 9832 0f96 00000000 		.quad	0
 9832      00000000 
 9833 0f9e 00000000 		.quad	0
 9833      00000000 
 9834              	.LLST46:
 9835 0fa6 86000000 		.quad	.LVL103
 9835      00000000 
 9836 0fae B1010000 		.quad	.LVL119
 9836      00000000 
 9837 0fb6 0200     		.word	0x2
 9838 0fb8 73       		.byte	0x73
 9839 0fb9 00       		.sleb128 0
 9840 0fba B1010000 		.quad	.LVL119
 9840      00000000 
 9841 0fc2 BC010000 		.quad	.LVL125
 9841      00000000 
 9842 0fca 0700     		.word	0x7
 9843 0fcc 76       		.byte	0x76
 9844 0fcd 976F     		.sleb128 -2153
 9845 0fcf 33       		.byte	0x33
 9846 0fd0 25       		.byte	0x25
 9847 0fd1 33       		.byte	0x33
 9848 0fd2 24       		.byte	0x24
 9849 0fd3 BC010000 		.quad	.LVL125
 9849      00000000 
 9850 0fdb BD010000 		.quad	.LVL126
 9850      00000000 
 9851 0fe3 0700     		.word	0x7
 9852 0fe5 91       		.byte	0x91
 9853 0fe6 F76E     		.sleb128 -2185
 9854 0fe8 33       		.byte	0x33
 9855 0fe9 25       		.byte	0x25
 9856 0fea 33       		.byte	0x33
 9857 0feb 24       		.byte	0x24
 9858 0fec BD010000 		.quad	.LVL126
 9858      00000000 
 9859 0ff4 DE010000 		.quad	.LFE3011
 9859      00000000 
 9860 0ffc 0200     		.word	0x2
 9861 0ffe 73       		.byte	0x73
 9862 0fff 00       		.sleb128 0
 9863 1000 00000000 		.quad	0
 9863      00000000 
 9864 1008 00000000 		.quad	0
 9864      00000000 
 9865              	.LLST47:
 9866 1010 2C010000 		.quad	.LVL109
 9866      00000000 
 9867 1018 38010000 		.quad	.LVL110
 9867      00000000 
 9868 1020 0100     		.word	0x1
 9869 1022 62       		.byte	0x62
 9870 1023 00000000 		.quad	0
 9870      00000000 
 9871 102b 00000000 		.quad	0
 9871      00000000 
 9872              	.LLST48:
 9873 1033 18000000 		.quad	.LVL95
 9873      00000000 
 9874 103b 20000000 		.quad	.LVL96
 9874      00000000 
 9875 1043 0400     		.word	0x4
 9876 1045 91       		.byte	0x91
 9877 1046 A07F     		.sleb128 -96
 9878 1048 9F       		.byte	0x9f
 9879 1049 20000000 		.quad	.LVL96
 9879      00000000 
 9880 1051 B9010000 		.quad	.LVL123
 9880      00000000 
 9881 1059 0100     		.word	0x1
 9882 105b 5E       		.byte	0x5e
 9883 105c B9010000 		.quad	.LVL123
 9883      00000000 
 9884 1064 BD010000 		.quad	.LVL126
 9884      00000000 
 9885 106c 0400     		.word	0x4
 9886 106e 91       		.byte	0x91
 9887 106f A07F     		.sleb128 -96
 9888 1071 9F       		.byte	0x9f
 9889 1072 BD010000 		.quad	.LVL126
 9889      00000000 
 9890 107a DE010000 		.quad	.LFE3011
 9890      00000000 
 9891 1082 0100     		.word	0x1
 9892 1084 5E       		.byte	0x5e
 9893 1085 00000000 		.quad	0
 9893      00000000 
 9894 108d 00000000 		.quad	0
 9894      00000000 
 9895              	.LLST49:
 9896 1095 36000000 		.quad	.LVL98
 9896      00000000 
 9897 109d B9010000 		.quad	.LVL123
 9897      00000000 
 9898 10a5 0100     		.word	0x1
 9899 10a7 5E       		.byte	0x5e
 9900 10a8 B9010000 		.quad	.LVL123
 9900      00000000 
 9901 10b0 BD010000 		.quad	.LVL126
 9901      00000000 
 9902 10b8 0400     		.word	0x4
 9903 10ba 91       		.byte	0x91
 9904 10bb A07F     		.sleb128 -96
 9905 10bd 9F       		.byte	0x9f
 9906 10be BD010000 		.quad	.LVL126
 9906      00000000 
 9907 10c6 DE010000 		.quad	.LFE3011
 9907      00000000 
 9908 10ce 0100     		.word	0x1
 9909 10d0 5E       		.byte	0x5e
 9910 10d1 00000000 		.quad	0
 9910      00000000 
 9911 10d9 00000000 		.quad	0
 9911      00000000 
 9912              	.LLST51:
 9913 10e1 49000000 		.quad	.LVL99
 9913      00000000 
 9914 10e9 B9010000 		.quad	.LVL123
 9914      00000000 
 9915 10f1 0100     		.word	0x1
 9916 10f3 5E       		.byte	0x5e
 9917 10f4 B9010000 		.quad	.LVL123
 9917      00000000 
 9918 10fc BD010000 		.quad	.LVL126
 9918      00000000 
 9919 1104 0400     		.word	0x4
 9920 1106 91       		.byte	0x91
 9921 1107 A07F     		.sleb128 -96
 9922 1109 9F       		.byte	0x9f
 9923 110a BD010000 		.quad	.LVL126
 9923      00000000 
 9924 1112 DE010000 		.quad	.LFE3011
 9924      00000000 
 9925 111a 0100     		.word	0x1
 9926 111c 5E       		.byte	0x5e
 9927 111d 00000000 		.quad	0
 9927      00000000 
 9928 1125 00000000 		.quad	0
 9928      00000000 
 9929              	.LLST52:
 9930 112d 61000000 		.quad	.LVL101
 9930      00000000 
 9931 1135 B9010000 		.quad	.LVL123
 9931      00000000 
 9932 113d 0100     		.word	0x1
 9933 113f 5E       		.byte	0x5e
 9934 1140 B9010000 		.quad	.LVL123
 9934      00000000 
 9935 1148 BD010000 		.quad	.LVL126
 9935      00000000 
 9936 1150 0400     		.word	0x4
 9937 1152 91       		.byte	0x91
 9938 1153 A07F     		.sleb128 -96
 9939 1155 9F       		.byte	0x9f
 9940 1156 BD010000 		.quad	.LVL126
 9940      00000000 
 9941 115e DE010000 		.quad	.LFE3011
 9941      00000000 
 9942 1166 0100     		.word	0x1
 9943 1168 5E       		.byte	0x5e
 9944 1169 00000000 		.quad	0
 9944      00000000 
 9945 1171 00000000 		.quad	0
 9945      00000000 
 9946              	.LLST53:
 9947 1179 9B000000 		.quad	.LVL104
 9947      00000000 
 9948 1181 A7000000 		.quad	.LVL105
 9948      00000000 
 9949 1189 0200     		.word	0x2
 9950 118b 30       		.byte	0x30
 9951 118c 9F       		.byte	0x9f
 9952 118d 00000000 		.quad	0
 9952      00000000 
 9953 1195 00000000 		.quad	0
 9953      00000000 
 9954              	.LLST54:
 9955 119d A7000000 		.quad	.LVL105
 9955      00000000 
 9956 11a5 B7000000 		.quad	.LVL106
 9956      00000000 
 9957 11ad 0100     		.word	0x1
 9958 11af 50       		.byte	0x50
 9959 11b0 B7000000 		.quad	.LVL106
 9959      00000000 
 9960 11b8 C1000000 		.quad	.LVL107
 9960      00000000 
 9961 11c0 0300     		.word	0x3
 9962 11c2 70       		.byte	0x70
 9963 11c3 7C       		.sleb128 -4
 9964 11c4 9F       		.byte	0x9f
 9965 11c5 00000000 		.quad	0
 9965      00000000 
 9966 11cd 00000000 		.quad	0
 9966      00000000 
 9967              	.LLST55:
 9968 11d5 A7000000 		.quad	.LVL105
 9968      00000000 
 9969 11dd C1000000 		.quad	.LVL107
 9969      00000000 
 9970 11e5 0600     		.word	0x6
 9971 11e7 F2       		.byte	0xf2
 9972 11e8 1B100000 		.secrel32	.Ldebug_info0+4123
 9973 11ec 00       		.sleb128 0
 9974 11ed 00000000 		.quad	0
 9974      00000000 
 9975 11f5 00000000 		.quad	0
 9975      00000000 
 9976              	.LLST56:
 9977 11fd C1000000 		.quad	.LVL107
 9977      00000000 
 9978 1205 B9010000 		.quad	.LVL123
 9978      00000000 
 9979 120d 0100     		.word	0x1
 9980 120f 5E       		.byte	0x5e
 9981 1210 B9010000 		.quad	.LVL123
 9981      00000000 
 9982 1218 BD010000 		.quad	.LVL126
 9982      00000000 
 9983 1220 0400     		.word	0x4
 9984 1222 91       		.byte	0x91
 9985 1223 A07F     		.sleb128 -96
 9986 1225 9F       		.byte	0x9f
 9987 1226 BD010000 		.quad	.LVL126
 9987      00000000 
 9988 122e DE010000 		.quad	.LFE3011
 9988      00000000 
 9989 1236 0100     		.word	0x1
 9990 1238 5E       		.byte	0x5e
 9991 1239 00000000 		.quad	0
 9991      00000000 
 9992 1241 00000000 		.quad	0
 9992      00000000 
 9993              	.LLST57:
 9994 1249 CB000000 		.quad	.LVL108
 9994      00000000 
 9995 1251 B9010000 		.quad	.LVL123
 9995      00000000 
 9996 1259 0100     		.word	0x1
 9997 125b 5E       		.byte	0x5e
 9998 125c B9010000 		.quad	.LVL123
 9998      00000000 
 9999 1264 BD010000 		.quad	.LVL126
 9999      00000000 
 10000 126c 0400     		.word	0x4
 10001 126e 91       		.byte	0x91
 10002 126f A07F     		.sleb128 -96
 10003 1271 9F       		.byte	0x9f
 10004 1272 BD010000 		.quad	.LVL126
 10004      00000000 
 10005 127a DE010000 		.quad	.LFE3011
 10005      00000000 
 10006 1282 0100     		.word	0x1
 10007 1284 5E       		.byte	0x5e
 10008 1285 00000000 		.quad	0
 10008      00000000 
 10009 128d 00000000 		.quad	0
 10009      00000000 
 10010              	.LLST58:
 10011 1295 53010000 		.quad	.LVL111
 10011      00000000 
 10012 129d 5F010000 		.quad	.LVL112
 10012      00000000 
 10013 12a5 0200     		.word	0x2
 10014 12a7 30       		.byte	0x30
 10015 12a8 9F       		.byte	0x9f
 10016 12a9 00000000 		.quad	0
 10016      00000000 
 10017 12b1 00000000 		.quad	0
 10017      00000000 
 10018              	.LLST59:
 10019 12b9 53010000 		.quad	.LVL111
 10019      00000000 
 10020 12c1 5F010000 		.quad	.LVL112
 10020      00000000 
 10021 12c9 0200     		.word	0x2
 10022 12cb 30       		.byte	0x30
 10023 12cc 9F       		.byte	0x9f
 10024 12cd 5F010000 		.quad	.LVL112
 10024      00000000 
 10025 12d5 69010000 		.quad	.LVL114
 10025      00000000 
 10026 12dd 0100     		.word	0x1
 10027 12df 51       		.byte	0x51
 10028 12e0 69010000 		.quad	.LVL114
 10028      00000000 
 10029 12e8 7C010000 		.quad	.LVL116
 10029      00000000 
 10030 12f0 0100     		.word	0x1
 10031 12f2 52       		.byte	0x52
 10032 12f3 00000000 		.quad	0
 10032      00000000 
 10033 12fb 00000000 		.quad	0
 10033      00000000 
 10034              	.LLST60:
 10035 1303 66010000 		.quad	.LVL113
 10035      00000000 
 10036 130b 7C010000 		.quad	.LVL116
 10036      00000000 
 10037 1313 0100     		.word	0x1
 10038 1315 52       		.byte	0x52
 10039 1316 00000000 		.quad	0
 10039      00000000 
 10040 131e 00000000 		.quad	0
 10040      00000000 
 10041              	.LLST61:
 10042 1326 75010000 		.quad	.LVL115
 10042      00000000 
 10043 132e 7C010000 		.quad	.LVL116
 10043      00000000 
 10044 1336 0200     		.word	0x2
 10045 1338 30       		.byte	0x30
 10046 1339 9F       		.byte	0x9f
 10047 133a 7C010000 		.quad	.LVL116
 10047      00000000 
 10048 1342 AC010000 		.quad	.LVL118
 10048      00000000 
 10049 134a 0100     		.word	0x1
 10050 134c 50       		.byte	0x50
 10051 134d 00000000 		.quad	0
 10051      00000000 
 10052 1355 00000000 		.quad	0
 10052      00000000 
 10053              	.LLST62:
 10054 135d 7C010000 		.quad	.LVL116
 10054      00000000 
 10055 1365 9C010000 		.quad	.LVL117
 10055      00000000 
 10056 136d 0800     		.word	0x8
 10057 136f 70       		.byte	0x70
 10058 1370 00       		.sleb128 0
 10059 1371 32       		.byte	0x32
 10060 1372 24       		.byte	0x24
 10061 1373 74       		.byte	0x74
 10062 1374 00       		.sleb128 0
 10063 1375 22       		.byte	0x22
 10064 1376 9F       		.byte	0x9f
 10065 1377 9C010000 		.quad	.LVL117
 10065      00000000 
 10066 137f AC010000 		.quad	.LVL118
 10066      00000000 
 10067 1387 0800     		.word	0x8
 10068 1389 70       		.byte	0x70
 10069 138a 7F       		.sleb128 -1
 10070 138b 32       		.byte	0x32
 10071 138c 24       		.byte	0x24
 10072 138d 74       		.byte	0x74
 10073 138e 00       		.sleb128 0
 10074 138f 22       		.byte	0x22
 10075 1390 9F       		.byte	0x9f
 10076 1391 00000000 		.quad	0
 10076      00000000 
 10077 1399 00000000 		.quad	0
 10077      00000000 
 10078              	.LLST63:
 10079 13a1 7C010000 		.quad	.LVL116
 10079      00000000 
 10080 13a9 AC010000 		.quad	.LVL118
 10080      00000000 
 10081 13b1 0600     		.word	0x6
 10082 13b3 F2       		.byte	0xf2
 10083 13b4 1B100000 		.secrel32	.Ldebug_info0+4123
 10084 13b8 00       		.sleb128 0
 10085 13b9 00000000 		.quad	0
 10085      00000000 
 10086 13c1 00000000 		.quad	0
 10086      00000000 
 10087              	.LLST64:
 10088 13c9 00000000 		.quad	.LVL127
 10088      00000000 
 10089 13d1 30000000 		.quad	.LVL130
 10089      00000000 
 10090 13d9 0100     		.word	0x1
 10091 13db 52       		.byte	0x52
 10092 13dc 30000000 		.quad	.LVL130
 10092      00000000 
 10093 13e4 B8010000 		.quad	.LVL153
 10093      00000000 
 10094 13ec 0100     		.word	0x1
 10095 13ee 54       		.byte	0x54
 10096 13ef B8010000 		.quad	.LVL153
 10096      00000000 
 10097 13f7 C3010000 		.quad	.LVL158
 10097      00000000 
 10098 13ff 0400     		.word	0x4
 10099 1401 F3       		.byte	0xf3
 10100 1402 01       		.uleb128 0x1
 10101 1403 52       		.byte	0x52
 10102 1404 9F       		.byte	0x9f
 10103 1405 C3010000 		.quad	.LVL158
 10103      00000000 
 10104 140d E4010000 		.quad	.LFE3013
 10104      00000000 
 10105 1415 0100     		.word	0x1
 10106 1417 54       		.byte	0x54
 10107 1418 00000000 		.quad	0
 10107      00000000 
 10108 1420 00000000 		.quad	0
 10108      00000000 
 10109              	.LLST65:
 10110 1428 00000000 		.quad	.LVL127
 10110      00000000 
 10111 1430 35000000 		.quad	.LVL131-1
 10111      00000000 
 10112 1438 0100     		.word	0x1
 10113 143a 51       		.byte	0x51
 10114 143b 35000000 		.quad	.LVL131-1
 10114      00000000 
 10115 1443 BB010000 		.quad	.LVL154
 10115      00000000 
 10116 144b 0100     		.word	0x1
 10117 144d 5C       		.byte	0x5c
 10118 144e BB010000 		.quad	.LVL154
 10118      00000000 
 10119 1456 C3010000 		.quad	.LVL158
 10119      00000000 
 10120 145e 0400     		.word	0x4
 10121 1460 F3       		.byte	0xf3
 10122 1461 01       		.uleb128 0x1
 10123 1462 51       		.byte	0x51
 10124 1463 9F       		.byte	0x9f
 10125 1464 C3010000 		.quad	.LVL158
 10125      00000000 
 10126 146c E4010000 		.quad	.LFE3013
 10126      00000000 
 10127 1474 0100     		.word	0x1
 10128 1476 5C       		.byte	0x5c
 10129 1477 00000000 		.quad	0
 10129      00000000 
 10130 147f 00000000 		.quad	0
 10130      00000000 
 10131              	.LLST66:
 10132 1487 00000000 		.quad	.LVL127
 10132      00000000 
 10133 148f 35000000 		.quad	.LVL131-1
 10133      00000000 
 10134 1497 0100     		.word	0x1
 10135 1499 58       		.byte	0x58
 10136 149a 35000000 		.quad	.LVL131-1
 10136      00000000 
 10137 14a2 BD010000 		.quad	.LVL155
 10137      00000000 
 10138 14aa 0100     		.word	0x1
 10139 14ac 5D       		.byte	0x5d
 10140 14ad BD010000 		.quad	.LVL155
 10140      00000000 
 10141 14b5 C3010000 		.quad	.LVL158
 10141      00000000 
 10142 14bd 0400     		.word	0x4
 10143 14bf F3       		.byte	0xf3
 10144 14c0 01       		.uleb128 0x1
 10145 14c1 58       		.byte	0x58
 10146 14c2 9F       		.byte	0x9f
 10147 14c3 C3010000 		.quad	.LVL158
 10147      00000000 
 10148 14cb E4010000 		.quad	.LFE3013
 10148      00000000 
 10149 14d3 0100     		.word	0x1
 10150 14d5 5D       		.byte	0x5d
 10151 14d6 00000000 		.quad	0
 10151      00000000 
 10152 14de 00000000 		.quad	0
 10152      00000000 
 10153              	.LLST67:
 10154 14e6 00000000 		.quad	.LVL127
 10154      00000000 
 10155 14ee 35000000 		.quad	.LVL131-1
 10155      00000000 
 10156 14f6 0100     		.word	0x1
 10157 14f8 59       		.byte	0x59
 10158 14f9 35000000 		.quad	.LVL131-1
 10158      00000000 
 10159 1501 C1010000 		.quad	.LVL157
 10159      00000000 
 10160 1509 0100     		.word	0x1
 10161 150b 5F       		.byte	0x5f
 10162 150c C1010000 		.quad	.LVL157
 10162      00000000 
 10163 1514 C3010000 		.quad	.LVL158
 10163      00000000 
 10164 151c 0400     		.word	0x4
 10165 151e F3       		.byte	0xf3
 10166 151f 01       		.uleb128 0x1
 10167 1520 59       		.byte	0x59
 10168 1521 9F       		.byte	0x9f
 10169 1522 C3010000 		.quad	.LVL158
 10169      00000000 
 10170 152a E4010000 		.quad	.LFE3013
 10170      00000000 
 10171 1532 0100     		.word	0x1
 10172 1534 5F       		.byte	0x5f
 10173 1535 00000000 		.quad	0
 10173      00000000 
 10174 153d 00000000 		.quad	0
 10174      00000000 
 10175              	.LLST68:
 10176 1545 8C000000 		.quad	.LVL136
 10176      00000000 
 10177 154d B7010000 		.quad	.LVL152
 10177      00000000 
 10178 1555 0200     		.word	0x2
 10179 1557 73       		.byte	0x73
 10180 1558 00       		.sleb128 0
 10181 1559 C3010000 		.quad	.LVL158
 10181      00000000 
 10182 1561 E4010000 		.quad	.LFE3013
 10182      00000000 
 10183 1569 0200     		.word	0x2
 10184 156b 73       		.byte	0x73
 10185 156c 00       		.sleb128 0
 10186 156d 00000000 		.quad	0
 10186      00000000 
 10187 1575 00000000 		.quad	0
 10187      00000000 
 10188              	.LLST69:
 10189 157d 31010000 		.quad	.LVL142
 10189      00000000 
 10190 1585 3D010000 		.quad	.LVL143
 10190      00000000 
 10191 158d 0100     		.word	0x1
 10192 158f 62       		.byte	0x62
 10193 1590 00000000 		.quad	0
 10193      00000000 
 10194 1598 00000000 		.quad	0
 10194      00000000 
 10195              	.LLST70:
 10196 15a0 18000000 		.quad	.LVL128
 10196      00000000 
 10197 15a8 20000000 		.quad	.LVL129
 10197      00000000 
 10198 15b0 0400     		.word	0x4
 10199 15b2 91       		.byte	0x91
 10200 15b3 A07F     		.sleb128 -96
 10201 15b5 9F       		.byte	0x9f
 10202 15b6 20000000 		.quad	.LVL129
 10202      00000000 
 10203 15be BF010000 		.quad	.LVL156
 10203      00000000 
 10204 15c6 0100     		.word	0x1
 10205 15c8 5E       		.byte	0x5e
 10206 15c9 BF010000 		.quad	.LVL156
 10206      00000000 
 10207 15d1 C3010000 		.quad	.LVL158
 10207      00000000 
 10208 15d9 0400     		.word	0x4
 10209 15db 91       		.byte	0x91
 10210 15dc A07F     		.sleb128 -96
 10211 15de 9F       		.byte	0x9f
 10212 15df C3010000 		.quad	.LVL158
 10212      00000000 
 10213 15e7 E4010000 		.quad	.LFE3013
 10213      00000000 
 10214 15ef 0100     		.word	0x1
 10215 15f1 5E       		.byte	0x5e
 10216 15f2 00000000 		.quad	0
 10216      00000000 
 10217 15fa 00000000 		.quad	0
 10217      00000000 
 10218              	.LLST71:
 10219 1602 36000000 		.quad	.LVL131
 10219      00000000 
 10220 160a BF010000 		.quad	.LVL156
 10220      00000000 
 10221 1612 0100     		.word	0x1
 10222 1614 5E       		.byte	0x5e
 10223 1615 BF010000 		.quad	.LVL156
 10223      00000000 
 10224 161d C3010000 		.quad	.LVL158
 10224      00000000 
 10225 1625 0400     		.word	0x4
 10226 1627 91       		.byte	0x91
 10227 1628 A07F     		.sleb128 -96
 10228 162a 9F       		.byte	0x9f
 10229 162b C3010000 		.quad	.LVL158
 10229      00000000 
 10230 1633 E4010000 		.quad	.LFE3013
 10230      00000000 
 10231 163b 0100     		.word	0x1
 10232 163d 5E       		.byte	0x5e
 10233 163e 00000000 		.quad	0
 10233      00000000 
 10234 1646 00000000 		.quad	0
 10234      00000000 
 10235              	.LLST73:
 10236 164e 49000000 		.quad	.LVL132
 10236      00000000 
 10237 1656 BF010000 		.quad	.LVL156
 10237      00000000 
 10238 165e 0100     		.word	0x1
 10239 1660 5E       		.byte	0x5e
 10240 1661 BF010000 		.quad	.LVL156
 10240      00000000 
 10241 1669 C3010000 		.quad	.LVL158
 10241      00000000 
 10242 1671 0400     		.word	0x4
 10243 1673 91       		.byte	0x91
 10244 1674 A07F     		.sleb128 -96
 10245 1676 9F       		.byte	0x9f
 10246 1677 C3010000 		.quad	.LVL158
 10246      00000000 
 10247 167f E4010000 		.quad	.LFE3013
 10247      00000000 
 10248 1687 0100     		.word	0x1
 10249 1689 5E       		.byte	0x5e
 10250 168a 00000000 		.quad	0
 10250      00000000 
 10251 1692 00000000 		.quad	0
 10251      00000000 
 10252              	.LLST74:
 10253 169a 61000000 		.quad	.LVL134
 10253      00000000 
 10254 16a2 BF010000 		.quad	.LVL156
 10254      00000000 
 10255 16aa 0100     		.word	0x1
 10256 16ac 5E       		.byte	0x5e
 10257 16ad BF010000 		.quad	.LVL156
 10257      00000000 
 10258 16b5 C3010000 		.quad	.LVL158
 10258      00000000 
 10259 16bd 0400     		.word	0x4
 10260 16bf 91       		.byte	0x91
 10261 16c0 A07F     		.sleb128 -96
 10262 16c2 9F       		.byte	0x9f
 10263 16c3 C3010000 		.quad	.LVL158
 10263      00000000 
 10264 16cb E4010000 		.quad	.LFE3013
 10264      00000000 
 10265 16d3 0100     		.word	0x1
 10266 16d5 5E       		.byte	0x5e
 10267 16d6 00000000 		.quad	0
 10267      00000000 
 10268 16de 00000000 		.quad	0
 10268      00000000 
 10269              	.LLST75:
 10270 16e6 A1000000 		.quad	.LVL137
 10270      00000000 
 10271 16ee AD000000 		.quad	.LVL138
 10271      00000000 
 10272 16f6 0200     		.word	0x2
 10273 16f8 30       		.byte	0x30
 10274 16f9 9F       		.byte	0x9f
 10275 16fa 00000000 		.quad	0
 10275      00000000 
 10276 1702 00000000 		.quad	0
 10276      00000000 
 10277              	.LLST76:
 10278 170a AD000000 		.quad	.LVL138
 10278      00000000 
 10279 1712 B7000000 		.quad	.LVL139
 10279      00000000 
 10280 171a 0100     		.word	0x1
 10281 171c 51       		.byte	0x51
 10282 171d B7000000 		.quad	.LVL139
 10282      00000000 
 10283 1725 C6000000 		.quad	.LVL140
 10283      00000000 
 10284 172d 0300     		.word	0x3
 10285 172f 71       		.byte	0x71
 10286 1730 7C       		.sleb128 -4
 10287 1731 9F       		.byte	0x9f
 10288 1732 00000000 		.quad	0
 10288      00000000 
 10289 173a 00000000 		.quad	0
 10289      00000000 
 10290              	.LLST77:
 10291 1742 AD000000 		.quad	.LVL138
 10291      00000000 
 10292 174a C6000000 		.quad	.LVL140
 10292      00000000 
 10293 1752 0600     		.word	0x6
 10294 1754 F2       		.byte	0xf2
 10295 1755 26150000 		.secrel32	.Ldebug_info0+5414
 10296 1759 00       		.sleb128 0
 10297 175a 00000000 		.quad	0
 10297      00000000 
 10298 1762 00000000 		.quad	0
 10298      00000000 
 10299              	.LLST78:
 10300 176a C6000000 		.quad	.LVL140
 10300      00000000 
 10301 1772 BF010000 		.quad	.LVL156
 10301      00000000 
 10302 177a 0100     		.word	0x1
 10303 177c 5E       		.byte	0x5e
 10304 177d BF010000 		.quad	.LVL156
 10304      00000000 
 10305 1785 C3010000 		.quad	.LVL158
 10305      00000000 
 10306 178d 0400     		.word	0x4
 10307 178f 91       		.byte	0x91
 10308 1790 A07F     		.sleb128 -96
 10309 1792 9F       		.byte	0x9f
 10310 1793 C3010000 		.quad	.LVL158
 10310      00000000 
 10311 179b E4010000 		.quad	.LFE3013
 10311      00000000 
 10312 17a3 0100     		.word	0x1
 10313 17a5 5E       		.byte	0x5e
 10314 17a6 00000000 		.quad	0
 10314      00000000 
 10315 17ae 00000000 		.quad	0
 10315      00000000 
 10316              	.LLST79:
 10317 17b6 D0000000 		.quad	.LVL141
 10317      00000000 
 10318 17be BF010000 		.quad	.LVL156
 10318      00000000 
 10319 17c6 0100     		.word	0x1
 10320 17c8 5E       		.byte	0x5e
 10321 17c9 BF010000 		.quad	.LVL156
 10321      00000000 
 10322 17d1 C3010000 		.quad	.LVL158
 10322      00000000 
 10323 17d9 0400     		.word	0x4
 10324 17db 91       		.byte	0x91
 10325 17dc A07F     		.sleb128 -96
 10326 17de 9F       		.byte	0x9f
 10327 17df C3010000 		.quad	.LVL158
 10327      00000000 
 10328 17e7 E4010000 		.quad	.LFE3013
 10328      00000000 
 10329 17ef 0100     		.word	0x1
 10330 17f1 5E       		.byte	0x5e
 10331 17f2 00000000 		.quad	0
 10331      00000000 
 10332 17fa 00000000 		.quad	0
 10332      00000000 
 10333              	.LLST80:
 10334 1802 58010000 		.quad	.LVL144
 10334      00000000 
 10335 180a 64010000 		.quad	.LVL145
 10335      00000000 
 10336 1812 0200     		.word	0x2
 10337 1814 30       		.byte	0x30
 10338 1815 9F       		.byte	0x9f
 10339 1816 00000000 		.quad	0
 10339      00000000 
 10340 181e 00000000 		.quad	0
 10340      00000000 
 10341              	.LLST81:
 10342 1826 58010000 		.quad	.LVL144
 10342      00000000 
 10343 182e 64010000 		.quad	.LVL145
 10343      00000000 
 10344 1836 0200     		.word	0x2
 10345 1838 30       		.byte	0x30
 10346 1839 9F       		.byte	0x9f
 10347 183a 64010000 		.quad	.LVL145
 10347      00000000 
 10348 1842 6D010000 		.quad	.LVL147
 10348      00000000 
 10349 184a 0100     		.word	0x1
 10350 184c 51       		.byte	0x51
 10351 184d 6D010000 		.quad	.LVL147
 10351      00000000 
 10352 1855 80010000 		.quad	.LVL149
 10352      00000000 
 10353 185d 0100     		.word	0x1
 10354 185f 52       		.byte	0x52
 10355 1860 00000000 		.quad	0
 10355      00000000 
 10356 1868 00000000 		.quad	0
 10356      00000000 
 10357              	.LLST82:
 10358 1870 6A010000 		.quad	.LVL146
 10358      00000000 
 10359 1878 80010000 		.quad	.LVL149
 10359      00000000 
 10360 1880 0100     		.word	0x1
 10361 1882 52       		.byte	0x52
 10362 1883 00000000 		.quad	0
 10362      00000000 
 10363 188b 00000000 		.quad	0
 10363      00000000 
 10364              	.LLST83:
 10365 1893 79010000 		.quad	.LVL148
 10365      00000000 
 10366 189b 80010000 		.quad	.LVL149
 10366      00000000 
 10367 18a3 0200     		.word	0x2
 10368 18a5 30       		.byte	0x30
 10369 18a6 9F       		.byte	0x9f
 10370 18a7 80010000 		.quad	.LVL149
 10370      00000000 
 10371 18af B2010000 		.quad	.LVL151
 10371      00000000 
 10372 18b7 0100     		.word	0x1
 10373 18b9 50       		.byte	0x50
 10374 18ba 00000000 		.quad	0
 10374      00000000 
 10375 18c2 00000000 		.quad	0
 10375      00000000 
 10376              	.LLST84:
 10377 18ca 80010000 		.quad	.LVL149
 10377      00000000 
 10378 18d2 A2010000 		.quad	.LVL150
 10378      00000000 
 10379 18da 0800     		.word	0x8
 10380 18dc 70       		.byte	0x70
 10381 18dd 00       		.sleb128 0
 10382 18de 32       		.byte	0x32
 10383 18df 24       		.byte	0x24
 10384 18e0 74       		.byte	0x74
 10385 18e1 00       		.sleb128 0
 10386 18e2 22       		.byte	0x22
 10387 18e3 9F       		.byte	0x9f
 10388 18e4 A2010000 		.quad	.LVL150
 10388      00000000 
 10389 18ec B2010000 		.quad	.LVL151
 10389      00000000 
 10390 18f4 0800     		.word	0x8
 10391 18f6 70       		.byte	0x70
 10392 18f7 7F       		.sleb128 -1
 10393 18f8 32       		.byte	0x32
 10394 18f9 24       		.byte	0x24
 10395 18fa 74       		.byte	0x74
 10396 18fb 00       		.sleb128 0
 10397 18fc 22       		.byte	0x22
 10398 18fd 9F       		.byte	0x9f
 10399 18fe 00000000 		.quad	0
 10399      00000000 
 10400 1906 00000000 		.quad	0
 10400      00000000 
 10401              	.LLST85:
 10402 190e 80010000 		.quad	.LVL149
 10402      00000000 
 10403 1916 B2010000 		.quad	.LVL151
 10403      00000000 
 10404 191e 0600     		.word	0x6
 10405 1920 F2       		.byte	0xf2
 10406 1921 26150000 		.secrel32	.Ldebug_info0+5414
 10407 1925 00       		.sleb128 0
 10408 1926 00000000 		.quad	0
 10408      00000000 
 10409 192e 00000000 		.quad	0
 10409      00000000 
 10410              	.LLST86:
 10411 1936 00000000 		.quad	.LVL159
 10411      00000000 
 10412 193e 30000000 		.quad	.LVL162
 10412      00000000 
 10413 1946 0100     		.word	0x1
 10414 1948 52       		.byte	0x52
 10415 1949 30000000 		.quad	.LVL162
 10415      00000000 
 10416 1951 B2010000 		.quad	.LVL185
 10416      00000000 
 10417 1959 0100     		.word	0x1
 10418 195b 54       		.byte	0x54
 10419 195c B2010000 		.quad	.LVL185
 10419      00000000 
 10420 1964 BD010000 		.quad	.LVL190
 10420      00000000 
 10421 196c 0400     		.word	0x4
 10422 196e F3       		.byte	0xf3
 10423 196f 01       		.uleb128 0x1
 10424 1970 52       		.byte	0x52
 10425 1971 9F       		.byte	0x9f
 10426 1972 BD010000 		.quad	.LVL190
 10426      00000000 
 10427 197a DE010000 		.quad	.LFE3015
 10427      00000000 
 10428 1982 0100     		.word	0x1
 10429 1984 54       		.byte	0x54
 10430 1985 00000000 		.quad	0
 10430      00000000 
 10431 198d 00000000 		.quad	0
 10431      00000000 
 10432              	.LLST87:
 10433 1995 00000000 		.quad	.LVL159
 10433      00000000 
 10434 199d 35000000 		.quad	.LVL163-1
 10434      00000000 
 10435 19a5 0100     		.word	0x1
 10436 19a7 51       		.byte	0x51
 10437 19a8 35000000 		.quad	.LVL163-1
 10437      00000000 
 10438 19b0 B5010000 		.quad	.LVL186
 10438      00000000 
 10439 19b8 0100     		.word	0x1
 10440 19ba 5C       		.byte	0x5c
 10441 19bb B5010000 		.quad	.LVL186
 10441      00000000 
 10442 19c3 BD010000 		.quad	.LVL190
 10442      00000000 
 10443 19cb 0400     		.word	0x4
 10444 19cd F3       		.byte	0xf3
 10445 19ce 01       		.uleb128 0x1
 10446 19cf 51       		.byte	0x51
 10447 19d0 9F       		.byte	0x9f
 10448 19d1 BD010000 		.quad	.LVL190
 10448      00000000 
 10449 19d9 DE010000 		.quad	.LFE3015
 10449      00000000 
 10450 19e1 0100     		.word	0x1
 10451 19e3 5C       		.byte	0x5c
 10452 19e4 00000000 		.quad	0
 10452      00000000 
 10453 19ec 00000000 		.quad	0
 10453      00000000 
 10454              	.LLST88:
 10455 19f4 00000000 		.quad	.LVL159
 10455      00000000 
 10456 19fc 35000000 		.quad	.LVL163-1
 10456      00000000 
 10457 1a04 0100     		.word	0x1
 10458 1a06 58       		.byte	0x58
 10459 1a07 35000000 		.quad	.LVL163-1
 10459      00000000 
 10460 1a0f B7010000 		.quad	.LVL187
 10460      00000000 
 10461 1a17 0100     		.word	0x1
 10462 1a19 5D       		.byte	0x5d
 10463 1a1a B7010000 		.quad	.LVL187
 10463      00000000 
 10464 1a22 BD010000 		.quad	.LVL190
 10464      00000000 
 10465 1a2a 0400     		.word	0x4
 10466 1a2c F3       		.byte	0xf3
 10467 1a2d 01       		.uleb128 0x1
 10468 1a2e 58       		.byte	0x58
 10469 1a2f 9F       		.byte	0x9f
 10470 1a30 BD010000 		.quad	.LVL190
 10470      00000000 
 10471 1a38 DE010000 		.quad	.LFE3015
 10471      00000000 
 10472 1a40 0100     		.word	0x1
 10473 1a42 5D       		.byte	0x5d
 10474 1a43 00000000 		.quad	0
 10474      00000000 
 10475 1a4b 00000000 		.quad	0
 10475      00000000 
 10476              	.LLST89:
 10477 1a53 00000000 		.quad	.LVL159
 10477      00000000 
 10478 1a5b 35000000 		.quad	.LVL163-1
 10478      00000000 
 10479 1a63 0100     		.word	0x1
 10480 1a65 59       		.byte	0x59
 10481 1a66 35000000 		.quad	.LVL163-1
 10481      00000000 
 10482 1a6e BB010000 		.quad	.LVL189
 10482      00000000 
 10483 1a76 0100     		.word	0x1
 10484 1a78 5F       		.byte	0x5f
 10485 1a79 BB010000 		.quad	.LVL189
 10485      00000000 
 10486 1a81 BD010000 		.quad	.LVL190
 10486      00000000 
 10487 1a89 0400     		.word	0x4
 10488 1a8b F3       		.byte	0xf3
 10489 1a8c 01       		.uleb128 0x1
 10490 1a8d 59       		.byte	0x59
 10491 1a8e 9F       		.byte	0x9f
 10492 1a8f BD010000 		.quad	.LVL190
 10492      00000000 
 10493 1a97 DE010000 		.quad	.LFE3015
 10493      00000000 
 10494 1a9f 0100     		.word	0x1
 10495 1aa1 5F       		.byte	0x5f
 10496 1aa2 00000000 		.quad	0
 10496      00000000 
 10497 1aaa 00000000 		.quad	0
 10497      00000000 
 10498              	.LLST90:
 10499 1ab2 8C000000 		.quad	.LVL168
 10499      00000000 
 10500 1aba B1010000 		.quad	.LVL184
 10500      00000000 
 10501 1ac2 0200     		.word	0x2
 10502 1ac4 73       		.byte	0x73
 10503 1ac5 00       		.sleb128 0
 10504 1ac6 BD010000 		.quad	.LVL190
 10504      00000000 
 10505 1ace DE010000 		.quad	.LFE3015
 10505      00000000 
 10506 1ad6 0200     		.word	0x2
 10507 1ad8 73       		.byte	0x73
 10508 1ad9 00       		.sleb128 0
 10509 1ada 00000000 		.quad	0
 10509      00000000 
 10510 1ae2 00000000 		.quad	0
 10510      00000000 
 10511              	.LLST91:
 10512 1aea 2C010000 		.quad	.LVL174
 10512      00000000 
 10513 1af2 38010000 		.quad	.LVL175
 10513      00000000 
 10514 1afa 0100     		.word	0x1
 10515 1afc 62       		.byte	0x62
 10516 1afd 00000000 		.quad	0
 10516      00000000 
 10517 1b05 00000000 		.quad	0
 10517      00000000 
 10518              	.LLST92:
 10519 1b0d 18000000 		.quad	.LVL160
 10519      00000000 
 10520 1b15 20000000 		.quad	.LVL161
 10520      00000000 
 10521 1b1d 0400     		.word	0x4
 10522 1b1f 91       		.byte	0x91
 10523 1b20 A07F     		.sleb128 -96
 10524 1b22 9F       		.byte	0x9f
 10525 1b23 20000000 		.quad	.LVL161
 10525      00000000 
 10526 1b2b B9010000 		.quad	.LVL188
 10526      00000000 
 10527 1b33 0100     		.word	0x1
 10528 1b35 5E       		.byte	0x5e
 10529 1b36 B9010000 		.quad	.LVL188
 10529      00000000 
 10530 1b3e BD010000 		.quad	.LVL190
 10530      00000000 
 10531 1b46 0400     		.word	0x4
 10532 1b48 91       		.byte	0x91
 10533 1b49 A07F     		.sleb128 -96
 10534 1b4b 9F       		.byte	0x9f
 10535 1b4c BD010000 		.quad	.LVL190
 10535      00000000 
 10536 1b54 DE010000 		.quad	.LFE3015
 10536      00000000 
 10537 1b5c 0100     		.word	0x1
 10538 1b5e 5E       		.byte	0x5e
 10539 1b5f 00000000 		.quad	0
 10539      00000000 
 10540 1b67 00000000 		.quad	0
 10540      00000000 
 10541              	.LLST93:
 10542 1b6f 36000000 		.quad	.LVL163
 10542      00000000 
 10543 1b77 B9010000 		.quad	.LVL188
 10543      00000000 
 10544 1b7f 0100     		.word	0x1
 10545 1b81 5E       		.byte	0x5e
 10546 1b82 B9010000 		.quad	.LVL188
 10546      00000000 
 10547 1b8a BD010000 		.quad	.LVL190
 10547      00000000 
 10548 1b92 0400     		.word	0x4
 10549 1b94 91       		.byte	0x91
 10550 1b95 A07F     		.sleb128 -96
 10551 1b97 9F       		.byte	0x9f
 10552 1b98 BD010000 		.quad	.LVL190
 10552      00000000 
 10553 1ba0 DE010000 		.quad	.LFE3015
 10553      00000000 
 10554 1ba8 0100     		.word	0x1
 10555 1baa 5E       		.byte	0x5e
 10556 1bab 00000000 		.quad	0
 10556      00000000 
 10557 1bb3 00000000 		.quad	0
 10557      00000000 
 10558              	.LLST95:
 10559 1bbb 49000000 		.quad	.LVL164
 10559      00000000 
 10560 1bc3 B9010000 		.quad	.LVL188
 10560      00000000 
 10561 1bcb 0100     		.word	0x1
 10562 1bcd 5E       		.byte	0x5e
 10563 1bce B9010000 		.quad	.LVL188
 10563      00000000 
 10564 1bd6 BD010000 		.quad	.LVL190
 10564      00000000 
 10565 1bde 0400     		.word	0x4
 10566 1be0 91       		.byte	0x91
 10567 1be1 A07F     		.sleb128 -96
 10568 1be3 9F       		.byte	0x9f
 10569 1be4 BD010000 		.quad	.LVL190
 10569      00000000 
 10570 1bec DE010000 		.quad	.LFE3015
 10570      00000000 
 10571 1bf4 0100     		.word	0x1
 10572 1bf6 5E       		.byte	0x5e
 10573 1bf7 00000000 		.quad	0
 10573      00000000 
 10574 1bff 00000000 		.quad	0
 10574      00000000 
 10575              	.LLST96:
 10576 1c07 61000000 		.quad	.LVL166
 10576      00000000 
 10577 1c0f B9010000 		.quad	.LVL188
 10577      00000000 
 10578 1c17 0100     		.word	0x1
 10579 1c19 5E       		.byte	0x5e
 10580 1c1a B9010000 		.quad	.LVL188
 10580      00000000 
 10581 1c22 BD010000 		.quad	.LVL190
 10581      00000000 
 10582 1c2a 0400     		.word	0x4
 10583 1c2c 91       		.byte	0x91
 10584 1c2d A07F     		.sleb128 -96
 10585 1c2f 9F       		.byte	0x9f
 10586 1c30 BD010000 		.quad	.LVL190
 10586      00000000 
 10587 1c38 DE010000 		.quad	.LFE3015
 10587      00000000 
 10588 1c40 0100     		.word	0x1
 10589 1c42 5E       		.byte	0x5e
 10590 1c43 00000000 		.quad	0
 10590      00000000 
 10591 1c4b 00000000 		.quad	0
 10591      00000000 
 10592              	.LLST97:
 10593 1c53 A1000000 		.quad	.LVL169
 10593      00000000 
 10594 1c5b AD000000 		.quad	.LVL170
 10594      00000000 
 10595 1c63 0200     		.word	0x2
 10596 1c65 30       		.byte	0x30
 10597 1c66 9F       		.byte	0x9f
 10598 1c67 00000000 		.quad	0
 10598      00000000 
 10599 1c6f 00000000 		.quad	0
 10599      00000000 
 10600              	.LLST98:
 10601 1c77 AD000000 		.quad	.LVL170
 10601      00000000 
 10602 1c7f B7000000 		.quad	.LVL171
 10602      00000000 
 10603 1c87 0100     		.word	0x1
 10604 1c89 50       		.byte	0x50
 10605 1c8a B7000000 		.quad	.LVL171
 10605      00000000 
 10606 1c92 C1000000 		.quad	.LVL172
 10606      00000000 
 10607 1c9a 0300     		.word	0x3
 10608 1c9c 70       		.byte	0x70
 10609 1c9d 7C       		.sleb128 -4
 10610 1c9e 9F       		.byte	0x9f
 10611 1c9f 00000000 		.quad	0
 10611      00000000 
 10612 1ca7 00000000 		.quad	0
 10612      00000000 
 10613              	.LLST99:
 10614 1caf AD000000 		.quad	.LVL170
 10614      00000000 
 10615 1cb7 C1000000 		.quad	.LVL172
 10615      00000000 
 10616 1cbf 0600     		.word	0x6
 10617 1cc1 F2       		.byte	0xf2
 10618 1cc2 241A0000 		.secrel32	.Ldebug_info0+6692
 10619 1cc6 00       		.sleb128 0
 10620 1cc7 00000000 		.quad	0
 10620      00000000 
 10621 1ccf 00000000 		.quad	0
 10621      00000000 
 10622              	.LLST100:
 10623 1cd7 C1000000 		.quad	.LVL172
 10623      00000000 
 10624 1cdf B9010000 		.quad	.LVL188
 10624      00000000 
 10625 1ce7 0100     		.word	0x1
 10626 1ce9 5E       		.byte	0x5e
 10627 1cea B9010000 		.quad	.LVL188
 10627      00000000 
 10628 1cf2 BD010000 		.quad	.LVL190
 10628      00000000 
 10629 1cfa 0400     		.word	0x4
 10630 1cfc 91       		.byte	0x91
 10631 1cfd A07F     		.sleb128 -96
 10632 1cff 9F       		.byte	0x9f
 10633 1d00 BD010000 		.quad	.LVL190
 10633      00000000 
 10634 1d08 DE010000 		.quad	.LFE3015
 10634      00000000 
 10635 1d10 0100     		.word	0x1
 10636 1d12 5E       		.byte	0x5e
 10637 1d13 00000000 		.quad	0
 10637      00000000 
 10638 1d1b 00000000 		.quad	0
 10638      00000000 
 10639              	.LLST101:
 10640 1d23 CB000000 		.quad	.LVL173
 10640      00000000 
 10641 1d2b B9010000 		.quad	.LVL188
 10641      00000000 
 10642 1d33 0100     		.word	0x1
 10643 1d35 5E       		.byte	0x5e
 10644 1d36 B9010000 		.quad	.LVL188
 10644      00000000 
 10645 1d3e BD010000 		.quad	.LVL190
 10645      00000000 
 10646 1d46 0400     		.word	0x4
 10647 1d48 91       		.byte	0x91
 10648 1d49 A07F     		.sleb128 -96
 10649 1d4b 9F       		.byte	0x9f
 10650 1d4c BD010000 		.quad	.LVL190
 10650      00000000 
 10651 1d54 DE010000 		.quad	.LFE3015
 10651      00000000 
 10652 1d5c 0100     		.word	0x1
 10653 1d5e 5E       		.byte	0x5e
 10654 1d5f 00000000 		.quad	0
 10654      00000000 
 10655 1d67 00000000 		.quad	0
 10655      00000000 
 10656              	.LLST102:
 10657 1d6f 53010000 		.quad	.LVL176
 10657      00000000 
 10658 1d77 5F010000 		.quad	.LVL177
 10658      00000000 
 10659 1d7f 0200     		.word	0x2
 10660 1d81 30       		.byte	0x30
 10661 1d82 9F       		.byte	0x9f
 10662 1d83 00000000 		.quad	0
 10662      00000000 
 10663 1d8b 00000000 		.quad	0
 10663      00000000 
 10664              	.LLST103:
 10665 1d93 53010000 		.quad	.LVL176
 10665      00000000 
 10666 1d9b 5F010000 		.quad	.LVL177
 10666      00000000 
 10667 1da3 0200     		.word	0x2
 10668 1da5 30       		.byte	0x30
 10669 1da6 9F       		.byte	0x9f
 10670 1da7 5F010000 		.quad	.LVL177
 10670      00000000 
 10671 1daf 69010000 		.quad	.LVL179
 10671      00000000 
 10672 1db7 0100     		.word	0x1
 10673 1db9 51       		.byte	0x51
 10674 1dba 69010000 		.quad	.LVL179
 10674      00000000 
 10675 1dc2 7C010000 		.quad	.LVL181
 10675      00000000 
 10676 1dca 0100     		.word	0x1
 10677 1dcc 52       		.byte	0x52
 10678 1dcd 00000000 		.quad	0
 10678      00000000 
 10679 1dd5 00000000 		.quad	0
 10679      00000000 
 10680              	.LLST104:
 10681 1ddd 66010000 		.quad	.LVL178
 10681      00000000 
 10682 1de5 7C010000 		.quad	.LVL181
 10682      00000000 
 10683 1ded 0100     		.word	0x1
 10684 1def 52       		.byte	0x52
 10685 1df0 00000000 		.quad	0
 10685      00000000 
 10686 1df8 00000000 		.quad	0
 10686      00000000 
 10687              	.LLST105:
 10688 1e00 75010000 		.quad	.LVL180
 10688      00000000 
 10689 1e08 7C010000 		.quad	.LVL181
 10689      00000000 
 10690 1e10 0200     		.word	0x2
 10691 1e12 30       		.byte	0x30
 10692 1e13 9F       		.byte	0x9f
 10693 1e14 7C010000 		.quad	.LVL181
 10693      00000000 
 10694 1e1c AC010000 		.quad	.LVL183
 10694      00000000 
 10695 1e24 0100     		.word	0x1
 10696 1e26 50       		.byte	0x50
 10697 1e27 00000000 		.quad	0
 10697      00000000 
 10698 1e2f 00000000 		.quad	0
 10698      00000000 
 10699              	.LLST106:
 10700 1e37 7C010000 		.quad	.LVL181
 10700      00000000 
 10701 1e3f 9C010000 		.quad	.LVL182
 10701      00000000 
 10702 1e47 0800     		.word	0x8
 10703 1e49 70       		.byte	0x70
 10704 1e4a 00       		.sleb128 0
 10705 1e4b 32       		.byte	0x32
 10706 1e4c 24       		.byte	0x24
 10707 1e4d 74       		.byte	0x74
 10708 1e4e 00       		.sleb128 0
 10709 1e4f 22       		.byte	0x22
 10710 1e50 9F       		.byte	0x9f
 10711 1e51 9C010000 		.quad	.LVL182
 10711      00000000 
 10712 1e59 AC010000 		.quad	.LVL183
 10712      00000000 
 10713 1e61 0800     		.word	0x8
 10714 1e63 70       		.byte	0x70
 10715 1e64 7F       		.sleb128 -1
 10716 1e65 32       		.byte	0x32
 10717 1e66 24       		.byte	0x24
 10718 1e67 74       		.byte	0x74
 10719 1e68 00       		.sleb128 0
 10720 1e69 22       		.byte	0x22
 10721 1e6a 9F       		.byte	0x9f
 10722 1e6b 00000000 		.quad	0
 10722      00000000 
 10723 1e73 00000000 		.quad	0
 10723      00000000 
 10724              	.LLST107:
 10725 1e7b 7C010000 		.quad	.LVL181
 10725      00000000 
 10726 1e83 AC010000 		.quad	.LVL183
 10726      00000000 
 10727 1e8b 0600     		.word	0x6
 10728 1e8d F2       		.byte	0xf2
 10729 1e8e 241A0000 		.secrel32	.Ldebug_info0+6692
 10730 1e92 00       		.sleb128 0
 10731 1e93 00000000 		.quad	0
 10731      00000000 
 10732 1e9b 00000000 		.quad	0
 10732      00000000 
 10733              	.LLST108:
 10734 1ea3 00000000 		.quad	.LVL191
 10734      00000000 
 10735 1eab 30000000 		.quad	.LVL194
 10735      00000000 
 10736 1eb3 0100     		.word	0x1
 10737 1eb5 52       		.byte	0x52
 10738 1eb6 30000000 		.quad	.LVL194
 10738      00000000 
 10739 1ebe B8010000 		.quad	.LVL217
 10739      00000000 
 10740 1ec6 0100     		.word	0x1
 10741 1ec8 54       		.byte	0x54
 10742 1ec9 B8010000 		.quad	.LVL217
 10742      00000000 
 10743 1ed1 C3010000 		.quad	.LVL222
 10743      00000000 
 10744 1ed9 0400     		.word	0x4
 10745 1edb F3       		.byte	0xf3
 10746 1edc 01       		.uleb128 0x1
 10747 1edd 52       		.byte	0x52
 10748 1ede 9F       		.byte	0x9f
 10749 1edf C3010000 		.quad	.LVL222
 10749      00000000 
 10750 1ee7 E4010000 		.quad	.LFE3017
 10750      00000000 
 10751 1eef 0100     		.word	0x1
 10752 1ef1 54       		.byte	0x54
 10753 1ef2 00000000 		.quad	0
 10753      00000000 
 10754 1efa 00000000 		.quad	0
 10754      00000000 
 10755              	.LLST109:
 10756 1f02 00000000 		.quad	.LVL191
 10756      00000000 
 10757 1f0a 35000000 		.quad	.LVL195-1
 10757      00000000 
 10758 1f12 0100     		.word	0x1
 10759 1f14 51       		.byte	0x51
 10760 1f15 35000000 		.quad	.LVL195-1
 10760      00000000 
 10761 1f1d BB010000 		.quad	.LVL218
 10761      00000000 
 10762 1f25 0100     		.word	0x1
 10763 1f27 5C       		.byte	0x5c
 10764 1f28 BB010000 		.quad	.LVL218
 10764      00000000 
 10765 1f30 C3010000 		.quad	.LVL222
 10765      00000000 
 10766 1f38 0400     		.word	0x4
 10767 1f3a F3       		.byte	0xf3
 10768 1f3b 01       		.uleb128 0x1
 10769 1f3c 51       		.byte	0x51
 10770 1f3d 9F       		.byte	0x9f
 10771 1f3e C3010000 		.quad	.LVL222
 10771      00000000 
 10772 1f46 E4010000 		.quad	.LFE3017
 10772      00000000 
 10773 1f4e 0100     		.word	0x1
 10774 1f50 5C       		.byte	0x5c
 10775 1f51 00000000 		.quad	0
 10775      00000000 
 10776 1f59 00000000 		.quad	0
 10776      00000000 
 10777              	.LLST110:
 10778 1f61 00000000 		.quad	.LVL191
 10778      00000000 
 10779 1f69 35000000 		.quad	.LVL195-1
 10779      00000000 
 10780 1f71 0100     		.word	0x1
 10781 1f73 58       		.byte	0x58
 10782 1f74 35000000 		.quad	.LVL195-1
 10782      00000000 
 10783 1f7c BD010000 		.quad	.LVL219
 10783      00000000 
 10784 1f84 0100     		.word	0x1
 10785 1f86 5D       		.byte	0x5d
 10786 1f87 BD010000 		.quad	.LVL219
 10786      00000000 
 10787 1f8f C3010000 		.quad	.LVL222
 10787      00000000 
 10788 1f97 0400     		.word	0x4
 10789 1f99 F3       		.byte	0xf3
 10790 1f9a 01       		.uleb128 0x1
 10791 1f9b 58       		.byte	0x58
 10792 1f9c 9F       		.byte	0x9f
 10793 1f9d C3010000 		.quad	.LVL222
 10793      00000000 
 10794 1fa5 E4010000 		.quad	.LFE3017
 10794      00000000 
 10795 1fad 0100     		.word	0x1
 10796 1faf 5D       		.byte	0x5d
 10797 1fb0 00000000 		.quad	0
 10797      00000000 
 10798 1fb8 00000000 		.quad	0
 10798      00000000 
 10799              	.LLST111:
 10800 1fc0 00000000 		.quad	.LVL191
 10800      00000000 
 10801 1fc8 35000000 		.quad	.LVL195-1
 10801      00000000 
 10802 1fd0 0100     		.word	0x1
 10803 1fd2 59       		.byte	0x59
 10804 1fd3 35000000 		.quad	.LVL195-1
 10804      00000000 
 10805 1fdb C1010000 		.quad	.LVL221
 10805      00000000 
 10806 1fe3 0100     		.word	0x1
 10807 1fe5 5F       		.byte	0x5f
 10808 1fe6 C1010000 		.quad	.LVL221
 10808      00000000 
 10809 1fee C3010000 		.quad	.LVL222
 10809      00000000 
 10810 1ff6 0400     		.word	0x4
 10811 1ff8 F3       		.byte	0xf3
 10812 1ff9 01       		.uleb128 0x1
 10813 1ffa 59       		.byte	0x59
 10814 1ffb 9F       		.byte	0x9f
 10815 1ffc C3010000 		.quad	.LVL222
 10815      00000000 
 10816 2004 E4010000 		.quad	.LFE3017
 10816      00000000 
 10817 200c 0100     		.word	0x1
 10818 200e 5F       		.byte	0x5f
 10819 200f 00000000 		.quad	0
 10819      00000000 
 10820 2017 00000000 		.quad	0
 10820      00000000 
 10821              	.LLST112:
 10822 201f 8C000000 		.quad	.LVL200
 10822      00000000 
 10823 2027 B7010000 		.quad	.LVL216
 10823      00000000 
 10824 202f 0200     		.word	0x2
 10825 2031 73       		.byte	0x73
 10826 2032 00       		.sleb128 0
 10827 2033 C3010000 		.quad	.LVL222
 10827      00000000 
 10828 203b E4010000 		.quad	.LFE3017
 10828      00000000 
 10829 2043 0200     		.word	0x2
 10830 2045 73       		.byte	0x73
 10831 2046 00       		.sleb128 0
 10832 2047 00000000 		.quad	0
 10832      00000000 
 10833 204f 00000000 		.quad	0
 10833      00000000 
 10834              	.LLST113:
 10835 2057 31010000 		.quad	.LVL206
 10835      00000000 
 10836 205f 3D010000 		.quad	.LVL207
 10836      00000000 
 10837 2067 0100     		.word	0x1
 10838 2069 62       		.byte	0x62
 10839 206a 00000000 		.quad	0
 10839      00000000 
 10840 2072 00000000 		.quad	0
 10840      00000000 
 10841              	.LLST114:
 10842 207a 18000000 		.quad	.LVL192
 10842      00000000 
 10843 2082 20000000 		.quad	.LVL193
 10843      00000000 
 10844 208a 0400     		.word	0x4
 10845 208c 91       		.byte	0x91
 10846 208d A07F     		.sleb128 -96
 10847 208f 9F       		.byte	0x9f
 10848 2090 20000000 		.quad	.LVL193
 10848      00000000 
 10849 2098 BF010000 		.quad	.LVL220
 10849      00000000 
 10850 20a0 0100     		.word	0x1
 10851 20a2 5E       		.byte	0x5e
 10852 20a3 BF010000 		.quad	.LVL220
 10852      00000000 
 10853 20ab C3010000 		.quad	.LVL222
 10853      00000000 
 10854 20b3 0400     		.word	0x4
 10855 20b5 91       		.byte	0x91
 10856 20b6 A07F     		.sleb128 -96
 10857 20b8 9F       		.byte	0x9f
 10858 20b9 C3010000 		.quad	.LVL222
 10858      00000000 
 10859 20c1 E4010000 		.quad	.LFE3017
 10859      00000000 
 10860 20c9 0100     		.word	0x1
 10861 20cb 5E       		.byte	0x5e
 10862 20cc 00000000 		.quad	0
 10862      00000000 
 10863 20d4 00000000 		.quad	0
 10863      00000000 
 10864              	.LLST115:
 10865 20dc 36000000 		.quad	.LVL195
 10865      00000000 
 10866 20e4 BF010000 		.quad	.LVL220
 10866      00000000 
 10867 20ec 0100     		.word	0x1
 10868 20ee 5E       		.byte	0x5e
 10869 20ef BF010000 		.quad	.LVL220
 10869      00000000 
 10870 20f7 C3010000 		.quad	.LVL222
 10870      00000000 
 10871 20ff 0400     		.word	0x4
 10872 2101 91       		.byte	0x91
 10873 2102 A07F     		.sleb128 -96
 10874 2104 9F       		.byte	0x9f
 10875 2105 C3010000 		.quad	.LVL222
 10875      00000000 
 10876 210d E4010000 		.quad	.LFE3017
 10876      00000000 
 10877 2115 0100     		.word	0x1
 10878 2117 5E       		.byte	0x5e
 10879 2118 00000000 		.quad	0
 10879      00000000 
 10880 2120 00000000 		.quad	0
 10880      00000000 
 10881              	.LLST117:
 10882 2128 49000000 		.quad	.LVL196
 10882      00000000 
 10883 2130 BF010000 		.quad	.LVL220
 10883      00000000 
 10884 2138 0100     		.word	0x1
 10885 213a 5E       		.byte	0x5e
 10886 213b BF010000 		.quad	.LVL220
 10886      00000000 
 10887 2143 C3010000 		.quad	.LVL222
 10887      00000000 
 10888 214b 0400     		.word	0x4
 10889 214d 91       		.byte	0x91
 10890 214e A07F     		.sleb128 -96
 10891 2150 9F       		.byte	0x9f
 10892 2151 C3010000 		.quad	.LVL222
 10892      00000000 
 10893 2159 E4010000 		.quad	.LFE3017
 10893      00000000 
 10894 2161 0100     		.word	0x1
 10895 2163 5E       		.byte	0x5e
 10896 2164 00000000 		.quad	0
 10896      00000000 
 10897 216c 00000000 		.quad	0
 10897      00000000 
 10898              	.LLST118:
 10899 2174 61000000 		.quad	.LVL198
 10899      00000000 
 10900 217c BF010000 		.quad	.LVL220
 10900      00000000 
 10901 2184 0100     		.word	0x1
 10902 2186 5E       		.byte	0x5e
 10903 2187 BF010000 		.quad	.LVL220
 10903      00000000 
 10904 218f C3010000 		.quad	.LVL222
 10904      00000000 
 10905 2197 0400     		.word	0x4
 10906 2199 91       		.byte	0x91
 10907 219a A07F     		.sleb128 -96
 10908 219c 9F       		.byte	0x9f
 10909 219d C3010000 		.quad	.LVL222
 10909      00000000 
 10910 21a5 E4010000 		.quad	.LFE3017
 10910      00000000 
 10911 21ad 0100     		.word	0x1
 10912 21af 5E       		.byte	0x5e
 10913 21b0 00000000 		.quad	0
 10913      00000000 
 10914 21b8 00000000 		.quad	0
 10914      00000000 
 10915              	.LLST119:
 10916 21c0 A1000000 		.quad	.LVL201
 10916      00000000 
 10917 21c8 AD000000 		.quad	.LVL202
 10917      00000000 
 10918 21d0 0200     		.word	0x2
 10919 21d2 30       		.byte	0x30
 10920 21d3 9F       		.byte	0x9f
 10921 21d4 00000000 		.quad	0
 10921      00000000 
 10922 21dc 00000000 		.quad	0
 10922      00000000 
 10923              	.LLST120:
 10924 21e4 AD000000 		.quad	.LVL202
 10924      00000000 
 10925 21ec B7000000 		.quad	.LVL203
 10925      00000000 
 10926 21f4 0100     		.word	0x1
 10927 21f6 51       		.byte	0x51
 10928 21f7 B7000000 		.quad	.LVL203
 10928      00000000 
 10929 21ff C6000000 		.quad	.LVL204
 10929      00000000 
 10930 2207 0300     		.word	0x3
 10931 2209 71       		.byte	0x71
 10932 220a 7C       		.sleb128 -4
 10933 220b 9F       		.byte	0x9f
 10934 220c 00000000 		.quad	0
 10934      00000000 
 10935 2214 00000000 		.quad	0
 10935      00000000 
 10936              	.LLST121:
 10937 221c AD000000 		.quad	.LVL202
 10937      00000000 
 10938 2224 C6000000 		.quad	.LVL204
 10938      00000000 
 10939 222c 0600     		.word	0x6
 10940 222e F2       		.byte	0xf2
 10941 222f 341F0000 		.secrel32	.Ldebug_info0+7988
 10942 2233 00       		.sleb128 0
 10943 2234 00000000 		.quad	0
 10943      00000000 
 10944 223c 00000000 		.quad	0
 10944      00000000 
 10945              	.LLST122:
 10946 2244 C6000000 		.quad	.LVL204
 10946      00000000 
 10947 224c BF010000 		.quad	.LVL220
 10947      00000000 
 10948 2254 0100     		.word	0x1
 10949 2256 5E       		.byte	0x5e
 10950 2257 BF010000 		.quad	.LVL220
 10950      00000000 
 10951 225f C3010000 		.quad	.LVL222
 10951      00000000 
 10952 2267 0400     		.word	0x4
 10953 2269 91       		.byte	0x91
 10954 226a A07F     		.sleb128 -96
 10955 226c 9F       		.byte	0x9f
 10956 226d C3010000 		.quad	.LVL222
 10956      00000000 
 10957 2275 E4010000 		.quad	.LFE3017
 10957      00000000 
 10958 227d 0100     		.word	0x1
 10959 227f 5E       		.byte	0x5e
 10960 2280 00000000 		.quad	0
 10960      00000000 
 10961 2288 00000000 		.quad	0
 10961      00000000 
 10962              	.LLST123:
 10963 2290 D0000000 		.quad	.LVL205
 10963      00000000 
 10964 2298 BF010000 		.quad	.LVL220
 10964      00000000 
 10965 22a0 0100     		.word	0x1
 10966 22a2 5E       		.byte	0x5e
 10967 22a3 BF010000 		.quad	.LVL220
 10967      00000000 
 10968 22ab C3010000 		.quad	.LVL222
 10968      00000000 
 10969 22b3 0400     		.word	0x4
 10970 22b5 91       		.byte	0x91
 10971 22b6 A07F     		.sleb128 -96
 10972 22b8 9F       		.byte	0x9f
 10973 22b9 C3010000 		.quad	.LVL222
 10973      00000000 
 10974 22c1 E4010000 		.quad	.LFE3017
 10974      00000000 
 10975 22c9 0100     		.word	0x1
 10976 22cb 5E       		.byte	0x5e
 10977 22cc 00000000 		.quad	0
 10977      00000000 
 10978 22d4 00000000 		.quad	0
 10978      00000000 
 10979              	.LLST124:
 10980 22dc 58010000 		.quad	.LVL208
 10980      00000000 
 10981 22e4 64010000 		.quad	.LVL209
 10981      00000000 
 10982 22ec 0200     		.word	0x2
 10983 22ee 30       		.byte	0x30
 10984 22ef 9F       		.byte	0x9f
 10985 22f0 00000000 		.quad	0
 10985      00000000 
 10986 22f8 00000000 		.quad	0
 10986      00000000 
 10987              	.LLST125:
 10988 2300 58010000 		.quad	.LVL208
 10988      00000000 
 10989 2308 64010000 		.quad	.LVL209
 10989      00000000 
 10990 2310 0200     		.word	0x2
 10991 2312 30       		.byte	0x30
 10992 2313 9F       		.byte	0x9f
 10993 2314 64010000 		.quad	.LVL209
 10993      00000000 
 10994 231c 6D010000 		.quad	.LVL211
 10994      00000000 
 10995 2324 0100     		.word	0x1
 10996 2326 51       		.byte	0x51
 10997 2327 6D010000 		.quad	.LVL211
 10997      00000000 
 10998 232f 80010000 		.quad	.LVL213
 10998      00000000 
 10999 2337 0100     		.word	0x1
 11000 2339 52       		.byte	0x52
 11001 233a 00000000 		.quad	0
 11001      00000000 
 11002 2342 00000000 		.quad	0
 11002      00000000 
 11003              	.LLST126:
 11004 234a 6A010000 		.quad	.LVL210
 11004      00000000 
 11005 2352 80010000 		.quad	.LVL213
 11005      00000000 
 11006 235a 0100     		.word	0x1
 11007 235c 52       		.byte	0x52
 11008 235d 00000000 		.quad	0
 11008      00000000 
 11009 2365 00000000 		.quad	0
 11009      00000000 
 11010              	.LLST127:
 11011 236d 79010000 		.quad	.LVL212
 11011      00000000 
 11012 2375 80010000 		.quad	.LVL213
 11012      00000000 
 11013 237d 0200     		.word	0x2
 11014 237f 30       		.byte	0x30
 11015 2380 9F       		.byte	0x9f
 11016 2381 80010000 		.quad	.LVL213
 11016      00000000 
 11017 2389 B2010000 		.quad	.LVL215
 11017      00000000 
 11018 2391 0100     		.word	0x1
 11019 2393 50       		.byte	0x50
 11020 2394 00000000 		.quad	0
 11020      00000000 
 11021 239c 00000000 		.quad	0
 11021      00000000 
 11022              	.LLST128:
 11023 23a4 80010000 		.quad	.LVL213
 11023      00000000 
 11024 23ac A2010000 		.quad	.LVL214
 11024      00000000 
 11025 23b4 0800     		.word	0x8
 11026 23b6 70       		.byte	0x70
 11027 23b7 00       		.sleb128 0
 11028 23b8 32       		.byte	0x32
 11029 23b9 24       		.byte	0x24
 11030 23ba 74       		.byte	0x74
 11031 23bb 00       		.sleb128 0
 11032 23bc 22       		.byte	0x22
 11033 23bd 9F       		.byte	0x9f
 11034 23be A2010000 		.quad	.LVL214
 11034      00000000 
 11035 23c6 B2010000 		.quad	.LVL215
 11035      00000000 
 11036 23ce 0800     		.word	0x8
 11037 23d0 70       		.byte	0x70
 11038 23d1 7F       		.sleb128 -1
 11039 23d2 32       		.byte	0x32
 11040 23d3 24       		.byte	0x24
 11041 23d4 74       		.byte	0x74
 11042 23d5 00       		.sleb128 0
 11043 23d6 22       		.byte	0x22
 11044 23d7 9F       		.byte	0x9f
 11045 23d8 00000000 		.quad	0
 11045      00000000 
 11046 23e0 00000000 		.quad	0
 11046      00000000 
 11047              	.LLST129:
 11048 23e8 80010000 		.quad	.LVL213
 11048      00000000 
 11049 23f0 B2010000 		.quad	.LVL215
 11049      00000000 
 11050 23f8 0600     		.word	0x6
 11051 23fa F2       		.byte	0xf2
 11052 23fb 341F0000 		.secrel32	.Ldebug_info0+7988
 11053 23ff 00       		.sleb128 0
 11054 2400 00000000 		.quad	0
 11054      00000000 
 11055 2408 00000000 		.quad	0
 11055      00000000 
 11056              	.LLST130:
 11057 2410 6C000000 		.quad	.LVL225
 11057      00000000 
 11058 2418 70000000 		.quad	.LVL226-1
 11058      00000000 
 11059 2420 0100     		.word	0x1
 11060 2422 50       		.byte	0x50
 11061 2423 70000000 		.quad	.LVL226-1
 11061      00000000 
 11062 242b 470C0000 		.quad	.LVL330
 11062      00000000 
 11063 2433 0100     		.word	0x1
 11064 2435 5D       		.byte	0x5d
 11065 2436 4C0C0000 		.quad	.LVL331
 11065      00000000 
 11066 243e CE0D0000 		.quad	.LFE3006
 11066      00000000 
 11067 2446 0100     		.word	0x1
 11068 2448 5D       		.byte	0x5d
 11069 2449 00000000 		.quad	0
 11069      00000000 
 11070 2451 00000000 		.quad	0
 11070      00000000 
 11071              	.LLST131:
 11072 2459 7C000000 		.quad	.LVL227
 11072      00000000 
 11073 2461 84000000 		.quad	.LVL228-1
 11073      00000000 
 11074 2469 0100     		.word	0x1
 11075 246b 50       		.byte	0x50
 11076 246c 84000000 		.quad	.LVL228-1
 11076      00000000 
 11077 2474 430C0000 		.quad	.LVL328
 11077      00000000 
 11078 247c 0100     		.word	0x1
 11079 247e 56       		.byte	0x56
 11080 247f 4C0C0000 		.quad	.LVL331
 11080      00000000 
 11081 2487 CE0D0000 		.quad	.LFE3006
 11081      00000000 
 11082 248f 0100     		.word	0x1
 11083 2491 56       		.byte	0x56
 11084 2492 00000000 		.quad	0
 11084      00000000 
 11085 249a 00000000 		.quad	0
 11085      00000000 
 11086              	.LLST132:
 11087 24a2 91000000 		.quad	.LVL229
 11087      00000000 
 11088 24aa 98000000 		.quad	.LVL230-1
 11088      00000000 
 11089 24b2 0100     		.word	0x1
 11090 24b4 50       		.byte	0x50
 11091 24b5 98000000 		.quad	.LVL230-1
 11091      00000000 
 11092 24bd 420C0000 		.quad	.LVL327
 11092      00000000 
 11093 24c5 0100     		.word	0x1
 11094 24c7 55       		.byte	0x55
 11095 24c8 4C0C0000 		.quad	.LVL331
 11095      00000000 
 11096 24d0 CE0D0000 		.quad	.LFE3006
 11096      00000000 
 11097 24d8 0100     		.word	0x1
 11098 24da 55       		.byte	0x55
 11099 24db 00000000 		.quad	0
 11099      00000000 
 11100 24e3 00000000 		.quad	0
 11100      00000000 
 11101              	.LLST133:
 11102 24eb A0000000 		.quad	.LVL231
 11102      00000000 
 11103 24f3 A5000000 		.quad	.LVL232-1
 11103      00000000 
 11104 24fb 0100     		.word	0x1
 11105 24fd 50       		.byte	0x50
 11106 24fe A5000000 		.quad	.LVL232-1
 11106      00000000 
 11107 2506 450C0000 		.quad	.LVL329
 11107      00000000 
 11108 250e 0100     		.word	0x1
 11109 2510 5C       		.byte	0x5c
 11110 2511 4C0C0000 		.quad	.LVL331
 11110      00000000 
 11111 2519 CE0D0000 		.quad	.LFE3006
 11111      00000000 
 11112 2521 0100     		.word	0x1
 11113 2523 5C       		.byte	0x5c
 11114 2524 00000000 		.quad	0
 11114      00000000 
 11115 252c 00000000 		.quad	0
 11115      00000000 
 11116              	.LLST134:
 11117 2534 5A020000 		.quad	.LVL247
 11117      00000000 
 11118 253c BB020000 		.quad	.LVL249
 11118      00000000 
 11119 2544 0100     		.word	0x1
 11120 2546 6E       		.byte	0x6e
 11121 2547 48040000 		.quad	.LVL262
 11121      00000000 
 11122 254f 97040000 		.quad	.LVL264
 11122      00000000 
 11123 2557 0100     		.word	0x1
 11124 2559 6E       		.byte	0x6e
 11125 255a 1A060000 		.quad	.LVL277
 11125      00000000 
 11126 2562 69060000 		.quad	.LVL279
 11126      00000000 
 11127 256a 0100     		.word	0x1
 11128 256c 6E       		.byte	0x6e
 11129 256d EC070000 		.quad	.LVL292
 11129      00000000 
 11130 2575 3B080000 		.quad	.LVL294
 11130      00000000 
 11131 257d 0100     		.word	0x1
 11132 257f 6E       		.byte	0x6e
 11133 2580 C8090000 		.quad	.LVL307
 11133      00000000 
 11134 2588 170A0000 		.quad	.LVL309
 11134      00000000 
 11135 2590 0100     		.word	0x1
 11136 2592 6E       		.byte	0x6e
 11137 2593 950B0000 		.quad	.LVL322
 11137      00000000 
 11138 259b E00B0000 		.quad	.LVL324
 11138      00000000 
 11139 25a3 0100     		.word	0x1
 11140 25a5 69       		.byte	0x69
 11141 25a6 00000000 		.quad	0
 11141      00000000 
 11142 25ae 00000000 		.quad	0
 11142      00000000 
 11143              	.LLST135:
 11144 25b6 A0000000 		.quad	.LVL231
 11144      00000000 
 11145 25be 400C0000 		.quad	.LVL326
 11145      00000000 
 11146 25c6 0100     		.word	0x1
 11147 25c8 53       		.byte	0x53
 11148 25c9 400C0000 		.quad	.LVL326
 11148      00000000 
 11149 25d1 4C0C0000 		.quad	.LVL331
 11149      00000000 
 11150 25d9 0400     		.word	0x4
 11151 25db 91       		.byte	0x91
 11152 25dc 907E     		.sleb128 -240
 11153 25de 9F       		.byte	0x9f
 11154 25df 4C0C0000 		.quad	.LVL331
 11154      00000000 
 11155 25e7 CE0D0000 		.quad	.LFE3006
 11155      00000000 
 11156 25ef 0100     		.word	0x1
 11157 25f1 53       		.byte	0x53
 11158 25f2 00000000 		.quad	0
 11158      00000000 
 11159 25fa 00000000 		.quad	0
 11159      00000000 
 11160              	.LLST136:
 11161 2602 A6000000 		.quad	.LVL232
 11161      00000000 
 11162 260a 400C0000 		.quad	.LVL326
 11162      00000000 
 11163 2612 0100     		.word	0x1
 11164 2614 53       		.byte	0x53
 11165 2615 400C0000 		.quad	.LVL326
 11165      00000000 
 11166 261d 4C0C0000 		.quad	.LVL331
 11166      00000000 
 11167 2625 0400     		.word	0x4
 11168 2627 91       		.byte	0x91
 11169 2628 907E     		.sleb128 -240
 11170 262a 9F       		.byte	0x9f
 11171 262b 4C0C0000 		.quad	.LVL331
 11171      00000000 
 11172 2633 CE0D0000 		.quad	.LFE3006
 11172      00000000 
 11173 263b 0100     		.word	0x1
 11174 263d 53       		.byte	0x53
 11175 263e 00000000 		.quad	0
 11175      00000000 
 11176 2646 00000000 		.quad	0
 11176      00000000 
 11177              	.LLST138:
 11178 264e B2000000 		.quad	.LVL233
 11178      00000000 
 11179 2656 400C0000 		.quad	.LVL326
 11179      00000000 
 11180 265e 0100     		.word	0x1
 11181 2660 53       		.byte	0x53
 11182 2661 400C0000 		.quad	.LVL326
 11182      00000000 
 11183 2669 4C0C0000 		.quad	.LVL331
 11183      00000000 
 11184 2671 0400     		.word	0x4
 11185 2673 91       		.byte	0x91
 11186 2674 907E     		.sleb128 -240
 11187 2676 9F       		.byte	0x9f
 11188 2677 4C0C0000 		.quad	.LVL331
 11188      00000000 
 11189 267f CE0D0000 		.quad	.LFE3006
 11189      00000000 
 11190 2687 0100     		.word	0x1
 11191 2689 53       		.byte	0x53
 11192 268a 00000000 		.quad	0
 11192      00000000 
 11193 2692 00000000 		.quad	0
 11193      00000000 
 11194              	.LLST139:
 11195 269a CB000000 		.quad	.LVL235
 11195      00000000 
 11196 26a2 DD000000 		.quad	.LVL236
 11196      00000000 
 11197 26aa 0200     		.word	0x2
 11198 26ac 30       		.byte	0x30
 11199 26ad 9F       		.byte	0x9f
 11200 26ae DD000000 		.quad	.LVL236
 11200      00000000 
 11201 26b6 EF000000 		.quad	.LVL237
 11201      00000000 
 11202 26be 0200     		.word	0x2
 11203 26c0 31       		.byte	0x31
 11204 26c1 9F       		.byte	0x9f
 11205 26c2 EF000000 		.quad	.LVL237
 11205      00000000 
 11206 26ca FD000000 		.quad	.LVL238
 11206      00000000 
 11207 26d2 0200     		.word	0x2
 11208 26d4 32       		.byte	0x32
 11209 26d5 9F       		.byte	0x9f
 11210 26d6 FD000000 		.quad	.LVL238
 11210      00000000 
 11211 26de 09010000 		.quad	.LVL239
 11211      00000000 
 11212 26e6 0200     		.word	0x2
 11213 26e8 33       		.byte	0x33
 11214 26e9 9F       		.byte	0x9f
 11215 26ea AA010000 		.quad	.LVL240
 11215      00000000 
 11216 26f2 BD010000 		.quad	.LVL241
 11216      00000000 
 11217 26fa 0100     		.word	0x1
 11218 26fc 50       		.byte	0x50
 11219 26fd BD010000 		.quad	.LVL241
 11219      00000000 
 11220 2705 D2010000 		.quad	.LVL242
 11220      00000000 
 11221 270d 0100     		.word	0x1
 11222 270f 51       		.byte	0x51
 11223 2710 4C0C0000 		.quad	.LVL331
 11223      00000000 
 11224 2718 6B0C0000 		.quad	.LVL332
 11224      00000000 
 11225 2720 0200     		.word	0x2
 11226 2722 30       		.byte	0x30
 11227 2723 9F       		.byte	0x9f
 11228 2724 580D0000 		.quad	.LVL342
 11228      00000000 
 11229 272c 690D0000 		.quad	.LVL343
 11229      00000000 
 11230 2734 0200     		.word	0x2
 11231 2736 31       		.byte	0x31
 11232 2737 9F       		.byte	0x9f
 11233 2738 690D0000 		.quad	.LVL343
 11233      00000000 
 11234 2740 7A0D0000 		.quad	.LVL344
 11234      00000000 
 11235 2748 0200     		.word	0x2
 11236 274a 32       		.byte	0x32
 11237 274b 9F       		.byte	0x9f
 11238 274c 00000000 		.quad	0
 11238      00000000 
 11239 2754 00000000 		.quad	0
 11239      00000000 
 11240              	.LLST140:
 11241 275c DF010000 		.quad	.LVL243
 11241      00000000 
 11242 2764 400C0000 		.quad	.LVL326
 11242      00000000 
 11243 276c 0100     		.word	0x1
 11244 276e 53       		.byte	0x53
 11245 276f 400C0000 		.quad	.LVL326
 11245      00000000 
 11246 2777 4C0C0000 		.quad	.LVL331
 11246      00000000 
 11247 277f 0400     		.word	0x4
 11248 2781 91       		.byte	0x91
 11249 2782 907E     		.sleb128 -240
 11250 2784 9F       		.byte	0x9f
 11251 2785 6B0C0000 		.quad	.LVL332
 11251      00000000 
 11252 278d 580D0000 		.quad	.LVL342
 11252      00000000 
 11253 2795 0100     		.word	0x1
 11254 2797 53       		.byte	0x53
 11255 2798 7A0D0000 		.quad	.LVL344
 11255      00000000 
 11256 27a0 CE0D0000 		.quad	.LFE3006
 11256      00000000 
 11257 27a8 0100     		.word	0x1
 11258 27aa 53       		.byte	0x53
 11259 27ab 00000000 		.quad	0
 11259      00000000 
 11260 27b3 00000000 		.quad	0
 11260      00000000 
 11261              	.LLST141:
 11262 27bb FE010000 		.quad	.LVL245
 11262      00000000 
 11263 27c3 400C0000 		.quad	.LVL326
 11263      00000000 
 11264 27cb 0100     		.word	0x1
 11265 27cd 53       		.byte	0x53
 11266 27ce 400C0000 		.quad	.LVL326
 11266      00000000 
 11267 27d6 4C0C0000 		.quad	.LVL331
 11267      00000000 
 11268 27de 0400     		.word	0x4
 11269 27e0 91       		.byte	0x91
 11270 27e1 907E     		.sleb128 -240
 11271 27e3 9F       		.byte	0x9f
 11272 27e4 6B0C0000 		.quad	.LVL332
 11272      00000000 
 11273 27ec 580D0000 		.quad	.LVL342
 11273      00000000 
 11274 27f4 0100     		.word	0x1
 11275 27f6 53       		.byte	0x53
 11276 27f7 7A0D0000 		.quad	.LVL344
 11276      00000000 
 11277 27ff CE0D0000 		.quad	.LFE3006
 11277      00000000 
 11278 2807 0100     		.word	0x1
 11279 2809 53       		.byte	0x53
 11280 280a 00000000 		.quad	0
 11280      00000000 
 11281 2812 00000000 		.quad	0
 11281      00000000 
 11282              	.LLST142:
 11283 281a 04020000 		.quad	.LVL246
 11283      00000000 
 11284 2822 400C0000 		.quad	.LVL326
 11284      00000000 
 11285 282a 0100     		.word	0x1
 11286 282c 53       		.byte	0x53
 11287 282d 400C0000 		.quad	.LVL326
 11287      00000000 
 11288 2835 4C0C0000 		.quad	.LVL331
 11288      00000000 
 11289 283d 0400     		.word	0x4
 11290 283f 91       		.byte	0x91
 11291 2840 907E     		.sleb128 -240
 11292 2842 9F       		.byte	0x9f
 11293 2843 6B0C0000 		.quad	.LVL332
 11293      00000000 
 11294 284b 580D0000 		.quad	.LVL342
 11294      00000000 
 11295 2853 0100     		.word	0x1
 11296 2855 53       		.byte	0x53
 11297 2856 7A0D0000 		.quad	.LVL344
 11297      00000000 
 11298 285e CE0D0000 		.quad	.LFE3006
 11298      00000000 
 11299 2866 0100     		.word	0x1
 11300 2868 53       		.byte	0x53
 11301 2869 00000000 		.quad	0
 11301      00000000 
 11302 2871 00000000 		.quad	0
 11302      00000000 
 11303              	.LLST143:
 11304 2879 5F020000 		.quad	.LVL248
 11304      00000000 
 11305 2881 400C0000 		.quad	.LVL326
 11305      00000000 
 11306 2889 0100     		.word	0x1
 11307 288b 53       		.byte	0x53
 11308 288c 400C0000 		.quad	.LVL326
 11308      00000000 
 11309 2894 4C0C0000 		.quad	.LVL331
 11309      00000000 
 11310 289c 0400     		.word	0x4
 11311 289e 91       		.byte	0x91
 11312 289f 907E     		.sleb128 -240
 11313 28a1 9F       		.byte	0x9f
 11314 28a2 6B0C0000 		.quad	.LVL332
 11314      00000000 
 11315 28aa 580D0000 		.quad	.LVL342
 11315      00000000 
 11316 28b2 0100     		.word	0x1
 11317 28b4 53       		.byte	0x53
 11318 28b5 7A0D0000 		.quad	.LVL344
 11318      00000000 
 11319 28bd CE0D0000 		.quad	.LFE3006
 11319      00000000 
 11320 28c5 0100     		.word	0x1
 11321 28c7 53       		.byte	0x53
 11322 28c8 00000000 		.quad	0
 11322      00000000 
 11323 28d0 00000000 		.quad	0
 11323      00000000 
 11324              	.LLST144:
 11325 28d8 D3020000 		.quad	.LVL250
 11325      00000000 
 11326 28e0 E8020000 		.quad	.LVL251
 11326      00000000 
 11327 28e8 0200     		.word	0x2
 11328 28ea 30       		.byte	0x30
 11329 28eb 9F       		.byte	0x9f
 11330 28ec E8020000 		.quad	.LVL251
 11330      00000000 
 11331 28f4 FA020000 		.quad	.LVL252
 11331      00000000 
 11332 28fc 0200     		.word	0x2
 11333 28fe 31       		.byte	0x31
 11334 28ff 9F       		.byte	0x9f
 11335 2900 FA020000 		.quad	.LVL252
 11335      00000000 
 11336 2908 08030000 		.quad	.LVL253
 11336      00000000 
 11337 2910 0200     		.word	0x2
 11338 2912 32       		.byte	0x32
 11339 2913 9F       		.byte	0x9f
 11340 2914 08030000 		.quad	.LVL253
 11340      00000000 
 11341 291c 14030000 		.quad	.LVL254
 11341      00000000 
 11342 2924 0200     		.word	0x2
 11343 2926 33       		.byte	0x33
 11344 2927 9F       		.byte	0x9f
 11345 2928 A8030000 		.quad	.LVL255
 11345      00000000 
 11346 2930 BB030000 		.quad	.LVL256
 11346      00000000 
 11347 2938 0100     		.word	0x1
 11348 293a 50       		.byte	0x50
 11349 293b BB030000 		.quad	.LVL256
 11349      00000000 
 11350 2943 D1030000 		.quad	.LVL257
 11350      00000000 
 11351 294b 0100     		.word	0x1
 11352 294d 52       		.byte	0x52
 11353 294e E50C0000 		.quad	.LVL336
 11353      00000000 
 11354 2956 040D0000 		.quad	.LVL337
 11354      00000000 
 11355 295e 0200     		.word	0x2
 11356 2960 30       		.byte	0x30
 11357 2961 9F       		.byte	0x9f
 11358 2962 7A0D0000 		.quad	.LVL344
 11358      00000000 
 11359 296a 8B0D0000 		.quad	.LVL345
 11359      00000000 
 11360 2972 0200     		.word	0x2
 11361 2974 31       		.byte	0x31
 11362 2975 9F       		.byte	0x9f
 11363 2976 8B0D0000 		.quad	.LVL345
 11363      00000000 
 11364 297e 9C0D0000 		.quad	.LVL346
 11364      00000000 
 11365 2986 0200     		.word	0x2
 11366 2988 32       		.byte	0x32
 11367 2989 9F       		.byte	0x9f
 11368 298a 00000000 		.quad	0
 11368      00000000 
 11369 2992 00000000 		.quad	0
 11369      00000000 
 11370              	.LLST145:
 11371 299a DE030000 		.quad	.LVL258
 11371      00000000 
 11372 29a2 400C0000 		.quad	.LVL326
 11372      00000000 
 11373 29aa 0100     		.word	0x1
 11374 29ac 53       		.byte	0x53
 11375 29ad 400C0000 		.quad	.LVL326
 11375      00000000 
 11376 29b5 4C0C0000 		.quad	.LVL331
 11376      00000000 
 11377 29bd 0400     		.word	0x4
 11378 29bf 91       		.byte	0x91
 11379 29c0 907E     		.sleb128 -240
 11380 29c2 9F       		.byte	0x9f
 11381 29c3 6B0C0000 		.quad	.LVL332
 11381      00000000 
 11382 29cb E50C0000 		.quad	.LVL336
 11382      00000000 
 11383 29d3 0100     		.word	0x1
 11384 29d5 53       		.byte	0x53
 11385 29d6 040D0000 		.quad	.LVL337
 11385      00000000 
 11386 29de 580D0000 		.quad	.LVL342
 11386      00000000 
 11387 29e6 0100     		.word	0x1
 11388 29e8 53       		.byte	0x53
 11389 29e9 9C0D0000 		.quad	.LVL346
 11389      00000000 
 11390 29f1 CE0D0000 		.quad	.LFE3006
 11390      00000000 
 11391 29f9 0100     		.word	0x1
 11392 29fb 53       		.byte	0x53
 11393 29fc 00000000 		.quad	0
 11393      00000000 
 11394 2a04 00000000 		.quad	0
 11394      00000000 
 11395              	.LLST146:
 11396 2a0c 02040000 		.quad	.LVL260
 11396      00000000 
 11397 2a14 400C0000 		.quad	.LVL326
 11397      00000000 
 11398 2a1c 0100     		.word	0x1
 11399 2a1e 53       		.byte	0x53
 11400 2a1f 400C0000 		.quad	.LVL326
 11400      00000000 
 11401 2a27 4C0C0000 		.quad	.LVL331
 11401      00000000 
 11402 2a2f 0400     		.word	0x4
 11403 2a31 91       		.byte	0x91
 11404 2a32 907E     		.sleb128 -240
 11405 2a34 9F       		.byte	0x9f
 11406 2a35 6B0C0000 		.quad	.LVL332
 11406      00000000 
 11407 2a3d E50C0000 		.quad	.LVL336
 11407      00000000 
 11408 2a45 0100     		.word	0x1
 11409 2a47 53       		.byte	0x53
 11410 2a48 040D0000 		.quad	.LVL337
 11410      00000000 
 11411 2a50 580D0000 		.quad	.LVL342
 11411      00000000 
 11412 2a58 0100     		.word	0x1
 11413 2a5a 53       		.byte	0x53
 11414 2a5b 9C0D0000 		.quad	.LVL346
 11414      00000000 
 11415 2a63 CE0D0000 		.quad	.LFE3006
 11415      00000000 
 11416 2a6b 0100     		.word	0x1
 11417 2a6d 53       		.byte	0x53
 11418 2a6e 00000000 		.quad	0
 11418      00000000 
 11419 2a76 00000000 		.quad	0
 11419      00000000 
 11420              	.LLST147:
 11421 2a7e 08040000 		.quad	.LVL261
 11421      00000000 
 11422 2a86 400C0000 		.quad	.LVL326
 11422      00000000 
 11423 2a8e 0100     		.word	0x1
 11424 2a90 53       		.byte	0x53
 11425 2a91 400C0000 		.quad	.LVL326
 11425      00000000 
 11426 2a99 4C0C0000 		.quad	.LVL331
 11426      00000000 
 11427 2aa1 0400     		.word	0x4
 11428 2aa3 91       		.byte	0x91
 11429 2aa4 907E     		.sleb128 -240
 11430 2aa6 9F       		.byte	0x9f
 11431 2aa7 6B0C0000 		.quad	.LVL332
 11431      00000000 
 11432 2aaf E50C0000 		.quad	.LVL336
 11432      00000000 
 11433 2ab7 0100     		.word	0x1
 11434 2ab9 53       		.byte	0x53
 11435 2aba 040D0000 		.quad	.LVL337
 11435      00000000 
 11436 2ac2 580D0000 		.quad	.LVL342
 11436      00000000 
 11437 2aca 0100     		.word	0x1
 11438 2acc 53       		.byte	0x53
 11439 2acd 9C0D0000 		.quad	.LVL346
 11439      00000000 
 11440 2ad5 CE0D0000 		.quad	.LFE3006
 11440      00000000 
 11441 2add 0100     		.word	0x1
 11442 2adf 53       		.byte	0x53
 11443 2ae0 00000000 		.quad	0
 11443      00000000 
 11444 2ae8 00000000 		.quad	0
 11444      00000000 
 11445              	.LLST148:
 11446 2af0 4D040000 		.quad	.LVL263
 11446      00000000 
 11447 2af8 400C0000 		.quad	.LVL326
 11447      00000000 
 11448 2b00 0100     		.word	0x1
 11449 2b02 53       		.byte	0x53
 11450 2b03 400C0000 		.quad	.LVL326
 11450      00000000 
 11451 2b0b 4C0C0000 		.quad	.LVL331
 11451      00000000 
 11452 2b13 0400     		.word	0x4
 11453 2b15 91       		.byte	0x91
 11454 2b16 907E     		.sleb128 -240
 11455 2b18 9F       		.byte	0x9f
 11456 2b19 6B0C0000 		.quad	.LVL332
 11456      00000000 
 11457 2b21 E50C0000 		.quad	.LVL336
 11457      00000000 
 11458 2b29 0100     		.word	0x1
 11459 2b2b 53       		.byte	0x53
 11460 2b2c 040D0000 		.quad	.LVL337
 11460      00000000 
 11461 2b34 580D0000 		.quad	.LVL342
 11461      00000000 
 11462 2b3c 0100     		.word	0x1
 11463 2b3e 53       		.byte	0x53
 11464 2b3f 9C0D0000 		.quad	.LVL346
 11464      00000000 
 11465 2b47 CE0D0000 		.quad	.LFE3006
 11465      00000000 
 11466 2b4f 0100     		.word	0x1
 11467 2b51 53       		.byte	0x53
 11468 2b52 00000000 		.quad	0
 11468      00000000 
 11469 2b5a 00000000 		.quad	0
 11469      00000000 
 11470              	.LLST149:
 11471 2b62 AF040000 		.quad	.LVL265
 11471      00000000 
 11472 2b6a C4040000 		.quad	.LVL266
 11472      00000000 
 11473 2b72 0200     		.word	0x2
 11474 2b74 30       		.byte	0x30
 11475 2b75 9F       		.byte	0x9f
 11476 2b76 C4040000 		.quad	.LVL266
 11476      00000000 
 11477 2b7e D6040000 		.quad	.LVL267
 11477      00000000 
 11478 2b86 0200     		.word	0x2
 11479 2b88 31       		.byte	0x31
 11480 2b89 9F       		.byte	0x9f
 11481 2b8a D6040000 		.quad	.LVL267
 11481      00000000 
 11482 2b92 E4040000 		.quad	.LVL268
 11482      00000000 
 11483 2b9a 0200     		.word	0x2
 11484 2b9c 32       		.byte	0x32
 11485 2b9d 9F       		.byte	0x9f
 11486 2b9e E4040000 		.quad	.LVL268
 11486      00000000 
 11487 2ba6 F0040000 		.quad	.LVL269
 11487      00000000 
 11488 2bae 0200     		.word	0x2
 11489 2bb0 33       		.byte	0x33
 11490 2bb1 9F       		.byte	0x9f
 11491 2bb2 7A050000 		.quad	.LVL270
 11491      00000000 
 11492 2bba 8D050000 		.quad	.LVL271
 11492      00000000 
 11493 2bc2 0100     		.word	0x1
 11494 2bc4 50       		.byte	0x50
 11495 2bc5 8D050000 		.quad	.LVL271
 11495      00000000 
 11496 2bcd A3050000 		.quad	.LVL272
 11496      00000000 
 11497 2bd5 0100     		.word	0x1
 11498 2bd7 52       		.byte	0x52
 11499 2bd8 C60C0000 		.quad	.LVL335
 11499      00000000 
 11500 2be0 E50C0000 		.quad	.LVL336
 11500      00000000 
 11501 2be8 0200     		.word	0x2
 11502 2bea 30       		.byte	0x30
 11503 2beb 9F       		.byte	0x9f
 11504 2bec 140D0000 		.quad	.LVL338
 11504      00000000 
 11505 2bf4 250D0000 		.quad	.LVL339
 11505      00000000 
 11506 2bfc 0200     		.word	0x2
 11507 2bfe 31       		.byte	0x31
 11508 2bff 9F       		.byte	0x9f
 11509 2c00 250D0000 		.quad	.LVL339
 11509      00000000 
 11510 2c08 360D0000 		.quad	.LVL340
 11510      00000000 
 11511 2c10 0200     		.word	0x2
 11512 2c12 32       		.byte	0x32
 11513 2c13 9F       		.byte	0x9f
 11514 2c14 00000000 		.quad	0
 11514      00000000 
 11515 2c1c 00000000 		.quad	0
 11515      00000000 
 11516              	.LLST150:
 11517 2c24 B0050000 		.quad	.LVL273
 11517      00000000 
 11518 2c2c 400C0000 		.quad	.LVL326
 11518      00000000 
 11519 2c34 0100     		.word	0x1
 11520 2c36 53       		.byte	0x53
 11521 2c37 400C0000 		.quad	.LVL326
 11521      00000000 
 11522 2c3f 4C0C0000 		.quad	.LVL331
 11522      00000000 
 11523 2c47 0400     		.word	0x4
 11524 2c49 91       		.byte	0x91
 11525 2c4a 907E     		.sleb128 -240
 11526 2c4c 9F       		.byte	0x9f
 11527 2c4d 6B0C0000 		.quad	.LVL332
 11527      00000000 
 11528 2c55 C60C0000 		.quad	.LVL335
 11528      00000000 
 11529 2c5d 0100     		.word	0x1
 11530 2c5f 53       		.byte	0x53
 11531 2c60 040D0000 		.quad	.LVL337
 11531      00000000 
 11532 2c68 140D0000 		.quad	.LVL338
 11532      00000000 
 11533 2c70 0100     		.word	0x1
 11534 2c72 53       		.byte	0x53
 11535 2c73 360D0000 		.quad	.LVL340
 11535      00000000 
 11536 2c7b 580D0000 		.quad	.LVL342
 11536      00000000 
 11537 2c83 0100     		.word	0x1
 11538 2c85 53       		.byte	0x53
 11539 2c86 9C0D0000 		.quad	.LVL346
 11539      00000000 
 11540 2c8e CE0D0000 		.quad	.LFE3006
 11540      00000000 
 11541 2c96 0100     		.word	0x1
 11542 2c98 53       		.byte	0x53
 11543 2c99 00000000 		.quad	0
 11543      00000000 
 11544 2ca1 00000000 		.quad	0
 11544      00000000 
 11545              	.LLST151:
 11546 2ca9 D4050000 		.quad	.LVL275
 11546      00000000 
 11547 2cb1 400C0000 		.quad	.LVL326
 11547      00000000 
 11548 2cb9 0100     		.word	0x1
 11549 2cbb 53       		.byte	0x53
 11550 2cbc 400C0000 		.quad	.LVL326
 11550      00000000 
 11551 2cc4 4C0C0000 		.quad	.LVL331
 11551      00000000 
 11552 2ccc 0400     		.word	0x4
 11553 2cce 91       		.byte	0x91
 11554 2ccf 907E     		.sleb128 -240
 11555 2cd1 9F       		.byte	0x9f
 11556 2cd2 6B0C0000 		.quad	.LVL332
 11556      00000000 
 11557 2cda C60C0000 		.quad	.LVL335
 11557      00000000 
 11558 2ce2 0100     		.word	0x1
 11559 2ce4 53       		.byte	0x53
 11560 2ce5 040D0000 		.quad	.LVL337
 11560      00000000 
 11561 2ced 140D0000 		.quad	.LVL338
 11561      00000000 
 11562 2cf5 0100     		.word	0x1
 11563 2cf7 53       		.byte	0x53
 11564 2cf8 360D0000 		.quad	.LVL340
 11564      00000000 
 11565 2d00 580D0000 		.quad	.LVL342
 11565      00000000 
 11566 2d08 0100     		.word	0x1
 11567 2d0a 53       		.byte	0x53
 11568 2d0b 9C0D0000 		.quad	.LVL346
 11568      00000000 
 11569 2d13 CE0D0000 		.quad	.LFE3006
 11569      00000000 
 11570 2d1b 0100     		.word	0x1
 11571 2d1d 53       		.byte	0x53
 11572 2d1e 00000000 		.quad	0
 11572      00000000 
 11573 2d26 00000000 		.quad	0
 11573      00000000 
 11574              	.LLST152:
 11575 2d2e DA050000 		.quad	.LVL276
 11575      00000000 
 11576 2d36 400C0000 		.quad	.LVL326
 11576      00000000 
 11577 2d3e 0100     		.word	0x1
 11578 2d40 53       		.byte	0x53
 11579 2d41 400C0000 		.quad	.LVL326
 11579      00000000 
 11580 2d49 4C0C0000 		.quad	.LVL331
 11580      00000000 
 11581 2d51 0400     		.word	0x4
 11582 2d53 91       		.byte	0x91
 11583 2d54 907E     		.sleb128 -240
 11584 2d56 9F       		.byte	0x9f
 11585 2d57 6B0C0000 		.quad	.LVL332
 11585      00000000 
 11586 2d5f C60C0000 		.quad	.LVL335
 11586      00000000 
 11587 2d67 0100     		.word	0x1
 11588 2d69 53       		.byte	0x53
 11589 2d6a 040D0000 		.quad	.LVL337
 11589      00000000 
 11590 2d72 140D0000 		.quad	.LVL338
 11590      00000000 
 11591 2d7a 0100     		.word	0x1
 11592 2d7c 53       		.byte	0x53
 11593 2d7d 360D0000 		.quad	.LVL340
 11593      00000000 
 11594 2d85 580D0000 		.quad	.LVL342
 11594      00000000 
 11595 2d8d 0100     		.word	0x1
 11596 2d8f 53       		.byte	0x53
 11597 2d90 9C0D0000 		.quad	.LVL346
 11597      00000000 
 11598 2d98 CE0D0000 		.quad	.LFE3006
 11598      00000000 
 11599 2da0 0100     		.word	0x1
 11600 2da2 53       		.byte	0x53
 11601 2da3 00000000 		.quad	0
 11601      00000000 
 11602 2dab 00000000 		.quad	0
 11602      00000000 
 11603              	.LLST153:
 11604 2db3 1F060000 		.quad	.LVL278
 11604      00000000 
 11605 2dbb 400C0000 		.quad	.LVL326
 11605      00000000 
 11606 2dc3 0100     		.word	0x1
 11607 2dc5 53       		.byte	0x53
 11608 2dc6 400C0000 		.quad	.LVL326
 11608      00000000 
 11609 2dce 4C0C0000 		.quad	.LVL331
 11609      00000000 
 11610 2dd6 0400     		.word	0x4
 11611 2dd8 91       		.byte	0x91
 11612 2dd9 907E     		.sleb128 -240
 11613 2ddb 9F       		.byte	0x9f
 11614 2ddc 6B0C0000 		.quad	.LVL332
 11614      00000000 
 11615 2de4 C60C0000 		.quad	.LVL335
 11615      00000000 
 11616 2dec 0100     		.word	0x1
 11617 2dee 53       		.byte	0x53
 11618 2def 040D0000 		.quad	.LVL337
 11618      00000000 
 11619 2df7 140D0000 		.quad	.LVL338
 11619      00000000 
 11620 2dff 0100     		.word	0x1
 11621 2e01 53       		.byte	0x53
 11622 2e02 360D0000 		.quad	.LVL340
 11622      00000000 
 11623 2e0a 580D0000 		.quad	.LVL342
 11623      00000000 
 11624 2e12 0100     		.word	0x1
 11625 2e14 53       		.byte	0x53
 11626 2e15 9C0D0000 		.quad	.LVL346
 11626      00000000 
 11627 2e1d CE0D0000 		.quad	.LFE3006
 11627      00000000 
 11628 2e25 0100     		.word	0x1
 11629 2e27 53       		.byte	0x53
 11630 2e28 00000000 		.quad	0
 11630      00000000 
 11631 2e30 00000000 		.quad	0
 11631      00000000 
 11632              	.LLST154:
 11633 2e38 81060000 		.quad	.LVL280
 11633      00000000 
 11634 2e40 96060000 		.quad	.LVL281
 11634      00000000 
 11635 2e48 0200     		.word	0x2
 11636 2e4a 30       		.byte	0x30
 11637 2e4b 9F       		.byte	0x9f
 11638 2e4c 96060000 		.quad	.LVL281
 11638      00000000 
 11639 2e54 A8060000 		.quad	.LVL282
 11639      00000000 
 11640 2e5c 0200     		.word	0x2
 11641 2e5e 31       		.byte	0x31
 11642 2e5f 9F       		.byte	0x9f
 11643 2e60 A8060000 		.quad	.LVL282
 11643      00000000 
 11644 2e68 B6060000 		.quad	.LVL283
 11644      00000000 
 11645 2e70 0200     		.word	0x2
 11646 2e72 32       		.byte	0x32
 11647 2e73 9F       		.byte	0x9f
 11648 2e74 B6060000 		.quad	.LVL283
 11648      00000000 
 11649 2e7c C2060000 		.quad	.LVL284
 11649      00000000 
 11650 2e84 0200     		.word	0x2
 11651 2e86 33       		.byte	0x33
 11652 2e87 9F       		.byte	0x9f
 11653 2e88 4C070000 		.quad	.LVL285
 11653      00000000 
 11654 2e90 5F070000 		.quad	.LVL286
 11654      00000000 
 11655 2e98 0100     		.word	0x1
 11656 2e9a 50       		.byte	0x50
 11657 2e9b 5F070000 		.quad	.LVL286
 11657      00000000 
 11658 2ea3 75070000 		.quad	.LVL287
 11658      00000000 
 11659 2eab 0100     		.word	0x1
 11660 2ead 52       		.byte	0x52
 11661 2eae A70C0000 		.quad	.LVL334
 11661      00000000 
 11662 2eb6 C60C0000 		.quad	.LVL335
 11662      00000000 
 11663 2ebe 0200     		.word	0x2
 11664 2ec0 30       		.byte	0x30
 11665 2ec1 9F       		.byte	0x9f
 11666 2ec2 360D0000 		.quad	.LVL340
 11666      00000000 
 11667 2eca 470D0000 		.quad	.LVL341
 11667      00000000 
 11668 2ed2 0200     		.word	0x2
 11669 2ed4 31       		.byte	0x31
 11670 2ed5 9F       		.byte	0x9f
 11671 2ed6 470D0000 		.quad	.LVL341
 11671      00000000 
 11672 2ede 580D0000 		.quad	.LVL342
 11672      00000000 
 11673 2ee6 0200     		.word	0x2
 11674 2ee8 32       		.byte	0x32
 11675 2ee9 9F       		.byte	0x9f
 11676 2eea 00000000 		.quad	0
 11676      00000000 
 11677 2ef2 00000000 		.quad	0
 11677      00000000 
 11678              	.LLST155:
 11679 2efa 82070000 		.quad	.LVL288
 11679      00000000 
 11680 2f02 400C0000 		.quad	.LVL326
 11680      00000000 
 11681 2f0a 0100     		.word	0x1
 11682 2f0c 53       		.byte	0x53
 11683 2f0d 400C0000 		.quad	.LVL326
 11683      00000000 
 11684 2f15 4C0C0000 		.quad	.LVL331
 11684      00000000 
 11685 2f1d 0400     		.word	0x4
 11686 2f1f 91       		.byte	0x91
 11687 2f20 907E     		.sleb128 -240
 11688 2f22 9F       		.byte	0x9f
 11689 2f23 6B0C0000 		.quad	.LVL332
 11689      00000000 
 11690 2f2b A70C0000 		.quad	.LVL334
 11690      00000000 
 11691 2f33 0100     		.word	0x1
 11692 2f35 53       		.byte	0x53
 11693 2f36 040D0000 		.quad	.LVL337
 11693      00000000 
 11694 2f3e 140D0000 		.quad	.LVL338
 11694      00000000 
 11695 2f46 0100     		.word	0x1
 11696 2f48 53       		.byte	0x53
 11697 2f49 9C0D0000 		.quad	.LVL346
 11697      00000000 
 11698 2f51 CE0D0000 		.quad	.LFE3006
 11698      00000000 
 11699 2f59 0100     		.word	0x1
 11700 2f5b 53       		.byte	0x53
 11701 2f5c 00000000 		.quad	0
 11701      00000000 
 11702 2f64 00000000 		.quad	0
 11702      00000000 
 11703              	.LLST156:
 11704 2f6c A6070000 		.quad	.LVL290
 11704      00000000 
 11705 2f74 400C0000 		.quad	.LVL326
 11705      00000000 
 11706 2f7c 0100     		.word	0x1
 11707 2f7e 53       		.byte	0x53
 11708 2f7f 400C0000 		.quad	.LVL326
 11708      00000000 
 11709 2f87 4C0C0000 		.quad	.LVL331
 11709      00000000 
 11710 2f8f 0400     		.word	0x4
 11711 2f91 91       		.byte	0x91
 11712 2f92 907E     		.sleb128 -240
 11713 2f94 9F       		.byte	0x9f
 11714 2f95 6B0C0000 		.quad	.LVL332
 11714      00000000 
 11715 2f9d A70C0000 		.quad	.LVL334
 11715      00000000 
 11716 2fa5 0100     		.word	0x1
 11717 2fa7 53       		.byte	0x53
 11718 2fa8 040D0000 		.quad	.LVL337
 11718      00000000 
 11719 2fb0 140D0000 		.quad	.LVL338
 11719      00000000 
 11720 2fb8 0100     		.word	0x1
 11721 2fba 53       		.byte	0x53
 11722 2fbb 9C0D0000 		.quad	.LVL346
 11722      00000000 
 11723 2fc3 CE0D0000 		.quad	.LFE3006
 11723      00000000 
 11724 2fcb 0100     		.word	0x1
 11725 2fcd 53       		.byte	0x53
 11726 2fce 00000000 		.quad	0
 11726      00000000 
 11727 2fd6 00000000 		.quad	0
 11727      00000000 
 11728              	.LLST157:
 11729 2fde AC070000 		.quad	.LVL291
 11729      00000000 
 11730 2fe6 400C0000 		.quad	.LVL326
 11730      00000000 
 11731 2fee 0100     		.word	0x1
 11732 2ff0 53       		.byte	0x53
 11733 2ff1 400C0000 		.quad	.LVL326
 11733      00000000 
 11734 2ff9 4C0C0000 		.quad	.LVL331
 11734      00000000 
 11735 3001 0400     		.word	0x4
 11736 3003 91       		.byte	0x91
 11737 3004 907E     		.sleb128 -240
 11738 3006 9F       		.byte	0x9f
 11739 3007 6B0C0000 		.quad	.LVL332
 11739      00000000 
 11740 300f A70C0000 		.quad	.LVL334
 11740      00000000 
 11741 3017 0100     		.word	0x1
 11742 3019 53       		.byte	0x53
 11743 301a 040D0000 		.quad	.LVL337
 11743      00000000 
 11744 3022 140D0000 		.quad	.LVL338
 11744      00000000 
 11745 302a 0100     		.word	0x1
 11746 302c 53       		.byte	0x53
 11747 302d 9C0D0000 		.quad	.LVL346
 11747      00000000 
 11748 3035 CE0D0000 		.quad	.LFE3006
 11748      00000000 
 11749 303d 0100     		.word	0x1
 11750 303f 53       		.byte	0x53
 11751 3040 00000000 		.quad	0
 11751      00000000 
 11752 3048 00000000 		.quad	0
 11752      00000000 
 11753              	.LLST158:
 11754 3050 F1070000 		.quad	.LVL293
 11754      00000000 
 11755 3058 400C0000 		.quad	.LVL326
 11755      00000000 
 11756 3060 0100     		.word	0x1
 11757 3062 53       		.byte	0x53
 11758 3063 400C0000 		.quad	.LVL326
 11758      00000000 
 11759 306b 4C0C0000 		.quad	.LVL331
 11759      00000000 
 11760 3073 0400     		.word	0x4
 11761 3075 91       		.byte	0x91
 11762 3076 907E     		.sleb128 -240
 11763 3078 9F       		.byte	0x9f
 11764 3079 6B0C0000 		.quad	.LVL332
 11764      00000000 
 11765 3081 A70C0000 		.quad	.LVL334
 11765      00000000 
 11766 3089 0100     		.word	0x1
 11767 308b 53       		.byte	0x53
 11768 308c 040D0000 		.quad	.LVL337
 11768      00000000 
 11769 3094 140D0000 		.quad	.LVL338
 11769      00000000 
 11770 309c 0100     		.word	0x1
 11771 309e 53       		.byte	0x53
 11772 309f 9C0D0000 		.quad	.LVL346
 11772      00000000 
 11773 30a7 CE0D0000 		.quad	.LFE3006
 11773      00000000 
 11774 30af 0100     		.word	0x1
 11775 30b1 53       		.byte	0x53
 11776 30b2 00000000 		.quad	0
 11776      00000000 
 11777 30ba 00000000 		.quad	0
 11777      00000000 
 11778              	.LLST159:
 11779 30c2 53080000 		.quad	.LVL295
 11779      00000000 
 11780 30ca 68080000 		.quad	.LVL296
 11780      00000000 
 11781 30d2 0200     		.word	0x2
 11782 30d4 30       		.byte	0x30
 11783 30d5 9F       		.byte	0x9f
 11784 30d6 68080000 		.quad	.LVL296
 11784      00000000 
 11785 30de 7A080000 		.quad	.LVL297
 11785      00000000 
 11786 30e6 0200     		.word	0x2
 11787 30e8 31       		.byte	0x31
 11788 30e9 9F       		.byte	0x9f
 11789 30ea 7A080000 		.quad	.LVL297
 11789      00000000 
 11790 30f2 88080000 		.quad	.LVL298
 11790      00000000 
 11791 30fa 0200     		.word	0x2
 11792 30fc 32       		.byte	0x32
 11793 30fd 9F       		.byte	0x9f
 11794 30fe 88080000 		.quad	.LVL298
 11794      00000000 
 11795 3106 94080000 		.quad	.LVL299
 11795      00000000 
 11796 310e 0200     		.word	0x2
 11797 3110 33       		.byte	0x33
 11798 3111 9F       		.byte	0x9f
 11799 3112 28090000 		.quad	.LVL300
 11799      00000000 
 11800 311a 3B090000 		.quad	.LVL301
 11800      00000000 
 11801 3122 0100     		.word	0x1
 11802 3124 50       		.byte	0x50
 11803 3125 3B090000 		.quad	.LVL301
 11803      00000000 
 11804 312d 51090000 		.quad	.LVL302
 11804      00000000 
 11805 3135 0100     		.word	0x1
 11806 3137 52       		.byte	0x52
 11807 3138 880C0000 		.quad	.LVL333
 11807      00000000 
 11808 3140 A70C0000 		.quad	.LVL334
 11808      00000000 
 11809 3148 0200     		.word	0x2
 11810 314a 30       		.byte	0x30
 11811 314b 9F       		.byte	0x9f
 11812 314c 9C0D0000 		.quad	.LVL346
 11812      00000000 
 11813 3154 AD0D0000 		.quad	.LVL347
 11813      00000000 
 11814 315c 0200     		.word	0x2
 11815 315e 31       		.byte	0x31
 11816 315f 9F       		.byte	0x9f
 11817 3160 AD0D0000 		.quad	.LVL347
 11817      00000000 
 11818 3168 BE0D0000 		.quad	.LVL348
 11818      00000000 
 11819 3170 0200     		.word	0x2
 11820 3172 32       		.byte	0x32
 11821 3173 9F       		.byte	0x9f
 11822 3174 00000000 		.quad	0
 11822      00000000 
 11823 317c 00000000 		.quad	0
 11823      00000000 
 11824              	.LLST160:
 11825 3184 5E090000 		.quad	.LVL303
 11825      00000000 
 11826 318c 400C0000 		.quad	.LVL326
 11826      00000000 
 11827 3194 0100     		.word	0x1
 11828 3196 53       		.byte	0x53
 11829 3197 400C0000 		.quad	.LVL326
 11829      00000000 
 11830 319f 4C0C0000 		.quad	.LVL331
 11830      00000000 
 11831 31a7 0400     		.word	0x4
 11832 31a9 91       		.byte	0x91
 11833 31aa 907E     		.sleb128 -240
 11834 31ac 9F       		.byte	0x9f
 11835 31ad 6B0C0000 		.quad	.LVL332
 11835      00000000 
 11836 31b5 880C0000 		.quad	.LVL333
 11836      00000000 
 11837 31bd 0100     		.word	0x1
 11838 31bf 53       		.byte	0x53
 11839 31c0 040D0000 		.quad	.LVL337
 11839      00000000 
 11840 31c8 140D0000 		.quad	.LVL338
 11840      00000000 
 11841 31d0 0100     		.word	0x1
 11842 31d2 53       		.byte	0x53
 11843 31d3 BE0D0000 		.quad	.LVL348
 11843      00000000 
 11844 31db CE0D0000 		.quad	.LFE3006
 11844      00000000 
 11845 31e3 0100     		.word	0x1
 11846 31e5 53       		.byte	0x53
 11847 31e6 00000000 		.quad	0
 11847      00000000 
 11848 31ee 00000000 		.quad	0
 11848      00000000 
 11849              	.LLST161:
 11850 31f6 82090000 		.quad	.LVL305
 11850      00000000 
 11851 31fe 400C0000 		.quad	.LVL326
 11851      00000000 
 11852 3206 0100     		.word	0x1
 11853 3208 53       		.byte	0x53
 11854 3209 400C0000 		.quad	.LVL326
 11854      00000000 
 11855 3211 4C0C0000 		.quad	.LVL331
 11855      00000000 
 11856 3219 0400     		.word	0x4
 11857 321b 91       		.byte	0x91
 11858 321c 907E     		.sleb128 -240
 11859 321e 9F       		.byte	0x9f
 11860 321f 6B0C0000 		.quad	.LVL332
 11860      00000000 
 11861 3227 880C0000 		.quad	.LVL333
 11861      00000000 
 11862 322f 0100     		.word	0x1
 11863 3231 53       		.byte	0x53
 11864 3232 040D0000 		.quad	.LVL337
 11864      00000000 
 11865 323a 140D0000 		.quad	.LVL338
 11865      00000000 
 11866 3242 0100     		.word	0x1
 11867 3244 53       		.byte	0x53
 11868 3245 BE0D0000 		.quad	.LVL348
 11868      00000000 
 11869 324d CE0D0000 		.quad	.LFE3006
 11869      00000000 
 11870 3255 0100     		.word	0x1
 11871 3257 53       		.byte	0x53
 11872 3258 00000000 		.quad	0
 11872      00000000 
 11873 3260 00000000 		.quad	0
 11873      00000000 
 11874              	.LLST162:
 11875 3268 88090000 		.quad	.LVL306
 11875      00000000 
 11876 3270 400C0000 		.quad	.LVL326
 11876      00000000 
 11877 3278 0100     		.word	0x1
 11878 327a 53       		.byte	0x53
 11879 327b 400C0000 		.quad	.LVL326
 11879      00000000 
 11880 3283 4C0C0000 		.quad	.LVL331
 11880      00000000 
 11881 328b 0400     		.word	0x4
 11882 328d 91       		.byte	0x91
 11883 328e 907E     		.sleb128 -240
 11884 3290 9F       		.byte	0x9f
 11885 3291 6B0C0000 		.quad	.LVL332
 11885      00000000 
 11886 3299 880C0000 		.quad	.LVL333
 11886      00000000 
 11887 32a1 0100     		.word	0x1
 11888 32a3 53       		.byte	0x53
 11889 32a4 040D0000 		.quad	.LVL337
 11889      00000000 
 11890 32ac 140D0000 		.quad	.LVL338
 11890      00000000 
 11891 32b4 0100     		.word	0x1
 11892 32b6 53       		.byte	0x53
 11893 32b7 BE0D0000 		.quad	.LVL348
 11893      00000000 
 11894 32bf CE0D0000 		.quad	.LFE3006
 11894      00000000 
 11895 32c7 0100     		.word	0x1
 11896 32c9 53       		.byte	0x53
 11897 32ca 00000000 		.quad	0
 11897      00000000 
 11898 32d2 00000000 		.quad	0
 11898      00000000 
 11899              	.LLST163:
 11900 32da CD090000 		.quad	.LVL308
 11900      00000000 
 11901 32e2 400C0000 		.quad	.LVL326
 11901      00000000 
 11902 32ea 0100     		.word	0x1
 11903 32ec 53       		.byte	0x53
 11904 32ed 400C0000 		.quad	.LVL326
 11904      00000000 
 11905 32f5 4C0C0000 		.quad	.LVL331
 11905      00000000 
 11906 32fd 0400     		.word	0x4
 11907 32ff 91       		.byte	0x91
 11908 3300 907E     		.sleb128 -240
 11909 3302 9F       		.byte	0x9f
 11910 3303 6B0C0000 		.quad	.LVL332
 11910      00000000 
 11911 330b 880C0000 		.quad	.LVL333
 11911      00000000 
 11912 3313 0100     		.word	0x1
 11913 3315 53       		.byte	0x53
 11914 3316 040D0000 		.quad	.LVL337
 11914      00000000 
 11915 331e 140D0000 		.quad	.LVL338
 11915      00000000 
 11916 3326 0100     		.word	0x1
 11917 3328 53       		.byte	0x53
 11918 3329 BE0D0000 		.quad	.LVL348
 11918      00000000 
 11919 3331 CE0D0000 		.quad	.LFE3006
 11919      00000000 
 11920 3339 0100     		.word	0x1
 11921 333b 53       		.byte	0x53
 11922 333c 00000000 		.quad	0
 11922      00000000 
 11923 3344 00000000 		.quad	0
 11923      00000000 
 11924              	.LLST164:
 11925 334c 2F0A0000 		.quad	.LVL310
 11925      00000000 
 11926 3354 440A0000 		.quad	.LVL311
 11926      00000000 
 11927 335c 0200     		.word	0x2
 11928 335e 30       		.byte	0x30
 11929 335f 9F       		.byte	0x9f
 11930 3360 440A0000 		.quad	.LVL311
 11930      00000000 
 11931 3368 560A0000 		.quad	.LVL312
 11931      00000000 
 11932 3370 0200     		.word	0x2
 11933 3372 31       		.byte	0x31
 11934 3373 9F       		.byte	0x9f
 11935 3374 560A0000 		.quad	.LVL312
 11935      00000000 
 11936 337c 640A0000 		.quad	.LVL313
 11936      00000000 
 11937 3384 0200     		.word	0x2
 11938 3386 32       		.byte	0x32
 11939 3387 9F       		.byte	0x9f
 11940 3388 640A0000 		.quad	.LVL313
 11940      00000000 
 11941 3390 6F0A0000 		.quad	.LVL314
 11941      00000000 
 11942 3398 0200     		.word	0x2
 11943 339a 33       		.byte	0x33
 11944 339b 9F       		.byte	0x9f
 11945 339c FA0A0000 		.quad	.LVL315
 11945      00000000 
 11946 33a4 0D0B0000 		.quad	.LVL316
 11946      00000000 
 11947 33ac 0100     		.word	0x1
 11948 33ae 50       		.byte	0x50
 11949 33af 0D0B0000 		.quad	.LVL316
 11949      00000000 
 11950 33b7 230B0000 		.quad	.LVL317
 11950      00000000 
 11951 33bf 0100     		.word	0x1
 11952 33c1 52       		.byte	0x52
 11953 33c2 6B0C0000 		.quad	.LVL332
 11953      00000000 
 11954 33ca 880C0000 		.quad	.LVL333
 11954      00000000 
 11955 33d2 0200     		.word	0x2
 11956 33d4 30       		.byte	0x30
 11957 33d5 9F       		.byte	0x9f
 11958 33d6 040D0000 		.quad	.LVL337
 11958      00000000 
 11959 33de 140D0000 		.quad	.LVL338
 11959      00000000 
 11960 33e6 0200     		.word	0x2
 11961 33e8 32       		.byte	0x32
 11962 33e9 9F       		.byte	0x9f
 11963 33ea BE0D0000 		.quad	.LVL348
 11963      00000000 
 11964 33f2 CE0D0000 		.quad	.LFE3006
 11964      00000000 
 11965 33fa 0200     		.word	0x2
 11966 33fc 31       		.byte	0x31
 11967 33fd 9F       		.byte	0x9f
 11968 33fe 00000000 		.quad	0
 11968      00000000 
 11969 3406 00000000 		.quad	0
 11969      00000000 
 11970              	.LLST165:
 11971 340e 300B0000 		.quad	.LVL318
 11971      00000000 
 11972 3416 400C0000 		.quad	.LVL326
 11972      00000000 
 11973 341e 0100     		.word	0x1
 11974 3420 53       		.byte	0x53
 11975 3421 400C0000 		.quad	.LVL326
 11975      00000000 
 11976 3429 4C0C0000 		.quad	.LVL331
 11976      00000000 
 11977 3431 0400     		.word	0x4
 11978 3433 91       		.byte	0x91
 11979 3434 907E     		.sleb128 -240
 11980 3436 9F       		.byte	0x9f
 11981 3437 00000000 		.quad	0
 11981      00000000 
 11982 343f 00000000 		.quad	0
 11982      00000000 
 11983              	.LLST166:
 11984 3447 4F0B0000 		.quad	.LVL320
 11984      00000000 
 11985 344f 400C0000 		.quad	.LVL326
 11985      00000000 
 11986 3457 0100     		.word	0x1
 11987 3459 53       		.byte	0x53
 11988 345a 400C0000 		.quad	.LVL326
 11988      00000000 
 11989 3462 4C0C0000 		.quad	.LVL331
 11989      00000000 
 11990 346a 0400     		.word	0x4
 11991 346c 91       		.byte	0x91
 11992 346d 907E     		.sleb128 -240
 11993 346f 9F       		.byte	0x9f
 11994 3470 00000000 		.quad	0
 11994      00000000 
 11995 3478 00000000 		.quad	0
 11995      00000000 
 11996              	.LLST167:
 11997 3480 550B0000 		.quad	.LVL321
 11997      00000000 
 11998 3488 400C0000 		.quad	.LVL326
 11998      00000000 
 11999 3490 0100     		.word	0x1
 12000 3492 53       		.byte	0x53
 12001 3493 400C0000 		.quad	.LVL326
 12001      00000000 
 12002 349b 4C0C0000 		.quad	.LVL331
 12002      00000000 
 12003 34a3 0400     		.word	0x4
 12004 34a5 91       		.byte	0x91
 12005 34a6 907E     		.sleb128 -240
 12006 34a8 9F       		.byte	0x9f
 12007 34a9 00000000 		.quad	0
 12007      00000000 
 12008 34b1 00000000 		.quad	0
 12008      00000000 
 12009              	.LLST168:
 12010 34b9 9A0B0000 		.quad	.LVL323
 12010      00000000 
 12011 34c1 400C0000 		.quad	.LVL326
 12011      00000000 
 12012 34c9 0100     		.word	0x1
 12013 34cb 53       		.byte	0x53
 12014 34cc 400C0000 		.quad	.LVL326
 12014      00000000 
 12015 34d4 4C0C0000 		.quad	.LVL331
 12015      00000000 
 12016 34dc 0400     		.word	0x4
 12017 34de 91       		.byte	0x91
 12018 34df 907E     		.sleb128 -240
 12019 34e1 9F       		.byte	0x9f
 12020 34e2 00000000 		.quad	0
 12020      00000000 
 12021 34ea 00000000 		.quad	0
 12021      00000000 
 12022              		.section	.debug_aranges,"dr"
 12023 0000 8C000000 		.long	0x8c
 12024 0004 0200     		.word	0x2
 12025 0006 00000000 		.secrel32	.Ldebug_info0
 12026 000a 08       		.byte	0x8
 12027 000b 00       		.byte	0
 12028 000c 0000     		.word	0
 12029 000e 0000     		.word	0
 12030 0010 00000000 		.quad	.LFB3007
 12030      00000000 
 12031 0018 01030000 		.quad	.LFE3007-.LFB3007
 12031      00000000 
 12032 0020 00000000 		.quad	.LFB3009
 12032      00000000 
 12033 0028 F1010000 		.quad	.LFE3009-.LFB3009
 12033      00000000 
 12034 0030 00000000 		.quad	.LFB3011
 12034      00000000 
 12035 0038 DE010000 		.quad	.LFE3011-.LFB3011
 12035      00000000 
 12036 0040 00000000 		.quad	.LFB3013
 12036      00000000 
 12037 0048 E4010000 		.quad	.LFE3013-.LFB3013
 12037      00000000 
 12038 0050 00000000 		.quad	.LFB3015
 12038      00000000 
 12039 0058 DE010000 		.quad	.LFE3015-.LFB3015
 12039      00000000 
 12040 0060 00000000 		.quad	.LFB3017
 12040      00000000 
 12041 0068 E4010000 		.quad	.LFE3017-.LFB3017
 12041      00000000 
 12042 0070 00000000 		.quad	.LFB3006
 12042      00000000 
 12043 0078 CE0D0000 		.quad	.LFE3006-.LFB3006
 12043      00000000 
 12044 0080 00000000 		.quad	0
 12044      00000000 
 12045 0088 00000000 		.quad	0
 12045      00000000 
 12046              		.section	.debug_ranges,"dr"
 12047              	.Ldebug_ranges0:
 12048 0000 1C000000 		.quad	.LBB213
 12048      00000000 
 12049 0008 20000000 		.quad	.LBE213
 12049      00000000 
 12050 0010 2A000000 		.quad	.LBB263
 12050      00000000 
 12051 0018 2D000000 		.quad	.LBE263
 12051      00000000 
 12052 0020 30000000 		.quad	.LBB264
 12052      00000000 
 12053 0028 CE020000 		.quad	.LBE264
 12053      00000000 
 12054 0030 E0020000 		.quad	.LBB265
 12054      00000000 
 12055 0038 01030000 		.quad	.LBE265
 12055      00000000 
 12056 0040 00000000 		.quad	0
 12056      00000000 
 12057 0048 00000000 		.quad	0
 12057      00000000 
 12058 0050 1C000000 		.quad	.LBB214
 12058      00000000 
 12059 0058 20000000 		.quad	.LBE214
 12059      00000000 
 12060 0060 2A000000 		.quad	.LBB227
 12060      00000000 
 12061 0068 2D000000 		.quad	.LBE227
 12061      00000000 
 12062 0070 30000000 		.quad	.LBB228
 12062      00000000 
 12063 0078 5E000000 		.quad	.LBE228
 12063      00000000 
 12064 0080 61000000 		.quad	.LBB232
 12064      00000000 
 12065 0088 69000000 		.quad	.LBE232
 12065      00000000 
 12066 0090 00000000 		.quad	0
 12066      00000000 
 12067 0098 00000000 		.quad	0
 12067      00000000 
 12068 00a0 3E000000 		.quad	.LBB216
 12068      00000000 
 12069 00a8 5E000000 		.quad	.LBE216
 12069      00000000 
 12070 00b0 61000000 		.quad	.LBB223
 12070      00000000 
 12071 00b8 65000000 		.quad	.LBE223
 12071      00000000 
 12072 00c0 00000000 		.quad	0
 12072      00000000 
 12073 00c8 00000000 		.quad	0
 12073      00000000 
 12074 00d0 5E000000 		.quad	.LBB229
 12074      00000000 
 12075 00d8 61000000 		.quad	.LBE229
 12075      00000000 
 12076 00e0 69000000 		.quad	.LBB233
 12076      00000000 
 12077 00e8 6E000000 		.quad	.LBE233
 12077      00000000 
 12078 00f0 00000000 		.quad	0
 12078      00000000 
 12079 00f8 00000000 		.quad	0
 12079      00000000 
 12080 0100 81000000 		.quad	.LBB234
 12080      00000000 
 12081 0108 85000000 		.quad	.LBE234
 12081      00000000 
 12082 0110 89000000 		.quad	.LBB237
 12082      00000000 
 12083 0118 8C000000 		.quad	.LBE237
 12083      00000000 
 12084 0120 B1000000 		.quad	.LBB238
 12084      00000000 
 12085 0128 C7000000 		.quad	.LBE238
 12085      00000000 
 12086 0130 00000000 		.quad	0
 12086      00000000 
 12087 0138 00000000 		.quad	0
 12087      00000000 
 12088 0140 D9000000 		.quad	.LBB241
 12088      00000000 
 12089 0148 F3000000 		.quad	.LBE241
 12089      00000000 
 12090 0150 F6000000 		.quad	.LBB245
 12090      00000000 
 12091 0158 FE000000 		.quad	.LBE245
 12091      00000000 
 12092 0160 02010000 		.quad	.LBB246
 12092      00000000 
 12093 0168 0F010000 		.quad	.LBE246
 12093      00000000 
 12094 0170 00000000 		.quad	0
 12094      00000000 
 12095 0178 00000000 		.quad	0
 12095      00000000 
 12096 0180 69010000 		.quad	.LBB247
 12096      00000000 
 12097 0188 7D010000 		.quad	.LBE247
 12097      00000000 
 12098 0190 81010000 		.quad	.LBB259
 12098      00000000 
 12099 0198 8B020000 		.quad	.LBE259
 12099      00000000 
 12100 01a0 90020000 		.quad	.LBB261
 12100      00000000 
 12101 01a8 98020000 		.quad	.LBE261
 12101      00000000 
 12102 01b0 00000000 		.quad	0
 12102      00000000 
 12103 01b8 00000000 		.quad	0
 12103      00000000 
 12104 01c0 7D010000 		.quad	.LBB251
 12104      00000000 
 12105 01c8 81010000 		.quad	.LBE251
 12105      00000000 
 12106 01d0 8B020000 		.quad	.LBB260
 12106      00000000 
 12107 01d8 90020000 		.quad	.LBE260
 12107      00000000 
 12108 01e0 98020000 		.quad	.LBB262
 12108      00000000 
 12109 01e8 CE020000 		.quad	.LBE262
 12109      00000000 
 12110 01f0 00000000 		.quad	0
 12110      00000000 
 12111 01f8 00000000 		.quad	0
 12111      00000000 
 12112 0200 A0020000 		.quad	.LBB252
 12112      00000000 
 12113 0208 BA020000 		.quad	.LBE252
 12113      00000000 
 12114 0210 BE020000 		.quad	.LBB257
 12114      00000000 
 12115 0218 C6020000 		.quad	.LBE257
 12115      00000000 
 12116 0220 C9020000 		.quad	.LBB258
 12116      00000000 
 12117 0228 CC020000 		.quad	.LBE258
 12117      00000000 
 12118 0230 00000000 		.quad	0
 12118      00000000 
 12119 0238 00000000 		.quad	0
 12119      00000000 
 12120 0240 A0020000 		.quad	.LBB253
 12120      00000000 
 12121 0248 A4020000 		.quad	.LBE253
 12121      00000000 
 12122 0250 A8020000 		.quad	.LBB256
 12122      00000000 
 12123 0258 AF020000 		.quad	.LBE256
 12123      00000000 
 12124 0260 00000000 		.quad	0
 12124      00000000 
 12125 0268 00000000 		.quad	0
 12125      00000000 
 12126 0270 1C000000 		.quad	.LBB291
 12126      00000000 
 12127 0278 20000000 		.quad	.LBE291
 12127      00000000 
 12128 0280 26000000 		.quad	.LBB333
 12128      00000000 
 12129 0288 29000000 		.quad	.LBE333
 12129      00000000 
 12130 0290 2F000000 		.quad	.LBB334
 12130      00000000 
 12131 0298 BF010000 		.quad	.LBE334
 12131      00000000 
 12132 02a0 D0010000 		.quad	.LBB335
 12132      00000000 
 12133 02a8 F1010000 		.quad	.LBE335
 12133      00000000 
 12134 02b0 00000000 		.quad	0
 12134      00000000 
 12135 02b8 00000000 		.quad	0
 12135      00000000 
 12136 02c0 1C000000 		.quad	.LBB292
 12136      00000000 
 12137 02c8 20000000 		.quad	.LBE292
 12137      00000000 
 12138 02d0 26000000 		.quad	.LBB305
 12138      00000000 
 12139 02d8 29000000 		.quad	.LBE305
 12139      00000000 
 12140 02e0 2F000000 		.quad	.LBB306
 12140      00000000 
 12141 02e8 5D000000 		.quad	.LBE306
 12141      00000000 
 12142 02f0 60000000 		.quad	.LBB310
 12142      00000000 
 12143 02f8 68000000 		.quad	.LBE310
 12143      00000000 
 12144 0300 00000000 		.quad	0
 12144      00000000 
 12145 0308 00000000 		.quad	0
 12145      00000000 
 12146 0310 3D000000 		.quad	.LBB294
 12146      00000000 
 12147 0318 5D000000 		.quad	.LBE294
 12147      00000000 
 12148 0320 60000000 		.quad	.LBB301
 12148      00000000 
 12149 0328 64000000 		.quad	.LBE301
 12149      00000000 
 12150 0330 00000000 		.quad	0
 12150      00000000 
 12151 0338 00000000 		.quad	0
 12151      00000000 
 12152 0340 5D000000 		.quad	.LBB307
 12152      00000000 
 12153 0348 60000000 		.quad	.LBE307
 12153      00000000 
 12154 0350 68000000 		.quad	.LBB311
 12154      00000000 
 12155 0358 6D000000 		.quad	.LBE311
 12155      00000000 
 12156 0360 00000000 		.quad	0
 12156      00000000 
 12157 0368 00000000 		.quad	0
 12157      00000000 
 12158 0370 98000000 		.quad	.LBB312
 12158      00000000 
 12159 0378 9B000000 		.quad	.LBE312
 12159      00000000 
 12160 0380 AC000000 		.quad	.LBB315
 12160      00000000 
 12161 0388 C4000000 		.quad	.LBE315
 12161      00000000 
 12162 0390 00000000 		.quad	0
 12162      00000000 
 12163 0398 00000000 		.quad	0
 12163      00000000 
 12164 03a0 D2000000 		.quad	.LBB318
 12164      00000000 
 12165 03a8 EC000000 		.quad	.LBE318
 12165      00000000 
 12166 03b0 EF000000 		.quad	.LBB321
 12166      00000000 
 12167 03b8 04010000 		.quad	.LBE321
 12167      00000000 
 12168 03c0 00000000 		.quad	0
 12168      00000000 
 12169 03c8 00000000 		.quad	0
 12169      00000000 
 12170 03d0 70010000 		.quad	.LBB323
 12170      00000000 
 12171 03d8 7D010000 		.quad	.LBE323
 12171      00000000 
 12172 03e0 80010000 		.quad	.LBB324
 12172      00000000 
 12173 03e8 83010000 		.quad	.LBE324
 12173      00000000 
 12174 03f0 00000000 		.quad	0
 12174      00000000 
 12175 03f8 00000000 		.quad	0
 12175      00000000 
 12176 0400 90010000 		.quad	.LBB326
 12176      00000000 
 12177 0408 AB010000 		.quad	.LBE326
 12177      00000000 
 12178 0410 AF010000 		.quad	.LBB331
 12178      00000000 
 12179 0418 B7010000 		.quad	.LBE331
 12179      00000000 
 12180 0420 BA010000 		.quad	.LBB332
 12180      00000000 
 12181 0428 BD010000 		.quad	.LBE332
 12181      00000000 
 12182 0430 00000000 		.quad	0
 12182      00000000 
 12183 0438 00000000 		.quad	0
 12183      00000000 
 12184 0440 90010000 		.quad	.LBB327
 12184      00000000 
 12185 0448 94010000 		.quad	.LBE327
 12185      00000000 
 12186 0450 98010000 		.quad	.LBB330
 12186      00000000 
 12187 0458 9F010000 		.quad	.LBE330
 12187      00000000 
 12188 0460 00000000 		.quad	0
 12188      00000000 
 12189 0468 00000000 		.quad	0
 12189      00000000 
 12190 0470 1C000000 		.quad	.LBB361
 12190      00000000 
 12191 0478 20000000 		.quad	.LBE361
 12191      00000000 
 12192 0480 2C000000 		.quad	.LBB398
 12192      00000000 
 12193 0488 AC010000 		.quad	.LBE398
 12193      00000000 
 12194 0490 BD010000 		.quad	.LBB399
 12194      00000000 
 12195 0498 DE010000 		.quad	.LBE399
 12195      00000000 
 12196 04a0 00000000 		.quad	0
 12196      00000000 
 12197 04a8 00000000 		.quad	0
 12197      00000000 
 12198 04b0 1C000000 		.quad	.LBB362
 12198      00000000 
 12199 04b8 20000000 		.quad	.LBE362
 12199      00000000 
 12200 04c0 2C000000 		.quad	.LBB374
 12200      00000000 
 12201 04c8 56000000 		.quad	.LBE374
 12201      00000000 
 12202 04d0 59000000 		.quad	.LBB378
 12202      00000000 
 12203 04d8 61000000 		.quad	.LBE378
 12203      00000000 
 12204 04e0 00000000 		.quad	0
 12204      00000000 
 12205 04e8 00000000 		.quad	0
 12205      00000000 
 12206 04f0 36000000 		.quad	.LBB364
 12206      00000000 
 12207 04f8 56000000 		.quad	.LBE364
 12207      00000000 
 12208 0500 59000000 		.quad	.LBB371
 12208      00000000 
 12209 0508 5D000000 		.quad	.LBE371
 12209      00000000 
 12210 0510 00000000 		.quad	0
 12210      00000000 
 12211 0518 00000000 		.quad	0
 12211      00000000 
 12212 0520 56000000 		.quad	.LBB375
 12212      00000000 
 12213 0528 59000000 		.quad	.LBE375
 12213      00000000 
 12214 0530 61000000 		.quad	.LBB379
 12214      00000000 
 12215 0538 66000000 		.quad	.LBE379
 12215      00000000 
 12216 0540 00000000 		.quad	0
 12216      00000000 
 12217 0548 00000000 		.quad	0
 12217      00000000 
 12218 0550 CB000000 		.quad	.LBB385
 12218      00000000 
 12219 0558 E5000000 		.quad	.LBE385
 12219      00000000 
 12220 0560 E8000000 		.quad	.LBB388
 12220      00000000 
 12221 0568 FD000000 		.quad	.LBE388
 12221      00000000 
 12222 0570 00000000 		.quad	0
 12222      00000000 
 12223 0578 00000000 		.quad	0
 12223      00000000 
 12224 0580 60010000 		.quad	.LBB390
 12224      00000000 
 12225 0588 6D010000 		.quad	.LBE390
 12225      00000000 
 12226 0590 70010000 		.quad	.LBB391
 12226      00000000 
 12227 0598 73010000 		.quad	.LBE391
 12227      00000000 
 12228 05a0 00000000 		.quad	0
 12228      00000000 
 12229 05a8 00000000 		.quad	0
 12229      00000000 
 12230 05b0 80010000 		.quad	.LBB393
 12230      00000000 
 12231 05b8 98010000 		.quad	.LBE393
 12231      00000000 
 12232 05c0 9C010000 		.quad	.LBB396
 12232      00000000 
 12233 05c8 A4010000 		.quad	.LBE396
 12233      00000000 
 12234 05d0 A7010000 		.quad	.LBB397
 12234      00000000 
 12235 05d8 AA010000 		.quad	.LBE397
 12235      00000000 
 12236 05e0 00000000 		.quad	0
 12236      00000000 
 12237 05e8 00000000 		.quad	0
 12237      00000000 
 12238 05f0 1C000000 		.quad	.LBB425
 12238      00000000 
 12239 05f8 20000000 		.quad	.LBE425
 12239      00000000 
 12240 0600 2C000000 		.quad	.LBB464
 12240      00000000 
 12241 0608 B2010000 		.quad	.LBE464
 12241      00000000 
 12242 0610 C3010000 		.quad	.LBB465
 12242      00000000 
 12243 0618 E4010000 		.quad	.LBE465
 12243      00000000 
 12244 0620 00000000 		.quad	0
 12244      00000000 
 12245 0628 00000000 		.quad	0
 12245      00000000 
 12246 0630 1C000000 		.quad	.LBB426
 12246      00000000 
 12247 0638 20000000 		.quad	.LBE426
 12247      00000000 
 12248 0640 2C000000 		.quad	.LBB438
 12248      00000000 
 12249 0648 56000000 		.quad	.LBE438
 12249      00000000 
 12250 0650 59000000 		.quad	.LBB442
 12250      00000000 
 12251 0658 61000000 		.quad	.LBE442
 12251      00000000 
 12252 0660 00000000 		.quad	0
 12252      00000000 
 12253 0668 00000000 		.quad	0
 12253      00000000 
 12254 0670 36000000 		.quad	.LBB428
 12254      00000000 
 12255 0678 56000000 		.quad	.LBE428
 12255      00000000 
 12256 0680 59000000 		.quad	.LBB435
 12256      00000000 
 12257 0688 5D000000 		.quad	.LBE435
 12257      00000000 
 12258 0690 00000000 		.quad	0
 12258      00000000 
 12259 0698 00000000 		.quad	0
 12259      00000000 
 12260 06a0 56000000 		.quad	.LBB439
 12260      00000000 
 12261 06a8 59000000 		.quad	.LBE439
 12261      00000000 
 12262 06b0 61000000 		.quad	.LBB443
 12262      00000000 
 12263 06b8 66000000 		.quad	.LBE443
 12263      00000000 
 12264 06c0 00000000 		.quad	0
 12264      00000000 
 12265 06c8 00000000 		.quad	0
 12265      00000000 
 12266 06d0 D0000000 		.quad	.LBB449
 12266      00000000 
 12267 06d8 EA000000 		.quad	.LBE449
 12267      00000000 
 12268 06e0 ED000000 		.quad	.LBB452
 12268      00000000 
 12269 06e8 02010000 		.quad	.LBE452
 12269      00000000 
 12270 06f0 00000000 		.quad	0
 12270      00000000 
 12271 06f8 00000000 		.quad	0
 12271      00000000 
 12272 0700 64010000 		.quad	.LBB454
 12272      00000000 
 12273 0708 71010000 		.quad	.LBE454
 12273      00000000 
 12274 0710 74010000 		.quad	.LBB455
 12274      00000000 
 12275 0718 77010000 		.quad	.LBE455
 12275      00000000 
 12276 0720 00000000 		.quad	0
 12276      00000000 
 12277 0728 00000000 		.quad	0
 12277      00000000 
 12278 0730 80010000 		.quad	.LBB457
 12278      00000000 
 12279 0738 9E010000 		.quad	.LBE457
 12279      00000000 
 12280 0740 A2010000 		.quad	.LBB462
 12280      00000000 
 12281 0748 AA010000 		.quad	.LBE462
 12281      00000000 
 12282 0750 AD010000 		.quad	.LBB463
 12282      00000000 
 12283 0758 B0010000 		.quad	.LBE463
 12283      00000000 
 12284 0760 00000000 		.quad	0
 12284      00000000 
 12285 0768 00000000 		.quad	0
 12285      00000000 
 12286 0770 80010000 		.quad	.LBB458
 12286      00000000 
 12287 0778 84010000 		.quad	.LBE458
 12287      00000000 
 12288 0780 88010000 		.quad	.LBB461
 12288      00000000 
 12289 0788 92010000 		.quad	.LBE461
 12289      00000000 
 12290 0790 00000000 		.quad	0
 12290      00000000 
 12291 0798 00000000 		.quad	0
 12291      00000000 
 12292 07a0 1C000000 		.quad	.LBB491
 12292      00000000 
 12293 07a8 20000000 		.quad	.LBE491
 12293      00000000 
 12294 07b0 2C000000 		.quad	.LBB528
 12294      00000000 
 12295 07b8 AC010000 		.quad	.LBE528
 12295      00000000 
 12296 07c0 BD010000 		.quad	.LBB529
 12296      00000000 
 12297 07c8 DE010000 		.quad	.LBE529
 12297      00000000 
 12298 07d0 00000000 		.quad	0
 12298      00000000 
 12299 07d8 00000000 		.quad	0
 12299      00000000 
 12300 07e0 1C000000 		.quad	.LBB492
 12300      00000000 
 12301 07e8 20000000 		.quad	.LBE492
 12301      00000000 
 12302 07f0 2C000000 		.quad	.LBB504
 12302      00000000 
 12303 07f8 56000000 		.quad	.LBE504
 12303      00000000 
 12304 0800 59000000 		.quad	.LBB508
 12304      00000000 
 12305 0808 61000000 		.quad	.LBE508
 12305      00000000 
 12306 0810 00000000 		.quad	0
 12306      00000000 
 12307 0818 00000000 		.quad	0
 12307      00000000 
 12308 0820 36000000 		.quad	.LBB494
 12308      00000000 
 12309 0828 56000000 		.quad	.LBE494
 12309      00000000 
 12310 0830 59000000 		.quad	.LBB501
 12310      00000000 
 12311 0838 5D000000 		.quad	.LBE501
 12311      00000000 
 12312 0840 00000000 		.quad	0
 12312      00000000 
 12313 0848 00000000 		.quad	0
 12313      00000000 
 12314 0850 56000000 		.quad	.LBB505
 12314      00000000 
 12315 0858 59000000 		.quad	.LBE505
 12315      00000000 
 12316 0860 61000000 		.quad	.LBB509
 12316      00000000 
 12317 0868 66000000 		.quad	.LBE509
 12317      00000000 
 12318 0870 00000000 		.quad	0
 12318      00000000 
 12319 0878 00000000 		.quad	0
 12319      00000000 
 12320 0880 CB000000 		.quad	.LBB515
 12320      00000000 
 12321 0888 E5000000 		.quad	.LBE515
 12321      00000000 
 12322 0890 E8000000 		.quad	.LBB518
 12322      00000000 
 12323 0898 FD000000 		.quad	.LBE518
 12323      00000000 
 12324 08a0 00000000 		.quad	0
 12324      00000000 
 12325 08a8 00000000 		.quad	0
 12325      00000000 
 12326 08b0 60010000 		.quad	.LBB520
 12326      00000000 
 12327 08b8 6D010000 		.quad	.LBE520
 12327      00000000 
 12328 08c0 70010000 		.quad	.LBB521
 12328      00000000 
 12329 08c8 73010000 		.quad	.LBE521
 12329      00000000 
 12330 08d0 00000000 		.quad	0
 12330      00000000 
 12331 08d8 00000000 		.quad	0
 12331      00000000 
 12332 08e0 80010000 		.quad	.LBB523
 12332      00000000 
 12333 08e8 98010000 		.quad	.LBE523
 12333      00000000 
 12334 08f0 9C010000 		.quad	.LBB526
 12334      00000000 
 12335 08f8 A4010000 		.quad	.LBE526
 12335      00000000 
 12336 0900 A7010000 		.quad	.LBB527
 12336      00000000 
 12337 0908 AA010000 		.quad	.LBE527
 12337      00000000 
 12338 0910 00000000 		.quad	0
 12338      00000000 
 12339 0918 00000000 		.quad	0
 12339      00000000 
 12340 0920 1C000000 		.quad	.LBB555
 12340      00000000 
 12341 0928 20000000 		.quad	.LBE555
 12341      00000000 
 12342 0930 2C000000 		.quad	.LBB594
 12342      00000000 
 12343 0938 B2010000 		.quad	.LBE594
 12343      00000000 
 12344 0940 C3010000 		.quad	.LBB595
 12344      00000000 
 12345 0948 E4010000 		.quad	.LBE595
 12345      00000000 
 12346 0950 00000000 		.quad	0
 12346      00000000 
 12347 0958 00000000 		.quad	0
 12347      00000000 
 12348 0960 1C000000 		.quad	.LBB556
 12348      00000000 
 12349 0968 20000000 		.quad	.LBE556
 12349      00000000 
 12350 0970 2C000000 		.quad	.LBB568
 12350      00000000 
 12351 0978 56000000 		.quad	.LBE568
 12351      00000000 
 12352 0980 59000000 		.quad	.LBB572
 12352      00000000 
 12353 0988 61000000 		.quad	.LBE572
 12353      00000000 
 12354 0990 00000000 		.quad	0
 12354      00000000 
 12355 0998 00000000 		.quad	0
 12355      00000000 
 12356 09a0 36000000 		.quad	.LBB558
 12356      00000000 
 12357 09a8 56000000 		.quad	.LBE558
 12357      00000000 
 12358 09b0 59000000 		.quad	.LBB565
 12358      00000000 
 12359 09b8 5D000000 		.quad	.LBE565
 12359      00000000 
 12360 09c0 00000000 		.quad	0
 12360      00000000 
 12361 09c8 00000000 		.quad	0
 12361      00000000 
 12362 09d0 56000000 		.quad	.LBB569
 12362      00000000 
 12363 09d8 59000000 		.quad	.LBE569
 12363      00000000 
 12364 09e0 61000000 		.quad	.LBB573
 12364      00000000 
 12365 09e8 66000000 		.quad	.LBE573
 12365      00000000 
 12366 09f0 00000000 		.quad	0
 12366      00000000 
 12367 09f8 00000000 		.quad	0
 12367      00000000 
 12368 0a00 D0000000 		.quad	.LBB579
 12368      00000000 
 12369 0a08 EA000000 		.quad	.LBE579
 12369      00000000 
 12370 0a10 ED000000 		.quad	.LBB582
 12370      00000000 
 12371 0a18 02010000 		.quad	.LBE582
 12371      00000000 
 12372 0a20 00000000 		.quad	0
 12372      00000000 
 12373 0a28 00000000 		.quad	0
 12373      00000000 
 12374 0a30 64010000 		.quad	.LBB584
 12374      00000000 
 12375 0a38 71010000 		.quad	.LBE584
 12375      00000000 
 12376 0a40 74010000 		.quad	.LBB585
 12376      00000000 
 12377 0a48 77010000 		.quad	.LBE585
 12377      00000000 
 12378 0a50 00000000 		.quad	0
 12378      00000000 
 12379 0a58 00000000 		.quad	0
 12379      00000000 
 12380 0a60 80010000 		.quad	.LBB587
 12380      00000000 
 12381 0a68 9E010000 		.quad	.LBE587
 12381      00000000 
 12382 0a70 A2010000 		.quad	.LBB592
 12382      00000000 
 12383 0a78 AA010000 		.quad	.LBE592
 12383      00000000 
 12384 0a80 AD010000 		.quad	.LBB593
 12384      00000000 
 12385 0a88 B0010000 		.quad	.LBE593
 12385      00000000 
 12386 0a90 00000000 		.quad	0
 12386      00000000 
 12387 0a98 00000000 		.quad	0
 12387      00000000 
 12388 0aa0 80010000 		.quad	.LBB588
 12388      00000000 
 12389 0aa8 84010000 		.quad	.LBE588
 12389      00000000 
 12390 0ab0 88010000 		.quad	.LBB591
 12390      00000000 
 12391 0ab8 92010000 		.quad	.LBE591
 12391      00000000 
 12392 0ac0 00000000 		.quad	0
 12392      00000000 
 12393 0ac8 00000000 		.quad	0
 12393      00000000 
 12394 0ad0 55000000 		.quad	.LBB660
 12394      00000000 
 12395 0ad8 F90B0000 		.quad	.LBE660
 12395      00000000 
 12396 0ae0 4C0C0000 		.quad	.LBB794
 12396      00000000 
 12397 0ae8 CE0D0000 		.quad	.LBE794
 12397      00000000 
 12398 0af0 00000000 		.quad	0
 12398      00000000 
 12399 0af8 00000000 		.quad	0
 12399      00000000 
 12400 0b00 55000000 		.quad	.LBB661
 12400      00000000 
 12401 0b08 5A000000 		.quad	.LBE661
 12401      00000000 
 12402 0b10 99000000 		.quad	.LBB673
 12402      00000000 
 12403 0b18 9D000000 		.quad	.LBE673
 12403      00000000 
 12404 0b20 A0000000 		.quad	.LBB674
 12404      00000000 
 12405 0b28 D5000000 		.quad	.LBE674
 12405      00000000 
 12406 0b30 2F010000 		.quad	.LBB676
 12406      00000000 
 12407 0b38 59010000 		.quad	.LBE676
 12407      00000000 
 12408 0b40 4C0C0000 		.quad	.LBB786
 12408      00000000 
 12409 0b48 6B0C0000 		.quad	.LBE786
 12409      00000000 
 12410 0b50 00000000 		.quad	0
 12410      00000000 
 12411 0b58 00000000 		.quad	0
 12411      00000000 
 12412 0b60 D5000000 		.quad	.LBB675
 12412      00000000 
 12413 0b68 2F010000 		.quad	.LBE675
 12413      00000000 
 12414 0b70 59010000 		.quad	.LBB677
 12414      00000000 
 12415 0b78 DF010000 		.quad	.LBE677
 12415      00000000 
 12416 0b80 580D0000 		.quad	.LBB790
 12416      00000000 
 12417 0b88 7A0D0000 		.quad	.LBE790
 12417      00000000 
 12418 0b90 00000000 		.quad	0
 12418      00000000 
 12419 0b98 00000000 		.quad	0
 12419      00000000 
 12420 0ba0 04020000 		.quad	.LBB682
 12420      00000000 
 12421 0ba8 16020000 		.quad	.LBE682
 12421      00000000 
 12422 0bb0 1B020000 		.quad	.LBB687
 12422      00000000 
 12423 0bb8 2F020000 		.quad	.LBE687
 12423      00000000 
 12424 0bc0 3F020000 		.quad	.LBB688
 12424      00000000 
 12425 0bc8 44020000 		.quad	.LBE688
 12425      00000000 
 12426 0bd0 49020000 		.quad	.LBB689
 12426      00000000 
 12427 0bd8 51020000 		.quad	.LBE689
 12427      00000000 
 12428 0be0 00000000 		.quad	0
 12428      00000000 
 12429 0be8 00000000 		.quad	0
 12429      00000000 
 12430 0bf0 5F020000 		.quad	.LBB690
 12430      00000000 
 12431 0bf8 71020000 		.quad	.LBE690
 12431      00000000 
 12432 0c00 78020000 		.quad	.LBB695
 12432      00000000 
 12433 0c08 7D020000 		.quad	.LBE695
 12433      00000000 
 12434 0c10 86020000 		.quad	.LBB696
 12434      00000000 
 12435 0c18 8D020000 		.quad	.LBE696
 12435      00000000 
 12436 0c20 96020000 		.quad	.LBB697
 12436      00000000 
 12437 0c28 A3020000 		.quad	.LBE697
 12437      00000000 
 12438 0c30 00000000 		.quad	0
 12438      00000000 
 12439 0c38 00000000 		.quad	0
 12439      00000000 
 12440 0c40 E0020000 		.quad	.LBB698
 12440      00000000 
 12441 0c48 40030000 		.quad	.LBE698
 12441      00000000 
 12442 0c50 54030000 		.quad	.LBB699
 12442      00000000 
 12443 0c58 DE030000 		.quad	.LBE699
 12443      00000000 
 12444 0c60 7A0D0000 		.quad	.LBB791
 12444      00000000 
 12445 0c68 9C0D0000 		.quad	.LBE791
 12445      00000000 
 12446 0c70 00000000 		.quad	0
 12446      00000000 
 12447 0c78 00000000 		.quad	0
 12447      00000000 
 12448 0c80 DE030000 		.quad	.LBB700
 12448      00000000 
 12449 0c88 E1030000 		.quad	.LBE700
 12449      00000000 
 12450 0c90 E6030000 		.quad	.LBB703
 12450      00000000 
 12451 0c98 E8030000 		.quad	.LBE703
 12451      00000000 
 12452 0ca0 00000000 		.quad	0
 12452      00000000 
 12453 0ca8 00000000 		.quad	0
 12453      00000000 
 12454 0cb0 08040000 		.quad	.LBB706
 12454      00000000 
 12455 0cb8 1A040000 		.quad	.LBE706
 12455      00000000 
 12456 0cc0 1F040000 		.quad	.LBB710
 12456      00000000 
 12457 0cc8 2B040000 		.quad	.LBE710
 12457      00000000 
 12458 0cd0 32040000 		.quad	.LBB711
 12458      00000000 
 12459 0cd8 3F040000 		.quad	.LBE711
 12459      00000000 
 12460 0ce0 00000000 		.quad	0
 12460      00000000 
 12461 0ce8 00000000 		.quad	0
 12461      00000000 
 12462 0cf0 4D040000 		.quad	.LBB712
 12462      00000000 
 12463 0cf8 5F040000 		.quad	.LBE712
 12463      00000000 
 12464 0d00 66040000 		.quad	.LBB715
 12464      00000000 
 12465 0d08 7F040000 		.quad	.LBE715
 12465      00000000 
 12466 0d10 00000000 		.quad	0
 12466      00000000 
 12467 0d18 00000000 		.quad	0
 12467      00000000 
 12468 0d20 BC040000 		.quad	.LBB716
 12468      00000000 
 12469 0d28 1C050000 		.quad	.LBE716
 12469      00000000 
 12470 0d30 26050000 		.quad	.LBB717
 12470      00000000 
 12471 0d38 B0050000 		.quad	.LBE717
 12471      00000000 
 12472 0d40 140D0000 		.quad	.LBB788
 12472      00000000 
 12473 0d48 360D0000 		.quad	.LBE788
 12473      00000000 
 12474 0d50 00000000 		.quad	0
 12474      00000000 
 12475 0d58 00000000 		.quad	0
 12475      00000000 
 12476 0d60 B0050000 		.quad	.LBB718
 12476      00000000 
 12477 0d68 B3050000 		.quad	.LBE718
 12477      00000000 
 12478 0d70 B8050000 		.quad	.LBB721
 12478      00000000 
 12479 0d78 BA050000 		.quad	.LBE721
 12479      00000000 
 12480 0d80 00000000 		.quad	0
 12480      00000000 
 12481 0d88 00000000 		.quad	0
 12481      00000000 
 12482 0d90 DA050000 		.quad	.LBB724
 12482      00000000 
 12483 0d98 EC050000 		.quad	.LBE724
 12483      00000000 
 12484 0da0 F1050000 		.quad	.LBB728
 12484      00000000 
 12485 0da8 FD050000 		.quad	.LBE728
 12485      00000000 
 12486 0db0 04060000 		.quad	.LBB729
 12486      00000000 
 12487 0db8 11060000 		.quad	.LBE729
 12487      00000000 
 12488 0dc0 00000000 		.quad	0
 12488      00000000 
 12489 0dc8 00000000 		.quad	0
 12489      00000000 
 12490 0dd0 1F060000 		.quad	.LBB730
 12490      00000000 
 12491 0dd8 31060000 		.quad	.LBE730
 12491      00000000 
 12492 0de0 38060000 		.quad	.LBB733
 12492      00000000 
 12493 0de8 51060000 		.quad	.LBE733
 12493      00000000 
 12494 0df0 00000000 		.quad	0
 12494      00000000 
 12495 0df8 00000000 		.quad	0
 12495      00000000 
 12496 0e00 8E060000 		.quad	.LBB734
 12496      00000000 
 12497 0e08 EE060000 		.quad	.LBE734
 12497      00000000 
 12498 0e10 F8060000 		.quad	.LBB735
 12498      00000000 
 12499 0e18 82070000 		.quad	.LBE735
 12499      00000000 
 12500 0e20 360D0000 		.quad	.LBB789
 12500      00000000 
 12501 0e28 580D0000 		.quad	.LBE789
 12501      00000000 
 12502 0e30 00000000 		.quad	0
 12502      00000000 
 12503 0e38 00000000 		.quad	0
 12503      00000000 
 12504 0e40 82070000 		.quad	.LBB736
 12504      00000000 
 12505 0e48 85070000 		.quad	.LBE736
 12505      00000000 
 12506 0e50 8A070000 		.quad	.LBB739
 12506      00000000 
 12507 0e58 8C070000 		.quad	.LBE739
 12507      00000000 
 12508 0e60 00000000 		.quad	0
 12508      00000000 
 12509 0e68 00000000 		.quad	0
 12509      00000000 
 12510 0e70 AC070000 		.quad	.LBB742
 12510      00000000 
 12511 0e78 BE070000 		.quad	.LBE742
 12511      00000000 
 12512 0e80 C3070000 		.quad	.LBB746
 12512      00000000 
 12513 0e88 CF070000 		.quad	.LBE746
 12513      00000000 
 12514 0e90 D6070000 		.quad	.LBB747
 12514      00000000 
 12515 0e98 E3070000 		.quad	.LBE747
 12515      00000000 
 12516 0ea0 00000000 		.quad	0
 12516      00000000 
 12517 0ea8 00000000 		.quad	0
 12517      00000000 
 12518 0eb0 F1070000 		.quad	.LBB748
 12518      00000000 
 12519 0eb8 03080000 		.quad	.LBE748
 12519      00000000 
 12520 0ec0 0A080000 		.quad	.LBB751
 12520      00000000 
 12521 0ec8 23080000 		.quad	.LBE751
 12521      00000000 
 12522 0ed0 00000000 		.quad	0
 12522      00000000 
 12523 0ed8 00000000 		.quad	0
 12523      00000000 
 12524 0ee0 60080000 		.quad	.LBB752
 12524      00000000 
 12525 0ee8 BB080000 		.quad	.LBE752
 12525      00000000 
 12526 0ef0 D4080000 		.quad	.LBB753
 12526      00000000 
 12527 0ef8 5E090000 		.quad	.LBE753
 12527      00000000 
 12528 0f00 9C0D0000 		.quad	.LBB792
 12528      00000000 
 12529 0f08 BE0D0000 		.quad	.LBE792
 12529      00000000 
 12530 0f10 00000000 		.quad	0
 12530      00000000 
 12531 0f18 00000000 		.quad	0
 12531      00000000 
 12532 0f20 5E090000 		.quad	.LBB754
 12532      00000000 
 12533 0f28 61090000 		.quad	.LBE754
 12533      00000000 
 12534 0f30 66090000 		.quad	.LBB757
 12534      00000000 
 12535 0f38 68090000 		.quad	.LBE757
 12535      00000000 
 12536 0f40 00000000 		.quad	0
 12536      00000000 
 12537 0f48 00000000 		.quad	0
 12537      00000000 
 12538 0f50 88090000 		.quad	.LBB760
 12538      00000000 
 12539 0f58 9A090000 		.quad	.LBE760
 12539      00000000 
 12540 0f60 9F090000 		.quad	.LBB764
 12540      00000000 
 12541 0f68 AB090000 		.quad	.LBE764
 12541      00000000 
 12542 0f70 B2090000 		.quad	.LBB765
 12542      00000000 
 12543 0f78 BF090000 		.quad	.LBE765
 12543      00000000 
 12544 0f80 00000000 		.quad	0
 12544      00000000 
 12545 0f88 00000000 		.quad	0
 12545      00000000 
 12546 0f90 CD090000 		.quad	.LBB766
 12546      00000000 
 12547 0f98 DF090000 		.quad	.LBE766
 12547      00000000 
 12548 0fa0 E6090000 		.quad	.LBB769
 12548      00000000 
 12549 0fa8 FF090000 		.quad	.LBE769
 12549      00000000 
 12550 0fb0 00000000 		.quad	0
 12550      00000000 
 12551 0fb8 00000000 		.quad	0
 12551      00000000 
 12552 0fc0 3C0A0000 		.quad	.LBB770
 12552      00000000 
 12553 0fc8 950A0000 		.quad	.LBE770
 12553      00000000 
 12554 0fd0 A40A0000 		.quad	.LBB771
 12554      00000000 
 12555 0fd8 300B0000 		.quad	.LBE771
 12555      00000000 
 12556 0fe0 040D0000 		.quad	.LBB787
 12556      00000000 
 12557 0fe8 140D0000 		.quad	.LBE787
 12557      00000000 
 12558 0ff0 BE0D0000 		.quad	.LBB793
 12558      00000000 
 12559 0ff8 CE0D0000 		.quad	.LBE793
 12559      00000000 
 12560 1000 00000000 		.quad	0
 12560      00000000 
 12561 1008 00000000 		.quad	0
 12561      00000000 
 12562 1010 550B0000 		.quad	.LBB776
 12562      00000000 
 12563 1018 670B0000 		.quad	.LBE776
 12563      00000000 
 12564 1020 6C0B0000 		.quad	.LBB780
 12564      00000000 
 12565 1028 780B0000 		.quad	.LBE780
 12565      00000000 
 12566 1030 7F0B0000 		.quad	.LBB781
 12566      00000000 
 12567 1038 8C0B0000 		.quad	.LBE781
 12567      00000000 
 12568 1040 00000000 		.quad	0
 12568      00000000 
 12569 1048 00000000 		.quad	0
 12569      00000000 
 12570 1050 9A0B0000 		.quad	.LBB782
 12570      00000000 
 12571 1058 A30B0000 		.quad	.LBE782
 12571      00000000 
 12572 1060 AA0B0000 		.quad	.LBB785
 12572      00000000 
 12573 1068 CC0B0000 		.quad	.LBE785
 12573      00000000 
 12574 1070 00000000 		.quad	0
 12574      00000000 
 12575 1078 00000000 		.quad	0
 12575      00000000 
 12576 1080 00000000 		.quad	.LFB3007
 12576      00000000 
 12577 1088 01030000 		.quad	.LFE3007
 12577      00000000 
 12578 1090 00000000 		.quad	.LFB3009
 12578      00000000 
 12579 1098 F1010000 		.quad	.LFE3009
 12579      00000000 
 12580 10a0 00000000 		.quad	.LFB3011
 12580      00000000 
 12581 10a8 DE010000 		.quad	.LFE3011
 12581      00000000 
 12582 10b0 00000000 		.quad	.LFB3013
 12582      00000000 
 12583 10b8 E4010000 		.quad	.LFE3013
 12583      00000000 
 12584 10c0 00000000 		.quad	.LFB3015
 12584      00000000 
 12585 10c8 DE010000 		.quad	.LFE3015
 12585      00000000 
 12586 10d0 00000000 		.quad	.LFB3017
 12586      00000000 
 12587 10d8 E4010000 		.quad	.LFE3017
 12587      00000000 
 12588 10e0 00000000 		.quad	.LFB3006
 12588      00000000 
 12589 10e8 CE0D0000 		.quad	.LFE3006
 12589      00000000 
 12590 10f0 00000000 		.quad	0
 12590      00000000 
 12591 10f8 00000000 		.quad	0
 12591      00000000 
 12592              		.section	.debug_line,"dr"
 12593              	.Ldebug_line0:
 12594 0000 9F080000 		.section	.debug_str,"dr"
 12594      0200C000 
 12594      00000101 
 12594      FB0E0D00 
 12594      01010101 
 12595              	.LASF4:
 12596 0000 496E4B65 		.ascii "InKey\0"
 12596      7900
 12597              	.LASF7:
 12598 0006 4F757444 		.ascii "OutData\0"
 12598      61746100 
 12599              	.LASF12:
 12600 000e 7E3C6C61 		.ascii "~<lambda>\0"
 12600      6D626461 
 12600      3E00
 12601              	.LASF9:
 12602 0018 3C6C616D 		.ascii "<lambda(unsigned int const&)>\0"
 12602      62646128 
 12602      756E7369 
 12602      676E6564 
 12602      20696E74 
 12603              	.LASF1:
 12604 0036 44617461 		.ascii "Data\0"
 12604      00
 12605              	.LASF6:
 12606 003b 4F75744B 		.ascii "OutKey\0"
 12606      657900
 12607              	.LASF0:
 12608 0042 48696768 		.ascii "HighPart\0"
 12608      50617274 
 12608      00
 12609              	.LASF11:
 12610 004b 3C6C616D 		.ascii "<lambda>\0"
 12610      6264613E 
 12610      00
 12611              	.LASF2:
 12612 0054 536F7274 		.ascii "SortBase\0"
 12612      42617365 
 12612      00
 12613              	.LASF16:
 12614 005d 73706565 		.ascii "speed\0"
 12614      6400
 12615              	.LASF3:
 12616 0063 536F7274 		.ascii "SortBits\0"
 12616      42697473 
 12616      00
 12617              	.LASF10:
 12618 006c 5F5F536F 		.ascii "__SortBins\0"
 12618      72744269 
 12618      6E7300
 12619              	.LASF5:
 12620 0077 496E4461 		.ascii "InData\0"
 12620      746100
 12621              	.LASF8:
 12622 007e 73697A65 		.ascii "size\0"
 12622      00
 12623              	.LASF13:
 12624 0083 6F706572 		.ascii "operator()\0"
 12624      61746F72 
 12624      282900
 12625              	.LASF15:
 12626 008e 536F7274 		.ascii "SortBins\0"
 12626      42696E73 
 12626      00
 12627              	.LASF14:
 12628 0097 5F5F636C 		.ascii "__closure\0"
 12628      6F737572 
 12628      6500
 12629              		.ident	"GCC: (i686-posix-sjlj-rev2, Built by MinGW-W64 project) 4.9.2"
DEFINED SYMBOLS
                            *ABS*:0000000000000000 TestRadixSort.cpp
  M:\Temp\cccHxA1c.s:69     .text$_Z13RadixSortPassIjjLi0ELi4EEvPKT_PKT0_PS0_PS3_y:0000000000000000 _Z13RadixSortPassIjjLi0ELi4EEvPKT_PKT0_PS0_PS3_y
  M:\Temp\cccHxA1c.s:554    .text$_Z13RadixSortPassIjjLi0ELi6EEvPKT_PKT0_PS0_PS3_y:0000000000000000 _Z13RadixSortPassIjjLi0ELi6EEvPKT_PKT0_PS0_PS3_y
  M:\Temp\cccHxA1c.s:922    .text$_Z13RadixSortPassIjjLi0ELi8EEvPKT_PKT0_PS0_PS3_y:0000000000000000 _Z13RadixSortPassIjjLi0ELi8EEvPKT_PKT0_PS0_PS3_y
  M:\Temp\cccHxA1c.s:1266   .text$_Z13RadixSortPassIjjLi0ELi12EEvPKT_PKT0_PS0_PS3_y:0000000000000000 _Z13RadixSortPassIjjLi0ELi12EEvPKT_PKT0_PS0_PS3_y
  M:\Temp\cccHxA1c.s:1619   .text$_Z13RadixSortPassIjjLi0ELi16EEvPKT_PKT0_PS0_PS3_y:0000000000000000 _Z13RadixSortPassIjjLi0ELi16EEvPKT_PKT0_PS0_PS3_y
  M:\Temp\cccHxA1c.s:1964   .text$_Z13RadixSortPassIjjLi0ELi20EEvPKT_PKT0_PS0_PS3_y:0000000000000000 _Z13RadixSortPassIjjLi0ELi20EEvPKT_PKT0_PS0_PS3_y
  M:\Temp\cccHxA1c.s:2323   .text.startup:0000000000000000 main

UNDEFINED SYMBOLS
__imp_QueryPerformanceFrequency
__imp_QueryPerformanceCounter
___chkstk_ms
__main
printf
memset
_Znay
